
HVAC_CONTROL_WITH_STM32.elf:     file format elf32-littlearm

Sections:
Idx Name          Size      VMA       LMA       File off  Algn
  0 .isr_vector   0000010c  08000000  08000000  00001000  2**0
                  CONTENTS, ALLOC, LOAD, READONLY, DATA
  1 .text         00007790  08000110  08000110  00001110  2**3
                  CONTENTS, ALLOC, LOAD, READONLY, CODE
  2 .rodata       00000c70  080078a0  080078a0  000088a0  2**2
                  CONTENTS, ALLOC, LOAD, READONLY, DATA
  3 .ARM.extab    00000000  08008510  08008510  0000a07c  2**0
                  CONTENTS, READONLY
  4 .ARM          00000008  08008510  08008510  00009510  2**2
                  CONTENTS, ALLOC, LOAD, READONLY, DATA
  5 .preinit_array 00000000  08008518  08008518  0000a07c  2**0
                  CONTENTS, ALLOC, LOAD, DATA
  6 .init_array   00000004  08008518  08008518  00009518  2**2
                  CONTENTS, ALLOC, LOAD, READONLY, DATA
  7 .fini_array   00000004  0800851c  0800851c  0000951c  2**2
                  CONTENTS, ALLOC, LOAD, READONLY, DATA
  8 .data         0000007c  20000000  08008520  0000a000  2**2
                  CONTENTS, ALLOC, LOAD, DATA
  9 .bss          0000054c  20000080  0800859c  0000a080  2**3
                  ALLOC
 10 ._user_heap_stack 00000604  200005cc  0800859c  0000a5cc  2**0
                  ALLOC
 11 .ARM.attributes 00000029  00000000  00000000  0000a07c  2**0
                  CONTENTS, READONLY
 12 .debug_info   0000b44c  00000000  00000000  0000a0a5  2**0
                  CONTENTS, READONLY, DEBUGGING, OCTETS
 13 .debug_abbrev 000029cf  00000000  00000000  000154f1  2**0
                  CONTENTS, READONLY, DEBUGGING, OCTETS
 14 .debug_aranges 00000b10  00000000  00000000  00017ec0  2**3
                  CONTENTS, READONLY, DEBUGGING, OCTETS
 15 .debug_rnglists 00000868  00000000  00000000  000189d0  2**0
                  CONTENTS, READONLY, DEBUGGING, OCTETS
 16 .debug_macro  00018962  00000000  00000000  00019238  2**0
                  CONTENTS, READONLY, DEBUGGING, OCTETS
 17 .debug_line   000123c8  00000000  00000000  00031b9a  2**0
                  CONTENTS, READONLY, DEBUGGING, OCTETS
 18 .debug_str    00084083  00000000  00000000  00043f62  2**0
                  CONTENTS, READONLY, DEBUGGING, OCTETS
 19 .comment      00000043  00000000  00000000  000c7fe5  2**0
                  CONTENTS, READONLY
 20 .debug_frame  0000327c  00000000  00000000  000c8028  2**2
                  CONTENTS, READONLY, DEBUGGING, OCTETS
 21 .debug_line_str 0000009f  00000000  00000000  000cb2a4  2**0
                  CONTENTS, READONLY, DEBUGGING, OCTETS

Disassembly of section .text:

08000110 <__do_global_dtors_aux>:
 8000110:	b510      	push	{r4, lr}
 8000112:	4c05      	ldr	r4, [pc, #20]	@ (8000128 <__do_global_dtors_aux+0x18>)
 8000114:	7823      	ldrb	r3, [r4, #0]
 8000116:	b933      	cbnz	r3, 8000126 <__do_global_dtors_aux+0x16>
 8000118:	4b04      	ldr	r3, [pc, #16]	@ (800012c <__do_global_dtors_aux+0x1c>)
 800011a:	b113      	cbz	r3, 8000122 <__do_global_dtors_aux+0x12>
 800011c:	4804      	ldr	r0, [pc, #16]	@ (8000130 <__do_global_dtors_aux+0x20>)
 800011e:	f3af 8000 	nop.w
 8000122:	2301      	movs	r3, #1
 8000124:	7023      	strb	r3, [r4, #0]
 8000126:	bd10      	pop	{r4, pc}
 8000128:	20000080 	.word	0x20000080
 800012c:	00000000 	.word	0x00000000
 8000130:	08007888 	.word	0x08007888

08000134 <frame_dummy>:
 8000134:	b508      	push	{r3, lr}
 8000136:	4b03      	ldr	r3, [pc, #12]	@ (8000144 <frame_dummy+0x10>)
 8000138:	b11b      	cbz	r3, 8000142 <frame_dummy+0xe>
 800013a:	4903      	ldr	r1, [pc, #12]	@ (8000148 <frame_dummy+0x14>)
 800013c:	4803      	ldr	r0, [pc, #12]	@ (800014c <frame_dummy+0x18>)
 800013e:	f3af 8000 	nop.w
 8000142:	bd08      	pop	{r3, pc}
 8000144:	00000000 	.word	0x00000000
 8000148:	20000084 	.word	0x20000084
 800014c:	08007888 	.word	0x08007888

08000150 <__aeabi_dmul>:
 8000150:	b570      	push	{r4, r5, r6, lr}
 8000152:	f04f 0cff 	mov.w	ip, #255	@ 0xff
 8000156:	f44c 6ce0 	orr.w	ip, ip, #1792	@ 0x700
 800015a:	ea1c 5411 	ands.w	r4, ip, r1, lsr #20
 800015e:	bf1d      	ittte	ne
 8000160:	ea1c 5513 	andsne.w	r5, ip, r3, lsr #20
 8000164:	ea94 0f0c 	teqne	r4, ip
 8000168:	ea95 0f0c 	teqne	r5, ip
 800016c:	f000 f8de 	bleq	800032c <__aeabi_dmul+0x1dc>
 8000170:	442c      	add	r4, r5
 8000172:	ea81 0603 	eor.w	r6, r1, r3
 8000176:	ea21 514c 	bic.w	r1, r1, ip, lsl #21
 800017a:	ea23 534c 	bic.w	r3, r3, ip, lsl #21
 800017e:	ea50 3501 	orrs.w	r5, r0, r1, lsl #12
 8000182:	bf18      	it	ne
 8000184:	ea52 3503 	orrsne.w	r5, r2, r3, lsl #12
 8000188:	f441 1180 	orr.w	r1, r1, #1048576	@ 0x100000
 800018c:	f443 1380 	orr.w	r3, r3, #1048576	@ 0x100000
 8000190:	d038      	beq.n	8000204 <__aeabi_dmul+0xb4>
 8000192:	fba0 ce02 	umull	ip, lr, r0, r2
 8000196:	f04f 0500 	mov.w	r5, #0
 800019a:	fbe1 e502 	umlal	lr, r5, r1, r2
 800019e:	f006 4200 	and.w	r2, r6, #2147483648	@ 0x80000000
 80001a2:	fbe0 e503 	umlal	lr, r5, r0, r3
 80001a6:	f04f 0600 	mov.w	r6, #0
 80001aa:	fbe1 5603 	umlal	r5, r6, r1, r3
 80001ae:	f09c 0f00 	teq	ip, #0
 80001b2:	bf18      	it	ne
 80001b4:	f04e 0e01 	orrne.w	lr, lr, #1
 80001b8:	f1a4 04ff 	sub.w	r4, r4, #255	@ 0xff
 80001bc:	f5b6 7f00 	cmp.w	r6, #512	@ 0x200
 80001c0:	f564 7440 	sbc.w	r4, r4, #768	@ 0x300
 80001c4:	d204      	bcs.n	80001d0 <__aeabi_dmul+0x80>
 80001c6:	ea5f 0e4e 	movs.w	lr, lr, lsl #1
 80001ca:	416d      	adcs	r5, r5
 80001cc:	eb46 0606 	adc.w	r6, r6, r6
 80001d0:	ea42 21c6 	orr.w	r1, r2, r6, lsl #11
 80001d4:	ea41 5155 	orr.w	r1, r1, r5, lsr #21
 80001d8:	ea4f 20c5 	mov.w	r0, r5, lsl #11
 80001dc:	ea40 505e 	orr.w	r0, r0, lr, lsr #21
 80001e0:	ea4f 2ece 	mov.w	lr, lr, lsl #11
 80001e4:	f1b4 0cfd 	subs.w	ip, r4, #253	@ 0xfd
 80001e8:	bf88      	it	hi
 80001ea:	f5bc 6fe0 	cmphi.w	ip, #1792	@ 0x700
 80001ee:	d81e      	bhi.n	800022e <__aeabi_dmul+0xde>
 80001f0:	f1be 4f00 	cmp.w	lr, #2147483648	@ 0x80000000
 80001f4:	bf08      	it	eq
 80001f6:	ea5f 0e50 	movseq.w	lr, r0, lsr #1
 80001fa:	f150 0000 	adcs.w	r0, r0, #0
 80001fe:	eb41 5104 	adc.w	r1, r1, r4, lsl #20
 8000202:	bd70      	pop	{r4, r5, r6, pc}
 8000204:	f006 4600 	and.w	r6, r6, #2147483648	@ 0x80000000
 8000208:	ea46 0101 	orr.w	r1, r6, r1
 800020c:	ea40 0002 	orr.w	r0, r0, r2
 8000210:	ea81 0103 	eor.w	r1, r1, r3
 8000214:	ebb4 045c 	subs.w	r4, r4, ip, lsr #1
 8000218:	bfc2      	ittt	gt
 800021a:	ebd4 050c 	rsbsgt	r5, r4, ip
 800021e:	ea41 5104 	orrgt.w	r1, r1, r4, lsl #20
 8000222:	bd70      	popgt	{r4, r5, r6, pc}
 8000224:	f441 1180 	orr.w	r1, r1, #1048576	@ 0x100000
 8000228:	f04f 0e00 	mov.w	lr, #0
 800022c:	3c01      	subs	r4, #1
 800022e:	f300 80ab 	bgt.w	8000388 <__aeabi_dmul+0x238>
 8000232:	f114 0f36 	cmn.w	r4, #54	@ 0x36
 8000236:	bfde      	ittt	le
 8000238:	2000      	movle	r0, #0
 800023a:	f001 4100 	andle.w	r1, r1, #2147483648	@ 0x80000000
 800023e:	bd70      	pople	{r4, r5, r6, pc}
 8000240:	f1c4 0400 	rsb	r4, r4, #0
 8000244:	3c20      	subs	r4, #32
 8000246:	da35      	bge.n	80002b4 <__aeabi_dmul+0x164>
 8000248:	340c      	adds	r4, #12
 800024a:	dc1b      	bgt.n	8000284 <__aeabi_dmul+0x134>
 800024c:	f104 0414 	add.w	r4, r4, #20
 8000250:	f1c4 0520 	rsb	r5, r4, #32
 8000254:	fa00 f305 	lsl.w	r3, r0, r5
 8000258:	fa20 f004 	lsr.w	r0, r0, r4
 800025c:	fa01 f205 	lsl.w	r2, r1, r5
 8000260:	ea40 0002 	orr.w	r0, r0, r2
 8000264:	f001 4200 	and.w	r2, r1, #2147483648	@ 0x80000000
 8000268:	f021 4100 	bic.w	r1, r1, #2147483648	@ 0x80000000
 800026c:	eb10 70d3 	adds.w	r0, r0, r3, lsr #31
 8000270:	fa21 f604 	lsr.w	r6, r1, r4
 8000274:	eb42 0106 	adc.w	r1, r2, r6
 8000278:	ea5e 0e43 	orrs.w	lr, lr, r3, lsl #1
 800027c:	bf08      	it	eq
 800027e:	ea20 70d3 	biceq.w	r0, r0, r3, lsr #31
 8000282:	bd70      	pop	{r4, r5, r6, pc}
 8000284:	f1c4 040c 	rsb	r4, r4, #12
 8000288:	f1c4 0520 	rsb	r5, r4, #32
 800028c:	fa00 f304 	lsl.w	r3, r0, r4
 8000290:	fa20 f005 	lsr.w	r0, r0, r5
 8000294:	fa01 f204 	lsl.w	r2, r1, r4
 8000298:	ea40 0002 	orr.w	r0, r0, r2
 800029c:	f001 4100 	and.w	r1, r1, #2147483648	@ 0x80000000
 80002a0:	eb10 70d3 	adds.w	r0, r0, r3, lsr #31
 80002a4:	f141 0100 	adc.w	r1, r1, #0
 80002a8:	ea5e 0e43 	orrs.w	lr, lr, r3, lsl #1
 80002ac:	bf08      	it	eq
 80002ae:	ea20 70d3 	biceq.w	r0, r0, r3, lsr #31
 80002b2:	bd70      	pop	{r4, r5, r6, pc}
 80002b4:	f1c4 0520 	rsb	r5, r4, #32
 80002b8:	fa00 f205 	lsl.w	r2, r0, r5
 80002bc:	ea4e 0e02 	orr.w	lr, lr, r2
 80002c0:	fa20 f304 	lsr.w	r3, r0, r4
 80002c4:	fa01 f205 	lsl.w	r2, r1, r5
 80002c8:	ea43 0302 	orr.w	r3, r3, r2
 80002cc:	fa21 f004 	lsr.w	r0, r1, r4
 80002d0:	f001 4100 	and.w	r1, r1, #2147483648	@ 0x80000000
 80002d4:	fa21 f204 	lsr.w	r2, r1, r4
 80002d8:	ea20 0002 	bic.w	r0, r0, r2
 80002dc:	eb00 70d3 	add.w	r0, r0, r3, lsr #31
 80002e0:	ea5e 0e43 	orrs.w	lr, lr, r3, lsl #1
 80002e4:	bf08      	it	eq
 80002e6:	ea20 70d3 	biceq.w	r0, r0, r3, lsr #31
 80002ea:	bd70      	pop	{r4, r5, r6, pc}
 80002ec:	f094 0f00 	teq	r4, #0
 80002f0:	d10f      	bne.n	8000312 <__aeabi_dmul+0x1c2>
 80002f2:	f001 4600 	and.w	r6, r1, #2147483648	@ 0x80000000
 80002f6:	0040      	lsls	r0, r0, #1
 80002f8:	eb41 0101 	adc.w	r1, r1, r1
 80002fc:	f411 1f80 	tst.w	r1, #1048576	@ 0x100000
 8000300:	bf08      	it	eq
 8000302:	3c01      	subeq	r4, #1
 8000304:	d0f7      	beq.n	80002f6 <__aeabi_dmul+0x1a6>
 8000306:	ea41 0106 	orr.w	r1, r1, r6
 800030a:	f095 0f00 	teq	r5, #0
 800030e:	bf18      	it	ne
 8000310:	4770      	bxne	lr
 8000312:	f003 4600 	and.w	r6, r3, #2147483648	@ 0x80000000
 8000316:	0052      	lsls	r2, r2, #1
 8000318:	eb43 0303 	adc.w	r3, r3, r3
 800031c:	f413 1f80 	tst.w	r3, #1048576	@ 0x100000
 8000320:	bf08      	it	eq
 8000322:	3d01      	subeq	r5, #1
 8000324:	d0f7      	beq.n	8000316 <__aeabi_dmul+0x1c6>
 8000326:	ea43 0306 	orr.w	r3, r3, r6
 800032a:	4770      	bx	lr
 800032c:	ea94 0f0c 	teq	r4, ip
 8000330:	ea0c 5513 	and.w	r5, ip, r3, lsr #20
 8000334:	bf18      	it	ne
 8000336:	ea95 0f0c 	teqne	r5, ip
 800033a:	d00c      	beq.n	8000356 <__aeabi_dmul+0x206>
 800033c:	ea50 0641 	orrs.w	r6, r0, r1, lsl #1
 8000340:	bf18      	it	ne
 8000342:	ea52 0643 	orrsne.w	r6, r2, r3, lsl #1
 8000346:	d1d1      	bne.n	80002ec <__aeabi_dmul+0x19c>
 8000348:	ea81 0103 	eor.w	r1, r1, r3
 800034c:	f001 4100 	and.w	r1, r1, #2147483648	@ 0x80000000
 8000350:	f04f 0000 	mov.w	r0, #0
 8000354:	bd70      	pop	{r4, r5, r6, pc}
 8000356:	ea50 0641 	orrs.w	r6, r0, r1, lsl #1
 800035a:	bf06      	itte	eq
 800035c:	4610      	moveq	r0, r2
 800035e:	4619      	moveq	r1, r3
 8000360:	ea52 0643 	orrsne.w	r6, r2, r3, lsl #1
 8000364:	d019      	beq.n	800039a <__aeabi_dmul+0x24a>
 8000366:	ea94 0f0c 	teq	r4, ip
 800036a:	d102      	bne.n	8000372 <__aeabi_dmul+0x222>
 800036c:	ea50 3601 	orrs.w	r6, r0, r1, lsl #12
 8000370:	d113      	bne.n	800039a <__aeabi_dmul+0x24a>
 8000372:	ea95 0f0c 	teq	r5, ip
 8000376:	d105      	bne.n	8000384 <__aeabi_dmul+0x234>
 8000378:	ea52 3603 	orrs.w	r6, r2, r3, lsl #12
 800037c:	bf1c      	itt	ne
 800037e:	4610      	movne	r0, r2
 8000380:	4619      	movne	r1, r3
 8000382:	d10a      	bne.n	800039a <__aeabi_dmul+0x24a>
 8000384:	ea81 0103 	eor.w	r1, r1, r3
 8000388:	f001 4100 	and.w	r1, r1, #2147483648	@ 0x80000000
 800038c:	f041 41fe 	orr.w	r1, r1, #2130706432	@ 0x7f000000
 8000390:	f441 0170 	orr.w	r1, r1, #15728640	@ 0xf00000
 8000394:	f04f 0000 	mov.w	r0, #0
 8000398:	bd70      	pop	{r4, r5, r6, pc}
 800039a:	f041 41fe 	orr.w	r1, r1, #2130706432	@ 0x7f000000
 800039e:	f441 0178 	orr.w	r1, r1, #16252928	@ 0xf80000
 80003a2:	bd70      	pop	{r4, r5, r6, pc}

080003a4 <__aeabi_drsub>:
 80003a4:	f081 4100 	eor.w	r1, r1, #2147483648	@ 0x80000000
 80003a8:	e002      	b.n	80003b0 <__adddf3>
 80003aa:	bf00      	nop

080003ac <__aeabi_dsub>:
 80003ac:	f083 4300 	eor.w	r3, r3, #2147483648	@ 0x80000000

080003b0 <__adddf3>:
 80003b0:	b530      	push	{r4, r5, lr}
 80003b2:	ea4f 0441 	mov.w	r4, r1, lsl #1
 80003b6:	ea4f 0543 	mov.w	r5, r3, lsl #1
 80003ba:	ea94 0f05 	teq	r4, r5
 80003be:	bf08      	it	eq
 80003c0:	ea90 0f02 	teqeq	r0, r2
 80003c4:	bf1f      	itttt	ne
 80003c6:	ea54 0c00 	orrsne.w	ip, r4, r0
 80003ca:	ea55 0c02 	orrsne.w	ip, r5, r2
 80003ce:	ea7f 5c64 	mvnsne.w	ip, r4, asr #21
 80003d2:	ea7f 5c65 	mvnsne.w	ip, r5, asr #21
 80003d6:	f000 80e2 	beq.w	800059e <__adddf3+0x1ee>
 80003da:	ea4f 5454 	mov.w	r4, r4, lsr #21
 80003de:	ebd4 5555 	rsbs	r5, r4, r5, lsr #21
 80003e2:	bfb8      	it	lt
 80003e4:	426d      	neglt	r5, r5
 80003e6:	dd0c      	ble.n	8000402 <__adddf3+0x52>
 80003e8:	442c      	add	r4, r5
 80003ea:	ea80 0202 	eor.w	r2, r0, r2
 80003ee:	ea81 0303 	eor.w	r3, r1, r3
 80003f2:	ea82 0000 	eor.w	r0, r2, r0
 80003f6:	ea83 0101 	eor.w	r1, r3, r1
 80003fa:	ea80 0202 	eor.w	r2, r0, r2
 80003fe:	ea81 0303 	eor.w	r3, r1, r3
 8000402:	2d36      	cmp	r5, #54	@ 0x36
 8000404:	bf88      	it	hi
 8000406:	bd30      	pophi	{r4, r5, pc}
 8000408:	f011 4f00 	tst.w	r1, #2147483648	@ 0x80000000
 800040c:	ea4f 3101 	mov.w	r1, r1, lsl #12
 8000410:	f44f 1c80 	mov.w	ip, #1048576	@ 0x100000
 8000414:	ea4c 3111 	orr.w	r1, ip, r1, lsr #12
 8000418:	d002      	beq.n	8000420 <__adddf3+0x70>
 800041a:	4240      	negs	r0, r0
 800041c:	eb61 0141 	sbc.w	r1, r1, r1, lsl #1
 8000420:	f013 4f00 	tst.w	r3, #2147483648	@ 0x80000000
 8000424:	ea4f 3303 	mov.w	r3, r3, lsl #12
 8000428:	ea4c 3313 	orr.w	r3, ip, r3, lsr #12
 800042c:	d002      	beq.n	8000434 <__adddf3+0x84>
 800042e:	4252      	negs	r2, r2
 8000430:	eb63 0343 	sbc.w	r3, r3, r3, lsl #1
 8000434:	ea94 0f05 	teq	r4, r5
 8000438:	f000 80a7 	beq.w	800058a <__adddf3+0x1da>
 800043c:	f1a4 0401 	sub.w	r4, r4, #1
 8000440:	f1d5 0e20 	rsbs	lr, r5, #32
 8000444:	db0d      	blt.n	8000462 <__adddf3+0xb2>
 8000446:	fa02 fc0e 	lsl.w	ip, r2, lr
 800044a:	fa22 f205 	lsr.w	r2, r2, r5
 800044e:	1880      	adds	r0, r0, r2
 8000450:	f141 0100 	adc.w	r1, r1, #0
 8000454:	fa03 f20e 	lsl.w	r2, r3, lr
 8000458:	1880      	adds	r0, r0, r2
 800045a:	fa43 f305 	asr.w	r3, r3, r5
 800045e:	4159      	adcs	r1, r3
 8000460:	e00e      	b.n	8000480 <__adddf3+0xd0>
 8000462:	f1a5 0520 	sub.w	r5, r5, #32
 8000466:	f10e 0e20 	add.w	lr, lr, #32
 800046a:	2a01      	cmp	r2, #1
 800046c:	fa03 fc0e 	lsl.w	ip, r3, lr
 8000470:	bf28      	it	cs
 8000472:	f04c 0c02 	orrcs.w	ip, ip, #2
 8000476:	fa43 f305 	asr.w	r3, r3, r5
 800047a:	18c0      	adds	r0, r0, r3
 800047c:	eb51 71e3 	adcs.w	r1, r1, r3, asr #31
 8000480:	f001 4500 	and.w	r5, r1, #2147483648	@ 0x80000000
 8000484:	d507      	bpl.n	8000496 <__adddf3+0xe6>
 8000486:	f04f 0e00 	mov.w	lr, #0
 800048a:	f1dc 0c00 	rsbs	ip, ip, #0
 800048e:	eb7e 0000 	sbcs.w	r0, lr, r0
 8000492:	eb6e 0101 	sbc.w	r1, lr, r1
 8000496:	f5b1 1f80 	cmp.w	r1, #1048576	@ 0x100000
 800049a:	d31b      	bcc.n	80004d4 <__adddf3+0x124>
 800049c:	f5b1 1f00 	cmp.w	r1, #2097152	@ 0x200000
 80004a0:	d30c      	bcc.n	80004bc <__adddf3+0x10c>
 80004a2:	0849      	lsrs	r1, r1, #1
 80004a4:	ea5f 0030 	movs.w	r0, r0, rrx
 80004a8:	ea4f 0c3c 	mov.w	ip, ip, rrx
 80004ac:	f104 0401 	add.w	r4, r4, #1
 80004b0:	ea4f 5244 	mov.w	r2, r4, lsl #21
 80004b4:	f512 0f80 	cmn.w	r2, #4194304	@ 0x400000
 80004b8:	f080 809a 	bcs.w	80005f0 <__adddf3+0x240>
 80004bc:	f1bc 4f00 	cmp.w	ip, #2147483648	@ 0x80000000
 80004c0:	bf08      	it	eq
 80004c2:	ea5f 0c50 	movseq.w	ip, r0, lsr #1
 80004c6:	f150 0000 	adcs.w	r0, r0, #0
 80004ca:	eb41 5104 	adc.w	r1, r1, r4, lsl #20
 80004ce:	ea41 0105 	orr.w	r1, r1, r5
 80004d2:	bd30      	pop	{r4, r5, pc}
 80004d4:	ea5f 0c4c 	movs.w	ip, ip, lsl #1
 80004d8:	4140      	adcs	r0, r0
 80004da:	eb41 0101 	adc.w	r1, r1, r1
 80004de:	3c01      	subs	r4, #1
 80004e0:	bf28      	it	cs
 80004e2:	f5b1 1f80 	cmpcs.w	r1, #1048576	@ 0x100000
 80004e6:	d2e9      	bcs.n	80004bc <__adddf3+0x10c>
 80004e8:	f091 0f00 	teq	r1, #0
 80004ec:	bf04      	itt	eq
 80004ee:	4601      	moveq	r1, r0
 80004f0:	2000      	moveq	r0, #0
 80004f2:	fab1 f381 	clz	r3, r1
 80004f6:	bf08      	it	eq
 80004f8:	3320      	addeq	r3, #32
 80004fa:	f1a3 030b 	sub.w	r3, r3, #11
 80004fe:	f1b3 0220 	subs.w	r2, r3, #32
 8000502:	da0c      	bge.n	800051e <__adddf3+0x16e>
 8000504:	320c      	adds	r2, #12
 8000506:	dd08      	ble.n	800051a <__adddf3+0x16a>
 8000508:	f102 0c14 	add.w	ip, r2, #20
 800050c:	f1c2 020c 	rsb	r2, r2, #12
 8000510:	fa01 f00c 	lsl.w	r0, r1, ip
 8000514:	fa21 f102 	lsr.w	r1, r1, r2
 8000518:	e00c      	b.n	8000534 <__adddf3+0x184>
 800051a:	f102 0214 	add.w	r2, r2, #20
 800051e:	bfd8      	it	le
 8000520:	f1c2 0c20 	rsble	ip, r2, #32
 8000524:	fa01 f102 	lsl.w	r1, r1, r2
 8000528:	fa20 fc0c 	lsr.w	ip, r0, ip
 800052c:	bfdc      	itt	le
 800052e:	ea41 010c 	orrle.w	r1, r1, ip
 8000532:	4090      	lslle	r0, r2
 8000534:	1ae4      	subs	r4, r4, r3
 8000536:	bfa2      	ittt	ge
 8000538:	eb01 5104 	addge.w	r1, r1, r4, lsl #20
 800053c:	4329      	orrge	r1, r5
 800053e:	bd30      	popge	{r4, r5, pc}
 8000540:	ea6f 0404 	mvn.w	r4, r4
 8000544:	3c1f      	subs	r4, #31
 8000546:	da1c      	bge.n	8000582 <__adddf3+0x1d2>
 8000548:	340c      	adds	r4, #12
 800054a:	dc0e      	bgt.n	800056a <__adddf3+0x1ba>
 800054c:	f104 0414 	add.w	r4, r4, #20
 8000550:	f1c4 0220 	rsb	r2, r4, #32
 8000554:	fa20 f004 	lsr.w	r0, r0, r4
 8000558:	fa01 f302 	lsl.w	r3, r1, r2
 800055c:	ea40 0003 	orr.w	r0, r0, r3
 8000560:	fa21 f304 	lsr.w	r3, r1, r4
 8000564:	ea45 0103 	orr.w	r1, r5, r3
 8000568:	bd30      	pop	{r4, r5, pc}
 800056a:	f1c4 040c 	rsb	r4, r4, #12
 800056e:	f1c4 0220 	rsb	r2, r4, #32
 8000572:	fa20 f002 	lsr.w	r0, r0, r2
 8000576:	fa01 f304 	lsl.w	r3, r1, r4
 800057a:	ea40 0003 	orr.w	r0, r0, r3
 800057e:	4629      	mov	r1, r5
 8000580:	bd30      	pop	{r4, r5, pc}
 8000582:	fa21 f004 	lsr.w	r0, r1, r4
 8000586:	4629      	mov	r1, r5
 8000588:	bd30      	pop	{r4, r5, pc}
 800058a:	f094 0f00 	teq	r4, #0
 800058e:	f483 1380 	eor.w	r3, r3, #1048576	@ 0x100000
 8000592:	bf06      	itte	eq
 8000594:	f481 1180 	eoreq.w	r1, r1, #1048576	@ 0x100000
 8000598:	3401      	addeq	r4, #1
 800059a:	3d01      	subne	r5, #1
 800059c:	e74e      	b.n	800043c <__adddf3+0x8c>
 800059e:	ea7f 5c64 	mvns.w	ip, r4, asr #21
 80005a2:	bf18      	it	ne
 80005a4:	ea7f 5c65 	mvnsne.w	ip, r5, asr #21
 80005a8:	d029      	beq.n	80005fe <__adddf3+0x24e>
 80005aa:	ea94 0f05 	teq	r4, r5
 80005ae:	bf08      	it	eq
 80005b0:	ea90 0f02 	teqeq	r0, r2
 80005b4:	d005      	beq.n	80005c2 <__adddf3+0x212>
 80005b6:	ea54 0c00 	orrs.w	ip, r4, r0
 80005ba:	bf04      	itt	eq
 80005bc:	4619      	moveq	r1, r3
 80005be:	4610      	moveq	r0, r2
 80005c0:	bd30      	pop	{r4, r5, pc}
 80005c2:	ea91 0f03 	teq	r1, r3
 80005c6:	bf1e      	ittt	ne
 80005c8:	2100      	movne	r1, #0
 80005ca:	2000      	movne	r0, #0
 80005cc:	bd30      	popne	{r4, r5, pc}
 80005ce:	ea5f 5c54 	movs.w	ip, r4, lsr #21
 80005d2:	d105      	bne.n	80005e0 <__adddf3+0x230>
 80005d4:	0040      	lsls	r0, r0, #1
 80005d6:	4149      	adcs	r1, r1
 80005d8:	bf28      	it	cs
 80005da:	f041 4100 	orrcs.w	r1, r1, #2147483648	@ 0x80000000
 80005de:	bd30      	pop	{r4, r5, pc}
 80005e0:	f514 0480 	adds.w	r4, r4, #4194304	@ 0x400000
 80005e4:	bf3c      	itt	cc
 80005e6:	f501 1180 	addcc.w	r1, r1, #1048576	@ 0x100000
 80005ea:	bd30      	popcc	{r4, r5, pc}
 80005ec:	f001 4500 	and.w	r5, r1, #2147483648	@ 0x80000000
 80005f0:	f045 41fe 	orr.w	r1, r5, #2130706432	@ 0x7f000000
 80005f4:	f441 0170 	orr.w	r1, r1, #15728640	@ 0xf00000
 80005f8:	f04f 0000 	mov.w	r0, #0
 80005fc:	bd30      	pop	{r4, r5, pc}
 80005fe:	ea7f 5c64 	mvns.w	ip, r4, asr #21
 8000602:	bf1a      	itte	ne
 8000604:	4619      	movne	r1, r3
 8000606:	4610      	movne	r0, r2
 8000608:	ea7f 5c65 	mvnseq.w	ip, r5, asr #21
 800060c:	bf1c      	itt	ne
 800060e:	460b      	movne	r3, r1
 8000610:	4602      	movne	r2, r0
 8000612:	ea50 3401 	orrs.w	r4, r0, r1, lsl #12
 8000616:	bf06      	itte	eq
 8000618:	ea52 3503 	orrseq.w	r5, r2, r3, lsl #12
 800061c:	ea91 0f03 	teqeq	r1, r3
 8000620:	f441 2100 	orrne.w	r1, r1, #524288	@ 0x80000
 8000624:	bd30      	pop	{r4, r5, pc}
 8000626:	bf00      	nop

08000628 <__aeabi_ui2d>:
 8000628:	f090 0f00 	teq	r0, #0
 800062c:	bf04      	itt	eq
 800062e:	2100      	moveq	r1, #0
 8000630:	4770      	bxeq	lr
 8000632:	b530      	push	{r4, r5, lr}
 8000634:	f44f 6480 	mov.w	r4, #1024	@ 0x400
 8000638:	f104 0432 	add.w	r4, r4, #50	@ 0x32
 800063c:	f04f 0500 	mov.w	r5, #0
 8000640:	f04f 0100 	mov.w	r1, #0
 8000644:	e750      	b.n	80004e8 <__adddf3+0x138>
 8000646:	bf00      	nop

08000648 <__aeabi_i2d>:
 8000648:	f090 0f00 	teq	r0, #0
 800064c:	bf04      	itt	eq
 800064e:	2100      	moveq	r1, #0
 8000650:	4770      	bxeq	lr
 8000652:	b530      	push	{r4, r5, lr}
 8000654:	f44f 6480 	mov.w	r4, #1024	@ 0x400
 8000658:	f104 0432 	add.w	r4, r4, #50	@ 0x32
 800065c:	f010 4500 	ands.w	r5, r0, #2147483648	@ 0x80000000
 8000660:	bf48      	it	mi
 8000662:	4240      	negmi	r0, r0
 8000664:	f04f 0100 	mov.w	r1, #0
 8000668:	e73e      	b.n	80004e8 <__adddf3+0x138>
 800066a:	bf00      	nop

0800066c <__aeabi_f2d>:
 800066c:	0042      	lsls	r2, r0, #1
 800066e:	ea4f 01e2 	mov.w	r1, r2, asr #3
 8000672:	ea4f 0131 	mov.w	r1, r1, rrx
 8000676:	ea4f 7002 	mov.w	r0, r2, lsl #28
 800067a:	bf1f      	itttt	ne
 800067c:	f012 437f 	andsne.w	r3, r2, #4278190080	@ 0xff000000
 8000680:	f093 4f7f 	teqne	r3, #4278190080	@ 0xff000000
 8000684:	f081 5160 	eorne.w	r1, r1, #939524096	@ 0x38000000
 8000688:	4770      	bxne	lr
 800068a:	f032 427f 	bics.w	r2, r2, #4278190080	@ 0xff000000
 800068e:	bf08      	it	eq
 8000690:	4770      	bxeq	lr
 8000692:	f093 4f7f 	teq	r3, #4278190080	@ 0xff000000
 8000696:	bf04      	itt	eq
 8000698:	f441 2100 	orreq.w	r1, r1, #524288	@ 0x80000
 800069c:	4770      	bxeq	lr
 800069e:	b530      	push	{r4, r5, lr}
 80006a0:	f44f 7460 	mov.w	r4, #896	@ 0x380
 80006a4:	f001 4500 	and.w	r5, r1, #2147483648	@ 0x80000000
 80006a8:	f021 4100 	bic.w	r1, r1, #2147483648	@ 0x80000000
 80006ac:	e71c      	b.n	80004e8 <__adddf3+0x138>
 80006ae:	bf00      	nop

080006b0 <__aeabi_ul2d>:
 80006b0:	ea50 0201 	orrs.w	r2, r0, r1
 80006b4:	bf08      	it	eq
 80006b6:	4770      	bxeq	lr
 80006b8:	b530      	push	{r4, r5, lr}
 80006ba:	f04f 0500 	mov.w	r5, #0
 80006be:	e00a      	b.n	80006d6 <__aeabi_l2d+0x16>

080006c0 <__aeabi_l2d>:
 80006c0:	ea50 0201 	orrs.w	r2, r0, r1
 80006c4:	bf08      	it	eq
 80006c6:	4770      	bxeq	lr
 80006c8:	b530      	push	{r4, r5, lr}
 80006ca:	f011 4500 	ands.w	r5, r1, #2147483648	@ 0x80000000
 80006ce:	d502      	bpl.n	80006d6 <__aeabi_l2d+0x16>
 80006d0:	4240      	negs	r0, r0
 80006d2:	eb61 0141 	sbc.w	r1, r1, r1, lsl #1
 80006d6:	f44f 6480 	mov.w	r4, #1024	@ 0x400
 80006da:	f104 0432 	add.w	r4, r4, #50	@ 0x32
 80006de:	ea5f 5c91 	movs.w	ip, r1, lsr #22
 80006e2:	f43f aed8 	beq.w	8000496 <__adddf3+0xe6>
 80006e6:	f04f 0203 	mov.w	r2, #3
 80006ea:	ea5f 0cdc 	movs.w	ip, ip, lsr #3
 80006ee:	bf18      	it	ne
 80006f0:	3203      	addne	r2, #3
 80006f2:	ea5f 0cdc 	movs.w	ip, ip, lsr #3
 80006f6:	bf18      	it	ne
 80006f8:	3203      	addne	r2, #3
 80006fa:	eb02 02dc 	add.w	r2, r2, ip, lsr #3
 80006fe:	f1c2 0320 	rsb	r3, r2, #32
 8000702:	fa00 fc03 	lsl.w	ip, r0, r3
 8000706:	fa20 f002 	lsr.w	r0, r0, r2
 800070a:	fa01 fe03 	lsl.w	lr, r1, r3
 800070e:	ea40 000e 	orr.w	r0, r0, lr
 8000712:	fa21 f102 	lsr.w	r1, r1, r2
 8000716:	4414      	add	r4, r2
 8000718:	e6bd      	b.n	8000496 <__adddf3+0xe6>
 800071a:	bf00      	nop

0800071c <__gedf2>:
 800071c:	f04f 3cff 	mov.w	ip, #4294967295
 8000720:	e006      	b.n	8000730 <__cmpdf2+0x4>
 8000722:	bf00      	nop

08000724 <__ledf2>:
 8000724:	f04f 0c01 	mov.w	ip, #1
 8000728:	e002      	b.n	8000730 <__cmpdf2+0x4>
 800072a:	bf00      	nop

0800072c <__cmpdf2>:
 800072c:	f04f 0c01 	mov.w	ip, #1
 8000730:	f84d cd04 	str.w	ip, [sp, #-4]!
 8000734:	ea4f 0c41 	mov.w	ip, r1, lsl #1
 8000738:	ea7f 5c6c 	mvns.w	ip, ip, asr #21
 800073c:	ea4f 0c43 	mov.w	ip, r3, lsl #1
 8000740:	bf18      	it	ne
 8000742:	ea7f 5c6c 	mvnsne.w	ip, ip, asr #21
 8000746:	d01b      	beq.n	8000780 <__cmpdf2+0x54>
 8000748:	b001      	add	sp, #4
 800074a:	ea50 0c41 	orrs.w	ip, r0, r1, lsl #1
 800074e:	bf0c      	ite	eq
 8000750:	ea52 0c43 	orrseq.w	ip, r2, r3, lsl #1
 8000754:	ea91 0f03 	teqne	r1, r3
 8000758:	bf02      	ittt	eq
 800075a:	ea90 0f02 	teqeq	r0, r2
 800075e:	2000      	moveq	r0, #0
 8000760:	4770      	bxeq	lr
 8000762:	f110 0f00 	cmn.w	r0, #0
 8000766:	ea91 0f03 	teq	r1, r3
 800076a:	bf58      	it	pl
 800076c:	4299      	cmppl	r1, r3
 800076e:	bf08      	it	eq
 8000770:	4290      	cmpeq	r0, r2
 8000772:	bf2c      	ite	cs
 8000774:	17d8      	asrcs	r0, r3, #31
 8000776:	ea6f 70e3 	mvncc.w	r0, r3, asr #31
 800077a:	f040 0001 	orr.w	r0, r0, #1
 800077e:	4770      	bx	lr
 8000780:	ea4f 0c41 	mov.w	ip, r1, lsl #1
 8000784:	ea7f 5c6c 	mvns.w	ip, ip, asr #21
 8000788:	d102      	bne.n	8000790 <__cmpdf2+0x64>
 800078a:	ea50 3c01 	orrs.w	ip, r0, r1, lsl #12
 800078e:	d107      	bne.n	80007a0 <__cmpdf2+0x74>
 8000790:	ea4f 0c43 	mov.w	ip, r3, lsl #1
 8000794:	ea7f 5c6c 	mvns.w	ip, ip, asr #21
 8000798:	d1d6      	bne.n	8000748 <__cmpdf2+0x1c>
 800079a:	ea52 3c03 	orrs.w	ip, r2, r3, lsl #12
 800079e:	d0d3      	beq.n	8000748 <__cmpdf2+0x1c>
 80007a0:	f85d 0b04 	ldr.w	r0, [sp], #4
 80007a4:	4770      	bx	lr
 80007a6:	bf00      	nop

080007a8 <__aeabi_cdrcmple>:
 80007a8:	4684      	mov	ip, r0
 80007aa:	4610      	mov	r0, r2
 80007ac:	4662      	mov	r2, ip
 80007ae:	468c      	mov	ip, r1
 80007b0:	4619      	mov	r1, r3
 80007b2:	4663      	mov	r3, ip
 80007b4:	e000      	b.n	80007b8 <__aeabi_cdcmpeq>
 80007b6:	bf00      	nop

080007b8 <__aeabi_cdcmpeq>:
 80007b8:	b501      	push	{r0, lr}
 80007ba:	f7ff ffb7 	bl	800072c <__cmpdf2>
 80007be:	2800      	cmp	r0, #0
 80007c0:	bf48      	it	mi
 80007c2:	f110 0f00 	cmnmi.w	r0, #0
 80007c6:	bd01      	pop	{r0, pc}

080007c8 <__aeabi_dcmpeq>:
 80007c8:	f84d ed08 	str.w	lr, [sp, #-8]!
 80007cc:	f7ff fff4 	bl	80007b8 <__aeabi_cdcmpeq>
 80007d0:	bf0c      	ite	eq
 80007d2:	2001      	moveq	r0, #1
 80007d4:	2000      	movne	r0, #0
 80007d6:	f85d fb08 	ldr.w	pc, [sp], #8
 80007da:	bf00      	nop

080007dc <__aeabi_dcmplt>:
 80007dc:	f84d ed08 	str.w	lr, [sp, #-8]!
 80007e0:	f7ff ffea 	bl	80007b8 <__aeabi_cdcmpeq>
 80007e4:	bf34      	ite	cc
 80007e6:	2001      	movcc	r0, #1
 80007e8:	2000      	movcs	r0, #0
 80007ea:	f85d fb08 	ldr.w	pc, [sp], #8
 80007ee:	bf00      	nop

080007f0 <__aeabi_dcmple>:
 80007f0:	f84d ed08 	str.w	lr, [sp, #-8]!
 80007f4:	f7ff ffe0 	bl	80007b8 <__aeabi_cdcmpeq>
 80007f8:	bf94      	ite	ls
 80007fa:	2001      	movls	r0, #1
 80007fc:	2000      	movhi	r0, #0
 80007fe:	f85d fb08 	ldr.w	pc, [sp], #8
 8000802:	bf00      	nop

08000804 <__aeabi_dcmpge>:
 8000804:	f84d ed08 	str.w	lr, [sp, #-8]!
 8000808:	f7ff ffce 	bl	80007a8 <__aeabi_cdrcmple>
 800080c:	bf94      	ite	ls
 800080e:	2001      	movls	r0, #1
 8000810:	2000      	movhi	r0, #0
 8000812:	f85d fb08 	ldr.w	pc, [sp], #8
 8000816:	bf00      	nop

08000818 <__aeabi_dcmpgt>:
 8000818:	f84d ed08 	str.w	lr, [sp, #-8]!
 800081c:	f7ff ffc4 	bl	80007a8 <__aeabi_cdrcmple>
 8000820:	bf34      	ite	cc
 8000822:	2001      	movcc	r0, #1
 8000824:	2000      	movcs	r0, #0
 8000826:	f85d fb08 	ldr.w	pc, [sp], #8
 800082a:	bf00      	nop

0800082c <__aeabi_d2iz>:
 800082c:	ea4f 0241 	mov.w	r2, r1, lsl #1
 8000830:	f512 1200 	adds.w	r2, r2, #2097152	@ 0x200000
 8000834:	d215      	bcs.n	8000862 <__aeabi_d2iz+0x36>
 8000836:	d511      	bpl.n	800085c <__aeabi_d2iz+0x30>
 8000838:	f46f 7378 	mvn.w	r3, #992	@ 0x3e0
 800083c:	ebb3 5262 	subs.w	r2, r3, r2, asr #21
 8000840:	d912      	bls.n	8000868 <__aeabi_d2iz+0x3c>
 8000842:	ea4f 23c1 	mov.w	r3, r1, lsl #11
 8000846:	f043 4300 	orr.w	r3, r3, #2147483648	@ 0x80000000
 800084a:	ea43 5350 	orr.w	r3, r3, r0, lsr #21
 800084e:	f011 4f00 	tst.w	r1, #2147483648	@ 0x80000000
 8000852:	fa23 f002 	lsr.w	r0, r3, r2
 8000856:	bf18      	it	ne
 8000858:	4240      	negne	r0, r0
 800085a:	4770      	bx	lr
 800085c:	f04f 0000 	mov.w	r0, #0
 8000860:	4770      	bx	lr
 8000862:	ea50 3001 	orrs.w	r0, r0, r1, lsl #12
 8000866:	d105      	bne.n	8000874 <__aeabi_d2iz+0x48>
 8000868:	f011 4000 	ands.w	r0, r1, #2147483648	@ 0x80000000
 800086c:	bf08      	it	eq
 800086e:	f06f 4000 	mvneq.w	r0, #2147483648	@ 0x80000000
 8000872:	4770      	bx	lr
 8000874:	f04f 0000 	mov.w	r0, #0
 8000878:	4770      	bx	lr
 800087a:	bf00      	nop

0800087c <__aeabi_frsub>:
 800087c:	f080 4000 	eor.w	r0, r0, #2147483648	@ 0x80000000
 8000880:	e002      	b.n	8000888 <__addsf3>
 8000882:	bf00      	nop

08000884 <__aeabi_fsub>:
 8000884:	f081 4100 	eor.w	r1, r1, #2147483648	@ 0x80000000

08000888 <__addsf3>:
 8000888:	0042      	lsls	r2, r0, #1
 800088a:	bf1f      	itttt	ne
 800088c:	ea5f 0341 	movsne.w	r3, r1, lsl #1
 8000890:	ea92 0f03 	teqne	r2, r3
 8000894:	ea7f 6c22 	mvnsne.w	ip, r2, asr #24
 8000898:	ea7f 6c23 	mvnsne.w	ip, r3, asr #24
 800089c:	d06a      	beq.n	8000974 <__addsf3+0xec>
 800089e:	ea4f 6212 	mov.w	r2, r2, lsr #24
 80008a2:	ebd2 6313 	rsbs	r3, r2, r3, lsr #24
 80008a6:	bfc1      	itttt	gt
 80008a8:	18d2      	addgt	r2, r2, r3
 80008aa:	4041      	eorgt	r1, r0
 80008ac:	4048      	eorgt	r0, r1
 80008ae:	4041      	eorgt	r1, r0
 80008b0:	bfb8      	it	lt
 80008b2:	425b      	neglt	r3, r3
 80008b4:	2b19      	cmp	r3, #25
 80008b6:	bf88      	it	hi
 80008b8:	4770      	bxhi	lr
 80008ba:	f010 4f00 	tst.w	r0, #2147483648	@ 0x80000000
 80008be:	f440 0000 	orr.w	r0, r0, #8388608	@ 0x800000
 80008c2:	f020 407f 	bic.w	r0, r0, #4278190080	@ 0xff000000
 80008c6:	bf18      	it	ne
 80008c8:	4240      	negne	r0, r0
 80008ca:	f011 4f00 	tst.w	r1, #2147483648	@ 0x80000000
 80008ce:	f441 0100 	orr.w	r1, r1, #8388608	@ 0x800000
 80008d2:	f021 417f 	bic.w	r1, r1, #4278190080	@ 0xff000000
 80008d6:	bf18      	it	ne
 80008d8:	4249      	negne	r1, r1
 80008da:	ea92 0f03 	teq	r2, r3
 80008de:	d03f      	beq.n	8000960 <__addsf3+0xd8>
 80008e0:	f1a2 0201 	sub.w	r2, r2, #1
 80008e4:	fa41 fc03 	asr.w	ip, r1, r3
 80008e8:	eb10 000c 	adds.w	r0, r0, ip
 80008ec:	f1c3 0320 	rsb	r3, r3, #32
 80008f0:	fa01 f103 	lsl.w	r1, r1, r3
 80008f4:	f000 4300 	and.w	r3, r0, #2147483648	@ 0x80000000
 80008f8:	d502      	bpl.n	8000900 <__addsf3+0x78>
 80008fa:	4249      	negs	r1, r1
 80008fc:	eb60 0040 	sbc.w	r0, r0, r0, lsl #1
 8000900:	f5b0 0f00 	cmp.w	r0, #8388608	@ 0x800000
 8000904:	d313      	bcc.n	800092e <__addsf3+0xa6>
 8000906:	f1b0 7f80 	cmp.w	r0, #16777216	@ 0x1000000
 800090a:	d306      	bcc.n	800091a <__addsf3+0x92>
 800090c:	0840      	lsrs	r0, r0, #1
 800090e:	ea4f 0131 	mov.w	r1, r1, rrx
 8000912:	f102 0201 	add.w	r2, r2, #1
 8000916:	2afe      	cmp	r2, #254	@ 0xfe
 8000918:	d251      	bcs.n	80009be <__addsf3+0x136>
 800091a:	f1b1 4f00 	cmp.w	r1, #2147483648	@ 0x80000000
 800091e:	eb40 50c2 	adc.w	r0, r0, r2, lsl #23
 8000922:	bf08      	it	eq
 8000924:	f020 0001 	biceq.w	r0, r0, #1
 8000928:	ea40 0003 	orr.w	r0, r0, r3
 800092c:	4770      	bx	lr
 800092e:	0049      	lsls	r1, r1, #1
 8000930:	eb40 0000 	adc.w	r0, r0, r0
 8000934:	3a01      	subs	r2, #1
 8000936:	bf28      	it	cs
 8000938:	f5b0 0f00 	cmpcs.w	r0, #8388608	@ 0x800000
 800093c:	d2ed      	bcs.n	800091a <__addsf3+0x92>
 800093e:	fab0 fc80 	clz	ip, r0
 8000942:	f1ac 0c08 	sub.w	ip, ip, #8
 8000946:	ebb2 020c 	subs.w	r2, r2, ip
 800094a:	fa00 f00c 	lsl.w	r0, r0, ip
 800094e:	bfaa      	itet	ge
 8000950:	eb00 50c2 	addge.w	r0, r0, r2, lsl #23
 8000954:	4252      	neglt	r2, r2
 8000956:	4318      	orrge	r0, r3
 8000958:	bfbc      	itt	lt
 800095a:	40d0      	lsrlt	r0, r2
 800095c:	4318      	orrlt	r0, r3
 800095e:	4770      	bx	lr
 8000960:	f092 0f00 	teq	r2, #0
 8000964:	f481 0100 	eor.w	r1, r1, #8388608	@ 0x800000
 8000968:	bf06      	itte	eq
 800096a:	f480 0000 	eoreq.w	r0, r0, #8388608	@ 0x800000
 800096e:	3201      	addeq	r2, #1
 8000970:	3b01      	subne	r3, #1
 8000972:	e7b5      	b.n	80008e0 <__addsf3+0x58>
 8000974:	ea4f 0341 	mov.w	r3, r1, lsl #1
 8000978:	ea7f 6c22 	mvns.w	ip, r2, asr #24
 800097c:	bf18      	it	ne
 800097e:	ea7f 6c23 	mvnsne.w	ip, r3, asr #24
 8000982:	d021      	beq.n	80009c8 <__addsf3+0x140>
 8000984:	ea92 0f03 	teq	r2, r3
 8000988:	d004      	beq.n	8000994 <__addsf3+0x10c>
 800098a:	f092 0f00 	teq	r2, #0
 800098e:	bf08      	it	eq
 8000990:	4608      	moveq	r0, r1
 8000992:	4770      	bx	lr
 8000994:	ea90 0f01 	teq	r0, r1
 8000998:	bf1c      	itt	ne
 800099a:	2000      	movne	r0, #0
 800099c:	4770      	bxne	lr
 800099e:	f012 4f7f 	tst.w	r2, #4278190080	@ 0xff000000
 80009a2:	d104      	bne.n	80009ae <__addsf3+0x126>
 80009a4:	0040      	lsls	r0, r0, #1
 80009a6:	bf28      	it	cs
 80009a8:	f040 4000 	orrcs.w	r0, r0, #2147483648	@ 0x80000000
 80009ac:	4770      	bx	lr
 80009ae:	f112 7200 	adds.w	r2, r2, #33554432	@ 0x2000000
 80009b2:	bf3c      	itt	cc
 80009b4:	f500 0000 	addcc.w	r0, r0, #8388608	@ 0x800000
 80009b8:	4770      	bxcc	lr
 80009ba:	f000 4300 	and.w	r3, r0, #2147483648	@ 0x80000000
 80009be:	f043 40fe 	orr.w	r0, r3, #2130706432	@ 0x7f000000
 80009c2:	f440 0000 	orr.w	r0, r0, #8388608	@ 0x800000
 80009c6:	4770      	bx	lr
 80009c8:	ea7f 6222 	mvns.w	r2, r2, asr #24
 80009cc:	bf16      	itet	ne
 80009ce:	4608      	movne	r0, r1
 80009d0:	ea7f 6323 	mvnseq.w	r3, r3, asr #24
 80009d4:	4601      	movne	r1, r0
 80009d6:	0242      	lsls	r2, r0, #9
 80009d8:	bf06      	itte	eq
 80009da:	ea5f 2341 	movseq.w	r3, r1, lsl #9
 80009de:	ea90 0f01 	teqeq	r0, r1
 80009e2:	f440 0080 	orrne.w	r0, r0, #4194304	@ 0x400000
 80009e6:	4770      	bx	lr

080009e8 <__aeabi_ui2f>:
 80009e8:	f04f 0300 	mov.w	r3, #0
 80009ec:	e004      	b.n	80009f8 <__aeabi_i2f+0x8>
 80009ee:	bf00      	nop

080009f0 <__aeabi_i2f>:
 80009f0:	f010 4300 	ands.w	r3, r0, #2147483648	@ 0x80000000
 80009f4:	bf48      	it	mi
 80009f6:	4240      	negmi	r0, r0
 80009f8:	ea5f 0c00 	movs.w	ip, r0
 80009fc:	bf08      	it	eq
 80009fe:	4770      	bxeq	lr
 8000a00:	f043 4396 	orr.w	r3, r3, #1258291200	@ 0x4b000000
 8000a04:	4601      	mov	r1, r0
 8000a06:	f04f 0000 	mov.w	r0, #0
 8000a0a:	e01c      	b.n	8000a46 <__aeabi_l2f+0x2a>

08000a0c <__aeabi_ul2f>:
 8000a0c:	ea50 0201 	orrs.w	r2, r0, r1
 8000a10:	bf08      	it	eq
 8000a12:	4770      	bxeq	lr
 8000a14:	f04f 0300 	mov.w	r3, #0
 8000a18:	e00a      	b.n	8000a30 <__aeabi_l2f+0x14>
 8000a1a:	bf00      	nop

08000a1c <__aeabi_l2f>:
 8000a1c:	ea50 0201 	orrs.w	r2, r0, r1
 8000a20:	bf08      	it	eq
 8000a22:	4770      	bxeq	lr
 8000a24:	f011 4300 	ands.w	r3, r1, #2147483648	@ 0x80000000
 8000a28:	d502      	bpl.n	8000a30 <__aeabi_l2f+0x14>
 8000a2a:	4240      	negs	r0, r0
 8000a2c:	eb61 0141 	sbc.w	r1, r1, r1, lsl #1
 8000a30:	ea5f 0c01 	movs.w	ip, r1
 8000a34:	bf02      	ittt	eq
 8000a36:	4684      	moveq	ip, r0
 8000a38:	4601      	moveq	r1, r0
 8000a3a:	2000      	moveq	r0, #0
 8000a3c:	f043 43b6 	orr.w	r3, r3, #1526726656	@ 0x5b000000
 8000a40:	bf08      	it	eq
 8000a42:	f1a3 5380 	subeq.w	r3, r3, #268435456	@ 0x10000000
 8000a46:	f5a3 0300 	sub.w	r3, r3, #8388608	@ 0x800000
 8000a4a:	fabc f28c 	clz	r2, ip
 8000a4e:	3a08      	subs	r2, #8
 8000a50:	eba3 53c2 	sub.w	r3, r3, r2, lsl #23
 8000a54:	db10      	blt.n	8000a78 <__aeabi_l2f+0x5c>
 8000a56:	fa01 fc02 	lsl.w	ip, r1, r2
 8000a5a:	4463      	add	r3, ip
 8000a5c:	fa00 fc02 	lsl.w	ip, r0, r2
 8000a60:	f1c2 0220 	rsb	r2, r2, #32
 8000a64:	f1bc 4f00 	cmp.w	ip, #2147483648	@ 0x80000000
 8000a68:	fa20 f202 	lsr.w	r2, r0, r2
 8000a6c:	eb43 0002 	adc.w	r0, r3, r2
 8000a70:	bf08      	it	eq
 8000a72:	f020 0001 	biceq.w	r0, r0, #1
 8000a76:	4770      	bx	lr
 8000a78:	f102 0220 	add.w	r2, r2, #32
 8000a7c:	fa01 fc02 	lsl.w	ip, r1, r2
 8000a80:	f1c2 0220 	rsb	r2, r2, #32
 8000a84:	ea50 004c 	orrs.w	r0, r0, ip, lsl #1
 8000a88:	fa21 f202 	lsr.w	r2, r1, r2
 8000a8c:	eb43 0002 	adc.w	r0, r3, r2
 8000a90:	bf08      	it	eq
 8000a92:	ea20 70dc 	biceq.w	r0, r0, ip, lsr #31
 8000a96:	4770      	bx	lr

08000a98 <__aeabi_fmul>:
 8000a98:	f04f 0cff 	mov.w	ip, #255	@ 0xff
 8000a9c:	ea1c 52d0 	ands.w	r2, ip, r0, lsr #23
 8000aa0:	bf1e      	ittt	ne
 8000aa2:	ea1c 53d1 	andsne.w	r3, ip, r1, lsr #23
 8000aa6:	ea92 0f0c 	teqne	r2, ip
 8000aaa:	ea93 0f0c 	teqne	r3, ip
 8000aae:	d06f      	beq.n	8000b90 <__aeabi_fmul+0xf8>
 8000ab0:	441a      	add	r2, r3
 8000ab2:	ea80 0c01 	eor.w	ip, r0, r1
 8000ab6:	0240      	lsls	r0, r0, #9
 8000ab8:	bf18      	it	ne
 8000aba:	ea5f 2141 	movsne.w	r1, r1, lsl #9
 8000abe:	d01e      	beq.n	8000afe <__aeabi_fmul+0x66>
 8000ac0:	f04f 6300 	mov.w	r3, #134217728	@ 0x8000000
 8000ac4:	ea43 1050 	orr.w	r0, r3, r0, lsr #5
 8000ac8:	ea43 1151 	orr.w	r1, r3, r1, lsr #5
 8000acc:	fba0 3101 	umull	r3, r1, r0, r1
 8000ad0:	f00c 4000 	and.w	r0, ip, #2147483648	@ 0x80000000
 8000ad4:	f5b1 0f00 	cmp.w	r1, #8388608	@ 0x800000
 8000ad8:	bf3e      	ittt	cc
 8000ada:	0049      	lslcc	r1, r1, #1
 8000adc:	ea41 71d3 	orrcc.w	r1, r1, r3, lsr #31
 8000ae0:	005b      	lslcc	r3, r3, #1
 8000ae2:	ea40 0001 	orr.w	r0, r0, r1
 8000ae6:	f162 027f 	sbc.w	r2, r2, #127	@ 0x7f
 8000aea:	2afd      	cmp	r2, #253	@ 0xfd
 8000aec:	d81d      	bhi.n	8000b2a <__aeabi_fmul+0x92>
 8000aee:	f1b3 4f00 	cmp.w	r3, #2147483648	@ 0x80000000
 8000af2:	eb40 50c2 	adc.w	r0, r0, r2, lsl #23
 8000af6:	bf08      	it	eq
 8000af8:	f020 0001 	biceq.w	r0, r0, #1
 8000afc:	4770      	bx	lr
 8000afe:	f090 0f00 	teq	r0, #0
 8000b02:	f00c 4c00 	and.w	ip, ip, #2147483648	@ 0x80000000
 8000b06:	bf08      	it	eq
 8000b08:	0249      	lsleq	r1, r1, #9
 8000b0a:	ea4c 2050 	orr.w	r0, ip, r0, lsr #9
 8000b0e:	ea40 2051 	orr.w	r0, r0, r1, lsr #9
 8000b12:	3a7f      	subs	r2, #127	@ 0x7f
 8000b14:	bfc2      	ittt	gt
 8000b16:	f1d2 03ff 	rsbsgt	r3, r2, #255	@ 0xff
 8000b1a:	ea40 50c2 	orrgt.w	r0, r0, r2, lsl #23
 8000b1e:	4770      	bxgt	lr
 8000b20:	f440 0000 	orr.w	r0, r0, #8388608	@ 0x800000
 8000b24:	f04f 0300 	mov.w	r3, #0
 8000b28:	3a01      	subs	r2, #1
 8000b2a:	dc5d      	bgt.n	8000be8 <__aeabi_fmul+0x150>
 8000b2c:	f112 0f19 	cmn.w	r2, #25
 8000b30:	bfdc      	itt	le
 8000b32:	f000 4000 	andle.w	r0, r0, #2147483648	@ 0x80000000
 8000b36:	4770      	bxle	lr
 8000b38:	f1c2 0200 	rsb	r2, r2, #0
 8000b3c:	0041      	lsls	r1, r0, #1
 8000b3e:	fa21 f102 	lsr.w	r1, r1, r2
 8000b42:	f1c2 0220 	rsb	r2, r2, #32
 8000b46:	fa00 fc02 	lsl.w	ip, r0, r2
 8000b4a:	ea5f 0031 	movs.w	r0, r1, rrx
 8000b4e:	f140 0000 	adc.w	r0, r0, #0
 8000b52:	ea53 034c 	orrs.w	r3, r3, ip, lsl #1
 8000b56:	bf08      	it	eq
 8000b58:	ea20 70dc 	biceq.w	r0, r0, ip, lsr #31
 8000b5c:	4770      	bx	lr
 8000b5e:	f092 0f00 	teq	r2, #0
 8000b62:	f000 4c00 	and.w	ip, r0, #2147483648	@ 0x80000000
 8000b66:	bf02      	ittt	eq
 8000b68:	0040      	lsleq	r0, r0, #1
 8000b6a:	f410 0f00 	tsteq.w	r0, #8388608	@ 0x800000
 8000b6e:	3a01      	subeq	r2, #1
 8000b70:	d0f9      	beq.n	8000b66 <__aeabi_fmul+0xce>
 8000b72:	ea40 000c 	orr.w	r0, r0, ip
 8000b76:	f093 0f00 	teq	r3, #0
 8000b7a:	f001 4c00 	and.w	ip, r1, #2147483648	@ 0x80000000
 8000b7e:	bf02      	ittt	eq
 8000b80:	0049      	lsleq	r1, r1, #1
 8000b82:	f411 0f00 	tsteq.w	r1, #8388608	@ 0x800000
 8000b86:	3b01      	subeq	r3, #1
 8000b88:	d0f9      	beq.n	8000b7e <__aeabi_fmul+0xe6>
 8000b8a:	ea41 010c 	orr.w	r1, r1, ip
 8000b8e:	e78f      	b.n	8000ab0 <__aeabi_fmul+0x18>
 8000b90:	ea0c 53d1 	and.w	r3, ip, r1, lsr #23
 8000b94:	ea92 0f0c 	teq	r2, ip
 8000b98:	bf18      	it	ne
 8000b9a:	ea93 0f0c 	teqne	r3, ip
 8000b9e:	d00a      	beq.n	8000bb6 <__aeabi_fmul+0x11e>
 8000ba0:	f030 4c00 	bics.w	ip, r0, #2147483648	@ 0x80000000
 8000ba4:	bf18      	it	ne
 8000ba6:	f031 4c00 	bicsne.w	ip, r1, #2147483648	@ 0x80000000
 8000baa:	d1d8      	bne.n	8000b5e <__aeabi_fmul+0xc6>
 8000bac:	ea80 0001 	eor.w	r0, r0, r1
 8000bb0:	f000 4000 	and.w	r0, r0, #2147483648	@ 0x80000000
 8000bb4:	4770      	bx	lr
 8000bb6:	f090 0f00 	teq	r0, #0
 8000bba:	bf17      	itett	ne
 8000bbc:	f090 4f00 	teqne	r0, #2147483648	@ 0x80000000
 8000bc0:	4608      	moveq	r0, r1
 8000bc2:	f091 0f00 	teqne	r1, #0
 8000bc6:	f091 4f00 	teqne	r1, #2147483648	@ 0x80000000
 8000bca:	d014      	beq.n	8000bf6 <__aeabi_fmul+0x15e>
 8000bcc:	ea92 0f0c 	teq	r2, ip
 8000bd0:	d101      	bne.n	8000bd6 <__aeabi_fmul+0x13e>
 8000bd2:	0242      	lsls	r2, r0, #9
 8000bd4:	d10f      	bne.n	8000bf6 <__aeabi_fmul+0x15e>
 8000bd6:	ea93 0f0c 	teq	r3, ip
 8000bda:	d103      	bne.n	8000be4 <__aeabi_fmul+0x14c>
 8000bdc:	024b      	lsls	r3, r1, #9
 8000bde:	bf18      	it	ne
 8000be0:	4608      	movne	r0, r1
 8000be2:	d108      	bne.n	8000bf6 <__aeabi_fmul+0x15e>
 8000be4:	ea80 0001 	eor.w	r0, r0, r1
 8000be8:	f000 4000 	and.w	r0, r0, #2147483648	@ 0x80000000
 8000bec:	f040 40fe 	orr.w	r0, r0, #2130706432	@ 0x7f000000
 8000bf0:	f440 0000 	orr.w	r0, r0, #8388608	@ 0x800000
 8000bf4:	4770      	bx	lr
 8000bf6:	f040 40fe 	orr.w	r0, r0, #2130706432	@ 0x7f000000
 8000bfa:	f440 0040 	orr.w	r0, r0, #12582912	@ 0xc00000
 8000bfe:	4770      	bx	lr

08000c00 <__aeabi_fdiv>:
 8000c00:	f04f 0cff 	mov.w	ip, #255	@ 0xff
 8000c04:	ea1c 52d0 	ands.w	r2, ip, r0, lsr #23
 8000c08:	bf1e      	ittt	ne
 8000c0a:	ea1c 53d1 	andsne.w	r3, ip, r1, lsr #23
 8000c0e:	ea92 0f0c 	teqne	r2, ip
 8000c12:	ea93 0f0c 	teqne	r3, ip
 8000c16:	d069      	beq.n	8000cec <__aeabi_fdiv+0xec>
 8000c18:	eba2 0203 	sub.w	r2, r2, r3
 8000c1c:	ea80 0c01 	eor.w	ip, r0, r1
 8000c20:	0249      	lsls	r1, r1, #9
 8000c22:	ea4f 2040 	mov.w	r0, r0, lsl #9
 8000c26:	d037      	beq.n	8000c98 <__aeabi_fdiv+0x98>
 8000c28:	f04f 5380 	mov.w	r3, #268435456	@ 0x10000000
 8000c2c:	ea43 1111 	orr.w	r1, r3, r1, lsr #4
 8000c30:	ea43 1310 	orr.w	r3, r3, r0, lsr #4
 8000c34:	f00c 4000 	and.w	r0, ip, #2147483648	@ 0x80000000
 8000c38:	428b      	cmp	r3, r1
 8000c3a:	bf38      	it	cc
 8000c3c:	005b      	lslcc	r3, r3, #1
 8000c3e:	f142 027d 	adc.w	r2, r2, #125	@ 0x7d
 8000c42:	f44f 0c00 	mov.w	ip, #8388608	@ 0x800000
 8000c46:	428b      	cmp	r3, r1
 8000c48:	bf24      	itt	cs
 8000c4a:	1a5b      	subcs	r3, r3, r1
 8000c4c:	ea40 000c 	orrcs.w	r0, r0, ip
 8000c50:	ebb3 0f51 	cmp.w	r3, r1, lsr #1
 8000c54:	bf24      	itt	cs
 8000c56:	eba3 0351 	subcs.w	r3, r3, r1, lsr #1
 8000c5a:	ea40 005c 	orrcs.w	r0, r0, ip, lsr #1
 8000c5e:	ebb3 0f91 	cmp.w	r3, r1, lsr #2
 8000c62:	bf24      	itt	cs
 8000c64:	eba3 0391 	subcs.w	r3, r3, r1, lsr #2
 8000c68:	ea40 009c 	orrcs.w	r0, r0, ip, lsr #2
 8000c6c:	ebb3 0fd1 	cmp.w	r3, r1, lsr #3
 8000c70:	bf24      	itt	cs
 8000c72:	eba3 03d1 	subcs.w	r3, r3, r1, lsr #3
 8000c76:	ea40 00dc 	orrcs.w	r0, r0, ip, lsr #3
 8000c7a:	011b      	lsls	r3, r3, #4
 8000c7c:	bf18      	it	ne
 8000c7e:	ea5f 1c1c 	movsne.w	ip, ip, lsr #4
 8000c82:	d1e0      	bne.n	8000c46 <__aeabi_fdiv+0x46>
 8000c84:	2afd      	cmp	r2, #253	@ 0xfd
 8000c86:	f63f af50 	bhi.w	8000b2a <__aeabi_fmul+0x92>
 8000c8a:	428b      	cmp	r3, r1
 8000c8c:	eb40 50c2 	adc.w	r0, r0, r2, lsl #23
 8000c90:	bf08      	it	eq
 8000c92:	f020 0001 	biceq.w	r0, r0, #1
 8000c96:	4770      	bx	lr
 8000c98:	f00c 4c00 	and.w	ip, ip, #2147483648	@ 0x80000000
 8000c9c:	ea4c 2050 	orr.w	r0, ip, r0, lsr #9
 8000ca0:	327f      	adds	r2, #127	@ 0x7f
 8000ca2:	bfc2      	ittt	gt
 8000ca4:	f1d2 03ff 	rsbsgt	r3, r2, #255	@ 0xff
 8000ca8:	ea40 50c2 	orrgt.w	r0, r0, r2, lsl #23
 8000cac:	4770      	bxgt	lr
 8000cae:	f440 0000 	orr.w	r0, r0, #8388608	@ 0x800000
 8000cb2:	f04f 0300 	mov.w	r3, #0
 8000cb6:	3a01      	subs	r2, #1
 8000cb8:	e737      	b.n	8000b2a <__aeabi_fmul+0x92>
 8000cba:	f092 0f00 	teq	r2, #0
 8000cbe:	f000 4c00 	and.w	ip, r0, #2147483648	@ 0x80000000
 8000cc2:	bf02      	ittt	eq
 8000cc4:	0040      	lsleq	r0, r0, #1
 8000cc6:	f410 0f00 	tsteq.w	r0, #8388608	@ 0x800000
 8000cca:	3a01      	subeq	r2, #1
 8000ccc:	d0f9      	beq.n	8000cc2 <__aeabi_fdiv+0xc2>
 8000cce:	ea40 000c 	orr.w	r0, r0, ip
 8000cd2:	f093 0f00 	teq	r3, #0
 8000cd6:	f001 4c00 	and.w	ip, r1, #2147483648	@ 0x80000000
 8000cda:	bf02      	ittt	eq
 8000cdc:	0049      	lsleq	r1, r1, #1
 8000cde:	f411 0f00 	tsteq.w	r1, #8388608	@ 0x800000
 8000ce2:	3b01      	subeq	r3, #1
 8000ce4:	d0f9      	beq.n	8000cda <__aeabi_fdiv+0xda>
 8000ce6:	ea41 010c 	orr.w	r1, r1, ip
 8000cea:	e795      	b.n	8000c18 <__aeabi_fdiv+0x18>
 8000cec:	ea0c 53d1 	and.w	r3, ip, r1, lsr #23
 8000cf0:	ea92 0f0c 	teq	r2, ip
 8000cf4:	d108      	bne.n	8000d08 <__aeabi_fdiv+0x108>
 8000cf6:	0242      	lsls	r2, r0, #9
 8000cf8:	f47f af7d 	bne.w	8000bf6 <__aeabi_fmul+0x15e>
 8000cfc:	ea93 0f0c 	teq	r3, ip
 8000d00:	f47f af70 	bne.w	8000be4 <__aeabi_fmul+0x14c>
 8000d04:	4608      	mov	r0, r1
 8000d06:	e776      	b.n	8000bf6 <__aeabi_fmul+0x15e>
 8000d08:	ea93 0f0c 	teq	r3, ip
 8000d0c:	d104      	bne.n	8000d18 <__aeabi_fdiv+0x118>
 8000d0e:	024b      	lsls	r3, r1, #9
 8000d10:	f43f af4c 	beq.w	8000bac <__aeabi_fmul+0x114>
 8000d14:	4608      	mov	r0, r1
 8000d16:	e76e      	b.n	8000bf6 <__aeabi_fmul+0x15e>
 8000d18:	f030 4c00 	bics.w	ip, r0, #2147483648	@ 0x80000000
 8000d1c:	bf18      	it	ne
 8000d1e:	f031 4c00 	bicsne.w	ip, r1, #2147483648	@ 0x80000000
 8000d22:	d1ca      	bne.n	8000cba <__aeabi_fdiv+0xba>
 8000d24:	f030 4200 	bics.w	r2, r0, #2147483648	@ 0x80000000
 8000d28:	f47f af5c 	bne.w	8000be4 <__aeabi_fmul+0x14c>
 8000d2c:	f031 4300 	bics.w	r3, r1, #2147483648	@ 0x80000000
 8000d30:	f47f af3c 	bne.w	8000bac <__aeabi_fmul+0x114>
 8000d34:	e75f      	b.n	8000bf6 <__aeabi_fmul+0x15e>
 8000d36:	bf00      	nop

08000d38 <__gesf2>:
 8000d38:	f04f 3cff 	mov.w	ip, #4294967295
 8000d3c:	e006      	b.n	8000d4c <__cmpsf2+0x4>
 8000d3e:	bf00      	nop

08000d40 <__lesf2>:
 8000d40:	f04f 0c01 	mov.w	ip, #1
 8000d44:	e002      	b.n	8000d4c <__cmpsf2+0x4>
 8000d46:	bf00      	nop

08000d48 <__cmpsf2>:
 8000d48:	f04f 0c01 	mov.w	ip, #1
 8000d4c:	f84d cd04 	str.w	ip, [sp, #-4]!
 8000d50:	ea4f 0240 	mov.w	r2, r0, lsl #1
 8000d54:	ea4f 0341 	mov.w	r3, r1, lsl #1
 8000d58:	ea7f 6c22 	mvns.w	ip, r2, asr #24
 8000d5c:	bf18      	it	ne
 8000d5e:	ea7f 6c23 	mvnsne.w	ip, r3, asr #24
 8000d62:	d011      	beq.n	8000d88 <__cmpsf2+0x40>
 8000d64:	b001      	add	sp, #4
 8000d66:	ea52 0c53 	orrs.w	ip, r2, r3, lsr #1
 8000d6a:	bf18      	it	ne
 8000d6c:	ea90 0f01 	teqne	r0, r1
 8000d70:	bf58      	it	pl
 8000d72:	ebb2 0003 	subspl.w	r0, r2, r3
 8000d76:	bf88      	it	hi
 8000d78:	17c8      	asrhi	r0, r1, #31
 8000d7a:	bf38      	it	cc
 8000d7c:	ea6f 70e1 	mvncc.w	r0, r1, asr #31
 8000d80:	bf18      	it	ne
 8000d82:	f040 0001 	orrne.w	r0, r0, #1
 8000d86:	4770      	bx	lr
 8000d88:	ea7f 6c22 	mvns.w	ip, r2, asr #24
 8000d8c:	d102      	bne.n	8000d94 <__cmpsf2+0x4c>
 8000d8e:	ea5f 2c40 	movs.w	ip, r0, lsl #9
 8000d92:	d105      	bne.n	8000da0 <__cmpsf2+0x58>
 8000d94:	ea7f 6c23 	mvns.w	ip, r3, asr #24
 8000d98:	d1e4      	bne.n	8000d64 <__cmpsf2+0x1c>
 8000d9a:	ea5f 2c41 	movs.w	ip, r1, lsl #9
 8000d9e:	d0e1      	beq.n	8000d64 <__cmpsf2+0x1c>
 8000da0:	f85d 0b04 	ldr.w	r0, [sp], #4
 8000da4:	4770      	bx	lr
 8000da6:	bf00      	nop

08000da8 <__aeabi_cfrcmple>:
 8000da8:	4684      	mov	ip, r0
 8000daa:	4608      	mov	r0, r1
 8000dac:	4661      	mov	r1, ip
 8000dae:	e7ff      	b.n	8000db0 <__aeabi_cfcmpeq>

08000db0 <__aeabi_cfcmpeq>:
 8000db0:	b50f      	push	{r0, r1, r2, r3, lr}
 8000db2:	f7ff ffc9 	bl	8000d48 <__cmpsf2>
 8000db6:	2800      	cmp	r0, #0
 8000db8:	bf48      	it	mi
 8000dba:	f110 0f00 	cmnmi.w	r0, #0
 8000dbe:	bd0f      	pop	{r0, r1, r2, r3, pc}

08000dc0 <__aeabi_fcmpeq>:
 8000dc0:	f84d ed08 	str.w	lr, [sp, #-8]!
 8000dc4:	f7ff fff4 	bl	8000db0 <__aeabi_cfcmpeq>
 8000dc8:	bf0c      	ite	eq
 8000dca:	2001      	moveq	r0, #1
 8000dcc:	2000      	movne	r0, #0
 8000dce:	f85d fb08 	ldr.w	pc, [sp], #8
 8000dd2:	bf00      	nop

08000dd4 <__aeabi_fcmplt>:
 8000dd4:	f84d ed08 	str.w	lr, [sp, #-8]!
 8000dd8:	f7ff ffea 	bl	8000db0 <__aeabi_cfcmpeq>
 8000ddc:	bf34      	ite	cc
 8000dde:	2001      	movcc	r0, #1
 8000de0:	2000      	movcs	r0, #0
 8000de2:	f85d fb08 	ldr.w	pc, [sp], #8
 8000de6:	bf00      	nop

08000de8 <__aeabi_fcmple>:
 8000de8:	f84d ed08 	str.w	lr, [sp, #-8]!
 8000dec:	f7ff ffe0 	bl	8000db0 <__aeabi_cfcmpeq>
 8000df0:	bf94      	ite	ls
 8000df2:	2001      	movls	r0, #1
 8000df4:	2000      	movhi	r0, #0
 8000df6:	f85d fb08 	ldr.w	pc, [sp], #8
 8000dfa:	bf00      	nop

08000dfc <__aeabi_fcmpge>:
 8000dfc:	f84d ed08 	str.w	lr, [sp, #-8]!
 8000e00:	f7ff ffd2 	bl	8000da8 <__aeabi_cfrcmple>
 8000e04:	bf94      	ite	ls
 8000e06:	2001      	movls	r0, #1
 8000e08:	2000      	movhi	r0, #0
 8000e0a:	f85d fb08 	ldr.w	pc, [sp], #8
 8000e0e:	bf00      	nop

08000e10 <__aeabi_fcmpgt>:
 8000e10:	f84d ed08 	str.w	lr, [sp, #-8]!
 8000e14:	f7ff ffc8 	bl	8000da8 <__aeabi_cfrcmple>
 8000e18:	bf34      	ite	cc
 8000e1a:	2001      	movcc	r0, #1
 8000e1c:	2000      	movcs	r0, #0
 8000e1e:	f85d fb08 	ldr.w	pc, [sp], #8
 8000e22:	bf00      	nop

08000e24 <__aeabi_ldivmod>:
 8000e24:	b97b      	cbnz	r3, 8000e46 <__aeabi_ldivmod+0x22>
 8000e26:	b972      	cbnz	r2, 8000e46 <__aeabi_ldivmod+0x22>
 8000e28:	2900      	cmp	r1, #0
 8000e2a:	bfbe      	ittt	lt
 8000e2c:	2000      	movlt	r0, #0
 8000e2e:	f04f 4100 	movlt.w	r1, #2147483648	@ 0x80000000
 8000e32:	e006      	blt.n	8000e42 <__aeabi_ldivmod+0x1e>
 8000e34:	bf08      	it	eq
 8000e36:	2800      	cmpeq	r0, #0
 8000e38:	bf1c      	itt	ne
 8000e3a:	f06f 4100 	mvnne.w	r1, #2147483648	@ 0x80000000
 8000e3e:	f04f 30ff 	movne.w	r0, #4294967295
 8000e42:	f000 b9f5 	b.w	8001230 <__aeabi_idiv0>
 8000e46:	f1ad 0c08 	sub.w	ip, sp, #8
 8000e4a:	e96d ce04 	strd	ip, lr, [sp, #-16]!
 8000e4e:	2900      	cmp	r1, #0
 8000e50:	db09      	blt.n	8000e66 <__aeabi_ldivmod+0x42>
 8000e52:	2b00      	cmp	r3, #0
 8000e54:	db1a      	blt.n	8000e8c <__aeabi_ldivmod+0x68>
 8000e56:	f000 f86b 	bl	8000f30 <__udivmoddi4>
 8000e5a:	f8dd e004 	ldr.w	lr, [sp, #4]
 8000e5e:	e9dd 2302 	ldrd	r2, r3, [sp, #8]
 8000e62:	b004      	add	sp, #16
 8000e64:	4770      	bx	lr
 8000e66:	4240      	negs	r0, r0
 8000e68:	eb61 0141 	sbc.w	r1, r1, r1, lsl #1
 8000e6c:	2b00      	cmp	r3, #0
 8000e6e:	db1b      	blt.n	8000ea8 <__aeabi_ldivmod+0x84>
 8000e70:	f000 f85e 	bl	8000f30 <__udivmoddi4>
 8000e74:	f8dd e004 	ldr.w	lr, [sp, #4]
 8000e78:	e9dd 2302 	ldrd	r2, r3, [sp, #8]
 8000e7c:	b004      	add	sp, #16
 8000e7e:	4240      	negs	r0, r0
 8000e80:	eb61 0141 	sbc.w	r1, r1, r1, lsl #1
 8000e84:	4252      	negs	r2, r2
 8000e86:	eb63 0343 	sbc.w	r3, r3, r3, lsl #1
 8000e8a:	4770      	bx	lr
 8000e8c:	4252      	negs	r2, r2
 8000e8e:	eb63 0343 	sbc.w	r3, r3, r3, lsl #1
 8000e92:	f000 f84d 	bl	8000f30 <__udivmoddi4>
 8000e96:	f8dd e004 	ldr.w	lr, [sp, #4]
 8000e9a:	e9dd 2302 	ldrd	r2, r3, [sp, #8]
 8000e9e:	b004      	add	sp, #16
 8000ea0:	4240      	negs	r0, r0
 8000ea2:	eb61 0141 	sbc.w	r1, r1, r1, lsl #1
 8000ea6:	4770      	bx	lr
 8000ea8:	4252      	negs	r2, r2
 8000eaa:	eb63 0343 	sbc.w	r3, r3, r3, lsl #1
 8000eae:	f000 f83f 	bl	8000f30 <__udivmoddi4>
 8000eb2:	f8dd e004 	ldr.w	lr, [sp, #4]
 8000eb6:	e9dd 2302 	ldrd	r2, r3, [sp, #8]
 8000eba:	b004      	add	sp, #16
 8000ebc:	4252      	negs	r2, r2
 8000ebe:	eb63 0343 	sbc.w	r3, r3, r3, lsl #1
 8000ec2:	4770      	bx	lr

08000ec4 <__aeabi_d2lz>:
 8000ec4:	b538      	push	{r3, r4, r5, lr}
 8000ec6:	2200      	movs	r2, #0
 8000ec8:	2300      	movs	r3, #0
 8000eca:	4604      	mov	r4, r0
 8000ecc:	460d      	mov	r5, r1
 8000ece:	f7ff fc85 	bl	80007dc <__aeabi_dcmplt>
 8000ed2:	b928      	cbnz	r0, 8000ee0 <__aeabi_d2lz+0x1c>
 8000ed4:	4620      	mov	r0, r4
 8000ed6:	4629      	mov	r1, r5
 8000ed8:	e8bd 4038 	ldmia.w	sp!, {r3, r4, r5, lr}
 8000edc:	f000 b80a 	b.w	8000ef4 <__aeabi_d2ulz>
 8000ee0:	4620      	mov	r0, r4
 8000ee2:	f105 4100 	add.w	r1, r5, #2147483648	@ 0x80000000
 8000ee6:	f000 f805 	bl	8000ef4 <__aeabi_d2ulz>
 8000eea:	4240      	negs	r0, r0
 8000eec:	eb61 0141 	sbc.w	r1, r1, r1, lsl #1
 8000ef0:	bd38      	pop	{r3, r4, r5, pc}
 8000ef2:	bf00      	nop

08000ef4 <__aeabi_d2ulz>:
 8000ef4:	b5d0      	push	{r4, r6, r7, lr}
 8000ef6:	2200      	movs	r2, #0
 8000ef8:	4b0b      	ldr	r3, [pc, #44]	@ (8000f28 <__aeabi_d2ulz+0x34>)
 8000efa:	4606      	mov	r6, r0
 8000efc:	460f      	mov	r7, r1
 8000efe:	f7ff f927 	bl	8000150 <__aeabi_dmul>
 8000f02:	f000 f997 	bl	8001234 <__aeabi_d2uiz>
 8000f06:	4604      	mov	r4, r0
 8000f08:	f7ff fb8e 	bl	8000628 <__aeabi_ui2d>
 8000f0c:	2200      	movs	r2, #0
 8000f0e:	4b07      	ldr	r3, [pc, #28]	@ (8000f2c <__aeabi_d2ulz+0x38>)
 8000f10:	f7ff f91e 	bl	8000150 <__aeabi_dmul>
 8000f14:	4602      	mov	r2, r0
 8000f16:	460b      	mov	r3, r1
 8000f18:	4630      	mov	r0, r6
 8000f1a:	4639      	mov	r1, r7
 8000f1c:	f7ff fa46 	bl	80003ac <__aeabi_dsub>
 8000f20:	f000 f988 	bl	8001234 <__aeabi_d2uiz>
 8000f24:	4621      	mov	r1, r4
 8000f26:	bdd0      	pop	{r4, r6, r7, pc}
 8000f28:	3df00000 	.word	0x3df00000
 8000f2c:	41f00000 	.word	0x41f00000

08000f30 <__udivmoddi4>:
 8000f30:	e92d 47f0 	stmdb	sp!, {r4, r5, r6, r7, r8, r9, sl, lr}
 8000f34:	9d08      	ldr	r5, [sp, #32]
 8000f36:	468e      	mov	lr, r1
 8000f38:	4604      	mov	r4, r0
 8000f3a:	4688      	mov	r8, r1
 8000f3c:	2b00      	cmp	r3, #0
 8000f3e:	d14a      	bne.n	8000fd6 <__udivmoddi4+0xa6>
 8000f40:	428a      	cmp	r2, r1
 8000f42:	4617      	mov	r7, r2
 8000f44:	d962      	bls.n	800100c <__udivmoddi4+0xdc>
 8000f46:	fab2 f682 	clz	r6, r2
 8000f4a:	b14e      	cbz	r6, 8000f60 <__udivmoddi4+0x30>
 8000f4c:	f1c6 0320 	rsb	r3, r6, #32
 8000f50:	fa01 f806 	lsl.w	r8, r1, r6
 8000f54:	fa20 f303 	lsr.w	r3, r0, r3
 8000f58:	40b7      	lsls	r7, r6
 8000f5a:	ea43 0808 	orr.w	r8, r3, r8
 8000f5e:	40b4      	lsls	r4, r6
 8000f60:	ea4f 4e17 	mov.w	lr, r7, lsr #16
 8000f64:	fbb8 f1fe 	udiv	r1, r8, lr
 8000f68:	fa1f fc87 	uxth.w	ip, r7
 8000f6c:	fb0e 8811 	mls	r8, lr, r1, r8
 8000f70:	fb01 f20c 	mul.w	r2, r1, ip
 8000f74:	0c23      	lsrs	r3, r4, #16
 8000f76:	ea43 4308 	orr.w	r3, r3, r8, lsl #16
 8000f7a:	429a      	cmp	r2, r3
 8000f7c:	d909      	bls.n	8000f92 <__udivmoddi4+0x62>
 8000f7e:	18fb      	adds	r3, r7, r3
 8000f80:	f101 30ff 	add.w	r0, r1, #4294967295
 8000f84:	f080 80eb 	bcs.w	800115e <__udivmoddi4+0x22e>
 8000f88:	429a      	cmp	r2, r3
 8000f8a:	f240 80e8 	bls.w	800115e <__udivmoddi4+0x22e>
 8000f8e:	3902      	subs	r1, #2
 8000f90:	443b      	add	r3, r7
 8000f92:	1a9a      	subs	r2, r3, r2
 8000f94:	fbb2 f0fe 	udiv	r0, r2, lr
 8000f98:	fb0e 2210 	mls	r2, lr, r0, r2
 8000f9c:	fb00 fc0c 	mul.w	ip, r0, ip
 8000fa0:	b2a3      	uxth	r3, r4
 8000fa2:	ea43 4302 	orr.w	r3, r3, r2, lsl #16
 8000fa6:	459c      	cmp	ip, r3
 8000fa8:	d909      	bls.n	8000fbe <__udivmoddi4+0x8e>
 8000faa:	18fb      	adds	r3, r7, r3
 8000fac:	f100 32ff 	add.w	r2, r0, #4294967295
 8000fb0:	f080 80d7 	bcs.w	8001162 <__udivmoddi4+0x232>
 8000fb4:	459c      	cmp	ip, r3
 8000fb6:	f240 80d4 	bls.w	8001162 <__udivmoddi4+0x232>
 8000fba:	443b      	add	r3, r7
 8000fbc:	3802      	subs	r0, #2
 8000fbe:	ea40 4001 	orr.w	r0, r0, r1, lsl #16
 8000fc2:	2100      	movs	r1, #0
 8000fc4:	eba3 030c 	sub.w	r3, r3, ip
 8000fc8:	b11d      	cbz	r5, 8000fd2 <__udivmoddi4+0xa2>
 8000fca:	2200      	movs	r2, #0
 8000fcc:	40f3      	lsrs	r3, r6
 8000fce:	e9c5 3200 	strd	r3, r2, [r5]
 8000fd2:	e8bd 87f0 	ldmia.w	sp!, {r4, r5, r6, r7, r8, r9, sl, pc}
 8000fd6:	428b      	cmp	r3, r1
 8000fd8:	d905      	bls.n	8000fe6 <__udivmoddi4+0xb6>
 8000fda:	b10d      	cbz	r5, 8000fe0 <__udivmoddi4+0xb0>
 8000fdc:	e9c5 0100 	strd	r0, r1, [r5]
 8000fe0:	2100      	movs	r1, #0
 8000fe2:	4608      	mov	r0, r1
 8000fe4:	e7f5      	b.n	8000fd2 <__udivmoddi4+0xa2>
 8000fe6:	fab3 f183 	clz	r1, r3
 8000fea:	2900      	cmp	r1, #0
 8000fec:	d146      	bne.n	800107c <__udivmoddi4+0x14c>
 8000fee:	4573      	cmp	r3, lr
 8000ff0:	d302      	bcc.n	8000ff8 <__udivmoddi4+0xc8>
 8000ff2:	4282      	cmp	r2, r0
 8000ff4:	f200 8108 	bhi.w	8001208 <__udivmoddi4+0x2d8>
 8000ff8:	1a84      	subs	r4, r0, r2
 8000ffa:	eb6e 0203 	sbc.w	r2, lr, r3
 8000ffe:	2001      	movs	r0, #1
 8001000:	4690      	mov	r8, r2
 8001002:	2d00      	cmp	r5, #0
 8001004:	d0e5      	beq.n	8000fd2 <__udivmoddi4+0xa2>
 8001006:	e9c5 4800 	strd	r4, r8, [r5]
 800100a:	e7e2      	b.n	8000fd2 <__udivmoddi4+0xa2>
 800100c:	2a00      	cmp	r2, #0
 800100e:	f000 8091 	beq.w	8001134 <__udivmoddi4+0x204>
 8001012:	fab2 f682 	clz	r6, r2
 8001016:	2e00      	cmp	r6, #0
 8001018:	f040 80a5 	bne.w	8001166 <__udivmoddi4+0x236>
 800101c:	1a8a      	subs	r2, r1, r2
 800101e:	2101      	movs	r1, #1
 8001020:	0c03      	lsrs	r3, r0, #16
 8001022:	ea4f 4e17 	mov.w	lr, r7, lsr #16
 8001026:	b280      	uxth	r0, r0
 8001028:	b2bc      	uxth	r4, r7
 800102a:	fbb2 fcfe 	udiv	ip, r2, lr
 800102e:	fb0e 221c 	mls	r2, lr, ip, r2
 8001032:	ea43 4302 	orr.w	r3, r3, r2, lsl #16
 8001036:	fb04 f20c 	mul.w	r2, r4, ip
 800103a:	429a      	cmp	r2, r3
 800103c:	d907      	bls.n	800104e <__udivmoddi4+0x11e>
 800103e:	18fb      	adds	r3, r7, r3
 8001040:	f10c 38ff 	add.w	r8, ip, #4294967295
 8001044:	d202      	bcs.n	800104c <__udivmoddi4+0x11c>
 8001046:	429a      	cmp	r2, r3
 8001048:	f200 80e3 	bhi.w	8001212 <__udivmoddi4+0x2e2>
 800104c:	46c4      	mov	ip, r8
 800104e:	1a9b      	subs	r3, r3, r2
 8001050:	fbb3 f2fe 	udiv	r2, r3, lr
 8001054:	fb0e 3312 	mls	r3, lr, r2, r3
 8001058:	fb02 f404 	mul.w	r4, r2, r4
 800105c:	ea40 4303 	orr.w	r3, r0, r3, lsl #16
 8001060:	429c      	cmp	r4, r3
 8001062:	d907      	bls.n	8001074 <__udivmoddi4+0x144>
 8001064:	18fb      	adds	r3, r7, r3
 8001066:	f102 30ff 	add.w	r0, r2, #4294967295
 800106a:	d202      	bcs.n	8001072 <__udivmoddi4+0x142>
 800106c:	429c      	cmp	r4, r3
 800106e:	f200 80cd 	bhi.w	800120c <__udivmoddi4+0x2dc>
 8001072:	4602      	mov	r2, r0
 8001074:	1b1b      	subs	r3, r3, r4
 8001076:	ea42 400c 	orr.w	r0, r2, ip, lsl #16
 800107a:	e7a5      	b.n	8000fc8 <__udivmoddi4+0x98>
 800107c:	f1c1 0620 	rsb	r6, r1, #32
 8001080:	408b      	lsls	r3, r1
 8001082:	fa22 f706 	lsr.w	r7, r2, r6
 8001086:	431f      	orrs	r7, r3
 8001088:	fa2e fa06 	lsr.w	sl, lr, r6
 800108c:	ea4f 4917 	mov.w	r9, r7, lsr #16
 8001090:	fbba f8f9 	udiv	r8, sl, r9
 8001094:	fa0e fe01 	lsl.w	lr, lr, r1
 8001098:	fa20 f306 	lsr.w	r3, r0, r6
 800109c:	fb09 aa18 	mls	sl, r9, r8, sl
 80010a0:	fa1f fc87 	uxth.w	ip, r7
 80010a4:	ea43 030e 	orr.w	r3, r3, lr
 80010a8:	fa00 fe01 	lsl.w	lr, r0, r1
 80010ac:	fb08 f00c 	mul.w	r0, r8, ip
 80010b0:	0c1c      	lsrs	r4, r3, #16
 80010b2:	ea44 440a 	orr.w	r4, r4, sl, lsl #16
 80010b6:	42a0      	cmp	r0, r4
 80010b8:	fa02 f201 	lsl.w	r2, r2, r1
 80010bc:	d90a      	bls.n	80010d4 <__udivmoddi4+0x1a4>
 80010be:	193c      	adds	r4, r7, r4
 80010c0:	f108 3aff 	add.w	sl, r8, #4294967295
 80010c4:	f080 809e 	bcs.w	8001204 <__udivmoddi4+0x2d4>
 80010c8:	42a0      	cmp	r0, r4
 80010ca:	f240 809b 	bls.w	8001204 <__udivmoddi4+0x2d4>
 80010ce:	f1a8 0802 	sub.w	r8, r8, #2
 80010d2:	443c      	add	r4, r7
 80010d4:	1a24      	subs	r4, r4, r0
 80010d6:	b298      	uxth	r0, r3
 80010d8:	fbb4 f3f9 	udiv	r3, r4, r9
 80010dc:	fb09 4413 	mls	r4, r9, r3, r4
 80010e0:	fb03 fc0c 	mul.w	ip, r3, ip
 80010e4:	ea40 4404 	orr.w	r4, r0, r4, lsl #16
 80010e8:	45a4      	cmp	ip, r4
 80010ea:	d909      	bls.n	8001100 <__udivmoddi4+0x1d0>
 80010ec:	193c      	adds	r4, r7, r4
 80010ee:	f103 30ff 	add.w	r0, r3, #4294967295
 80010f2:	f080 8085 	bcs.w	8001200 <__udivmoddi4+0x2d0>
 80010f6:	45a4      	cmp	ip, r4
 80010f8:	f240 8082 	bls.w	8001200 <__udivmoddi4+0x2d0>
 80010fc:	3b02      	subs	r3, #2
 80010fe:	443c      	add	r4, r7
 8001100:	ea43 4008 	orr.w	r0, r3, r8, lsl #16
 8001104:	eba4 040c 	sub.w	r4, r4, ip
 8001108:	fba0 8c02 	umull	r8, ip, r0, r2
 800110c:	4564      	cmp	r4, ip
 800110e:	4643      	mov	r3, r8
 8001110:	46e1      	mov	r9, ip
 8001112:	d364      	bcc.n	80011de <__udivmoddi4+0x2ae>
 8001114:	d061      	beq.n	80011da <__udivmoddi4+0x2aa>
 8001116:	b15d      	cbz	r5, 8001130 <__udivmoddi4+0x200>
 8001118:	ebbe 0203 	subs.w	r2, lr, r3
 800111c:	eb64 0409 	sbc.w	r4, r4, r9
 8001120:	fa04 f606 	lsl.w	r6, r4, r6
 8001124:	fa22 f301 	lsr.w	r3, r2, r1
 8001128:	431e      	orrs	r6, r3
 800112a:	40cc      	lsrs	r4, r1
 800112c:	e9c5 6400 	strd	r6, r4, [r5]
 8001130:	2100      	movs	r1, #0
 8001132:	e74e      	b.n	8000fd2 <__udivmoddi4+0xa2>
 8001134:	fbb1 fcf2 	udiv	ip, r1, r2
 8001138:	0c01      	lsrs	r1, r0, #16
 800113a:	ea41 410e 	orr.w	r1, r1, lr, lsl #16
 800113e:	b280      	uxth	r0, r0
 8001140:	ea40 4201 	orr.w	r2, r0, r1, lsl #16
 8001144:	463b      	mov	r3, r7
 8001146:	fbb1 f1f7 	udiv	r1, r1, r7
 800114a:	4638      	mov	r0, r7
 800114c:	463c      	mov	r4, r7
 800114e:	46b8      	mov	r8, r7
 8001150:	46be      	mov	lr, r7
 8001152:	2620      	movs	r6, #32
 8001154:	eba2 0208 	sub.w	r2, r2, r8
 8001158:	ea41 410c 	orr.w	r1, r1, ip, lsl #16
 800115c:	e765      	b.n	800102a <__udivmoddi4+0xfa>
 800115e:	4601      	mov	r1, r0
 8001160:	e717      	b.n	8000f92 <__udivmoddi4+0x62>
 8001162:	4610      	mov	r0, r2
 8001164:	e72b      	b.n	8000fbe <__udivmoddi4+0x8e>
 8001166:	f1c6 0120 	rsb	r1, r6, #32
 800116a:	fa2e fc01 	lsr.w	ip, lr, r1
 800116e:	40b7      	lsls	r7, r6
 8001170:	fa0e fe06 	lsl.w	lr, lr, r6
 8001174:	fa20 f101 	lsr.w	r1, r0, r1
 8001178:	ea41 010e 	orr.w	r1, r1, lr
 800117c:	ea4f 4e17 	mov.w	lr, r7, lsr #16
 8001180:	fbbc f8fe 	udiv	r8, ip, lr
 8001184:	b2bc      	uxth	r4, r7
 8001186:	fb0e cc18 	mls	ip, lr, r8, ip
 800118a:	fb08 f904 	mul.w	r9, r8, r4
 800118e:	0c0a      	lsrs	r2, r1, #16
 8001190:	ea42 420c 	orr.w	r2, r2, ip, lsl #16
 8001194:	40b0      	lsls	r0, r6
 8001196:	4591      	cmp	r9, r2
 8001198:	ea4f 4310 	mov.w	r3, r0, lsr #16
 800119c:	b280      	uxth	r0, r0
 800119e:	d93e      	bls.n	800121e <__udivmoddi4+0x2ee>
 80011a0:	18ba      	adds	r2, r7, r2
 80011a2:	f108 3cff 	add.w	ip, r8, #4294967295
 80011a6:	d201      	bcs.n	80011ac <__udivmoddi4+0x27c>
 80011a8:	4591      	cmp	r9, r2
 80011aa:	d81f      	bhi.n	80011ec <__udivmoddi4+0x2bc>
 80011ac:	eba2 0209 	sub.w	r2, r2, r9
 80011b0:	fbb2 f9fe 	udiv	r9, r2, lr
 80011b4:	fb09 f804 	mul.w	r8, r9, r4
 80011b8:	fb0e 2a19 	mls	sl, lr, r9, r2
 80011bc:	b28a      	uxth	r2, r1
 80011be:	ea42 420a 	orr.w	r2, r2, sl, lsl #16
 80011c2:	4542      	cmp	r2, r8
 80011c4:	d229      	bcs.n	800121a <__udivmoddi4+0x2ea>
 80011c6:	18ba      	adds	r2, r7, r2
 80011c8:	f109 31ff 	add.w	r1, r9, #4294967295
 80011cc:	d2c2      	bcs.n	8001154 <__udivmoddi4+0x224>
 80011ce:	4542      	cmp	r2, r8
 80011d0:	d2c0      	bcs.n	8001154 <__udivmoddi4+0x224>
 80011d2:	f1a9 0102 	sub.w	r1, r9, #2
 80011d6:	443a      	add	r2, r7
 80011d8:	e7bc      	b.n	8001154 <__udivmoddi4+0x224>
 80011da:	45c6      	cmp	lr, r8
 80011dc:	d29b      	bcs.n	8001116 <__udivmoddi4+0x1e6>
 80011de:	ebb8 0302 	subs.w	r3, r8, r2
 80011e2:	eb6c 0c07 	sbc.w	ip, ip, r7
 80011e6:	3801      	subs	r0, #1
 80011e8:	46e1      	mov	r9, ip
 80011ea:	e794      	b.n	8001116 <__udivmoddi4+0x1e6>
 80011ec:	eba7 0909 	sub.w	r9, r7, r9
 80011f0:	444a      	add	r2, r9
 80011f2:	fbb2 f9fe 	udiv	r9, r2, lr
 80011f6:	f1a8 0c02 	sub.w	ip, r8, #2
 80011fa:	fb09 f804 	mul.w	r8, r9, r4
 80011fe:	e7db      	b.n	80011b8 <__udivmoddi4+0x288>
 8001200:	4603      	mov	r3, r0
 8001202:	e77d      	b.n	8001100 <__udivmoddi4+0x1d0>
 8001204:	46d0      	mov	r8, sl
 8001206:	e765      	b.n	80010d4 <__udivmoddi4+0x1a4>
 8001208:	4608      	mov	r0, r1
 800120a:	e6fa      	b.n	8001002 <__udivmoddi4+0xd2>
 800120c:	443b      	add	r3, r7
 800120e:	3a02      	subs	r2, #2
 8001210:	e730      	b.n	8001074 <__udivmoddi4+0x144>
 8001212:	f1ac 0c02 	sub.w	ip, ip, #2
 8001216:	443b      	add	r3, r7
 8001218:	e719      	b.n	800104e <__udivmoddi4+0x11e>
 800121a:	4649      	mov	r1, r9
 800121c:	e79a      	b.n	8001154 <__udivmoddi4+0x224>
 800121e:	eba2 0209 	sub.w	r2, r2, r9
 8001222:	fbb2 f9fe 	udiv	r9, r2, lr
 8001226:	46c4      	mov	ip, r8
 8001228:	fb09 f804 	mul.w	r8, r9, r4
 800122c:	e7c4      	b.n	80011b8 <__udivmoddi4+0x288>
 800122e:	bf00      	nop

08001230 <__aeabi_idiv0>:
 8001230:	4770      	bx	lr
 8001232:	bf00      	nop

08001234 <__aeabi_d2uiz>:
 8001234:	004a      	lsls	r2, r1, #1
 8001236:	d211      	bcs.n	800125c <__aeabi_d2uiz+0x28>
 8001238:	f512 1200 	adds.w	r2, r2, #2097152	@ 0x200000
 800123c:	d211      	bcs.n	8001262 <__aeabi_d2uiz+0x2e>
 800123e:	d50d      	bpl.n	800125c <__aeabi_d2uiz+0x28>
 8001240:	f46f 7378 	mvn.w	r3, #992	@ 0x3e0
 8001244:	ebb3 5262 	subs.w	r2, r3, r2, asr #21
 8001248:	d40e      	bmi.n	8001268 <__aeabi_d2uiz+0x34>
 800124a:	ea4f 23c1 	mov.w	r3, r1, lsl #11
 800124e:	f043 4300 	orr.w	r3, r3, #2147483648	@ 0x80000000
 8001252:	ea43 5350 	orr.w	r3, r3, r0, lsr #21
 8001256:	fa23 f002 	lsr.w	r0, r3, r2
 800125a:	4770      	bx	lr
 800125c:	f04f 0000 	mov.w	r0, #0
 8001260:	4770      	bx	lr
 8001262:	ea50 3001 	orrs.w	r0, r0, r1, lsl #12
 8001266:	d102      	bne.n	800126e <__aeabi_d2uiz+0x3a>
 8001268:	f04f 30ff 	mov.w	r0, #4294967295
 800126c:	4770      	bx	lr
 800126e:	f04f 0000 	mov.w	r0, #0
 8001272:	4770      	bx	lr

08001274 <Blower_Relay_Pins_Init>:

#define PB12_LOW_SPEED_BLOWER    12
#define PB13_MEDIUM_SPEED_BLOWER 13
#define PB14_HIGH_SPEED_BLOWER   14

void Blower_Relay_Pins_Init(){
 8001274:	b480      	push	{r7}
 8001276:	af00      	add	r7, sp, #0
    RCC->APB2ENR |= RCC_APB2ENR_IOPBEN;
 8001278:	4b0f      	ldr	r3, [pc, #60]	@ (80012b8 <Blower_Relay_Pins_Init+0x44>)
 800127a:	699b      	ldr	r3, [r3, #24]
 800127c:	4a0e      	ldr	r2, [pc, #56]	@ (80012b8 <Blower_Relay_Pins_Init+0x44>)
 800127e:	f043 0308 	orr.w	r3, r3, #8
 8001282:	6193      	str	r3, [r2, #24]
    GPIOB->CRH&=~((0xF<<16)|(0XF<<20)|(0XF<<24));
 8001284:	4b0d      	ldr	r3, [pc, #52]	@ (80012bc <Blower_Relay_Pins_Init+0x48>)
 8001286:	685b      	ldr	r3, [r3, #4]
 8001288:	4a0c      	ldr	r2, [pc, #48]	@ (80012bc <Blower_Relay_Pins_Init+0x48>)
 800128a:	f023 637f 	bic.w	r3, r3, #267386880	@ 0xff00000
 800128e:	f423 2370 	bic.w	r3, r3, #983040	@ 0xf0000
 8001292:	6053      	str	r3, [r2, #4]
    GPIOB->CRH|=((0x3<<16)|(0X3<<20)|(0X3<<24));
 8001294:	4b09      	ldr	r3, [pc, #36]	@ (80012bc <Blower_Relay_Pins_Init+0x48>)
 8001296:	685b      	ldr	r3, [r3, #4]
 8001298:	4a08      	ldr	r2, [pc, #32]	@ (80012bc <Blower_Relay_Pins_Init+0x48>)
 800129a:	f043 734c 	orr.w	r3, r3, #53477376	@ 0x3300000
 800129e:	f443 3340 	orr.w	r3, r3, #196608	@ 0x30000
 80012a2:	6053      	str	r3, [r2, #4]
    GPIOB->ODR|=((1<<PB12_LOW_SPEED_BLOWER)|(1<<PB13_MEDIUM_SPEED_BLOWER)|(1<<PB14_HIGH_SPEED_BLOWER));
 80012a4:	4b05      	ldr	r3, [pc, #20]	@ (80012bc <Blower_Relay_Pins_Init+0x48>)
 80012a6:	68db      	ldr	r3, [r3, #12]
 80012a8:	4a04      	ldr	r2, [pc, #16]	@ (80012bc <Blower_Relay_Pins_Init+0x48>)
 80012aa:	f443 43e0 	orr.w	r3, r3, #28672	@ 0x7000
 80012ae:	60d3      	str	r3, [r2, #12]
}
 80012b0:	bf00      	nop
 80012b2:	46bd      	mov	sp, r7
 80012b4:	bc80      	pop	{r7}
 80012b6:	4770      	bx	lr
 80012b8:	40021000 	.word	0x40021000
 80012bc:	40010c00 	.word	0x40010c00

080012c0 <Switch_Pins_int>:
extern uint32_t milli_sec_tick;
uint32_t LastDebounceTime = 0;  // The Last Time The Output Pin Was Toggled
uint32_t DebounceDelay = 50;    // The Ddebounce Time; increase it if the output still flickers
switch_state_t BtnState=SW_STATE_NEUTRAL;               // The Current Reading From The Input Pin
switch_state_t LastBtnState = SW_STATE_NEUTRAL;       // The previous reading from The Input Pin
void Switch_Pins_int(){
 80012c0:	b480      	push	{r7}
 80012c2:	af00      	add	r7, sp, #0
    RCC->APB2ENR |= RCC_APB2ENR_IOPBEN;
 80012c4:	4b16      	ldr	r3, [pc, #88]	@ (8001320 <Switch_Pins_int+0x60>)
 80012c6:	699b      	ldr	r3, [r3, #24]
 80012c8:	4a15      	ldr	r2, [pc, #84]	@ (8001320 <Switch_Pins_int+0x60>)
 80012ca:	f043 0308 	orr.w	r3, r3, #8
 80012ce:	6193      	str	r3, [r2, #24]
    GPIOB->CRL&=~(0xf<<28);//PB7 as input//FORWARD
 80012d0:	4b14      	ldr	r3, [pc, #80]	@ (8001324 <Switch_Pins_int+0x64>)
 80012d2:	681b      	ldr	r3, [r3, #0]
 80012d4:	4a13      	ldr	r2, [pc, #76]	@ (8001324 <Switch_Pins_int+0x64>)
 80012d6:	f023 4370 	bic.w	r3, r3, #4026531840	@ 0xf0000000
 80012da:	6013      	str	r3, [r2, #0]
    GPIOB->CRL|=(0b10<<30);
 80012dc:	4b11      	ldr	r3, [pc, #68]	@ (8001324 <Switch_Pins_int+0x64>)
 80012de:	681b      	ldr	r3, [r3, #0]
 80012e0:	4a10      	ldr	r2, [pc, #64]	@ (8001324 <Switch_Pins_int+0x64>)
 80012e2:	f043 4300 	orr.w	r3, r3, #2147483648	@ 0x80000000
 80012e6:	6013      	str	r3, [r2, #0]
    GPIOB->ODR|=(1<<7);
 80012e8:	4b0e      	ldr	r3, [pc, #56]	@ (8001324 <Switch_Pins_int+0x64>)
 80012ea:	68db      	ldr	r3, [r3, #12]
 80012ec:	4a0d      	ldr	r2, [pc, #52]	@ (8001324 <Switch_Pins_int+0x64>)
 80012ee:	f043 0380 	orr.w	r3, r3, #128	@ 0x80
 80012f2:	60d3      	str	r3, [r2, #12]
    GPIOB->CRL&=~(0XF<<24);// PB6 REVERSE
 80012f4:	4b0b      	ldr	r3, [pc, #44]	@ (8001324 <Switch_Pins_int+0x64>)
 80012f6:	681b      	ldr	r3, [r3, #0]
 80012f8:	4a0a      	ldr	r2, [pc, #40]	@ (8001324 <Switch_Pins_int+0x64>)
 80012fa:	f023 6370 	bic.w	r3, r3, #251658240	@ 0xf000000
 80012fe:	6013      	str	r3, [r2, #0]
    GPIOB->CRL|=(0b10<<26);
 8001300:	4b08      	ldr	r3, [pc, #32]	@ (8001324 <Switch_Pins_int+0x64>)
 8001302:	681b      	ldr	r3, [r3, #0]
 8001304:	4a07      	ldr	r2, [pc, #28]	@ (8001324 <Switch_Pins_int+0x64>)
 8001306:	f043 6300 	orr.w	r3, r3, #134217728	@ 0x8000000
 800130a:	6013      	str	r3, [r2, #0]
    GPIOB->ODR|=(1<<6);
 800130c:	4b05      	ldr	r3, [pc, #20]	@ (8001324 <Switch_Pins_int+0x64>)
 800130e:	68db      	ldr	r3, [r3, #12]
 8001310:	4a04      	ldr	r2, [pc, #16]	@ (8001324 <Switch_Pins_int+0x64>)
 8001312:	f043 0340 	orr.w	r3, r3, #64	@ 0x40
 8001316:	60d3      	str	r3, [r2, #12]
}
 8001318:	bf00      	nop
 800131a:	46bd      	mov	sp, r7
 800131c:	bc80      	pop	{r7}
 800131e:	4770      	bx	lr
 8001320:	40021000 	.word	0x40021000
 8001324:	40010c00 	.word	0x40010c00

08001328 <read_switch_raw>:
switch_state_t read_switch_raw(void)
{
 8001328:	b480      	push	{r7}
 800132a:	b083      	sub	sp, #12
 800132c:	af00      	add	r7, sp, #0
    uint8_t fwd =!(GPIOB->IDR>>7&1);
 800132e:	4b19      	ldr	r3, [pc, #100]	@ (8001394 <read_switch_raw+0x6c>)
 8001330:	689b      	ldr	r3, [r3, #8]
 8001332:	09db      	lsrs	r3, r3, #7
 8001334:	f003 0301 	and.w	r3, r3, #1
 8001338:	2b00      	cmp	r3, #0
 800133a:	bf0c      	ite	eq
 800133c:	2301      	moveq	r3, #1
 800133e:	2300      	movne	r3, #0
 8001340:	b2db      	uxtb	r3, r3
 8001342:	71fb      	strb	r3, [r7, #7]
    uint8_t rev =!(GPIOB->IDR>>6&1);
 8001344:	4b13      	ldr	r3, [pc, #76]	@ (8001394 <read_switch_raw+0x6c>)
 8001346:	689b      	ldr	r3, [r3, #8]
 8001348:	099b      	lsrs	r3, r3, #6
 800134a:	f003 0301 	and.w	r3, r3, #1
 800134e:	2b00      	cmp	r3, #0
 8001350:	bf0c      	ite	eq
 8001352:	2301      	moveq	r3, #1
 8001354:	2300      	movne	r3, #0
 8001356:	b2db      	uxtb	r3, r3
 8001358:	71bb      	strb	r3, [r7, #6]

    if (fwd && !rev) return SW_STATE_FORWARD;
 800135a:	79fb      	ldrb	r3, [r7, #7]
 800135c:	2b00      	cmp	r3, #0
 800135e:	d004      	beq.n	800136a <read_switch_raw+0x42>
 8001360:	79bb      	ldrb	r3, [r7, #6]
 8001362:	2b00      	cmp	r3, #0
 8001364:	d101      	bne.n	800136a <read_switch_raw+0x42>
 8001366:	2301      	movs	r3, #1
 8001368:	e00f      	b.n	800138a <read_switch_raw+0x62>
    if (!fwd && rev) return SW_STATE_REVERSE;
 800136a:	79fb      	ldrb	r3, [r7, #7]
 800136c:	2b00      	cmp	r3, #0
 800136e:	d104      	bne.n	800137a <read_switch_raw+0x52>
 8001370:	79bb      	ldrb	r3, [r7, #6]
 8001372:	2b00      	cmp	r3, #0
 8001374:	d001      	beq.n	800137a <read_switch_raw+0x52>
 8001376:	2302      	movs	r3, #2
 8001378:	e007      	b.n	800138a <read_switch_raw+0x62>
    if (!fwd && !rev) return SW_STATE_NEUTRAL;
 800137a:	79fb      	ldrb	r3, [r7, #7]
 800137c:	2b00      	cmp	r3, #0
 800137e:	d104      	bne.n	800138a <read_switch_raw+0x62>
 8001380:	79bb      	ldrb	r3, [r7, #6]
 8001382:	2b00      	cmp	r3, #0
 8001384:	d101      	bne.n	800138a <read_switch_raw+0x62>
 8001386:	2300      	movs	r3, #0
 8001388:	e7ff      	b.n	800138a <read_switch_raw+0x62>
}
 800138a:	4618      	mov	r0, r3
 800138c:	370c      	adds	r7, #12
 800138e:	46bd      	mov	sp, r7
 8001390:	bc80      	pop	{r7}
 8001392:	4770      	bx	lr
 8001394:	40010c00 	.word	0x40010c00

08001398 <Switch_update>:
// Debounce state machine (call periodically from main loop)
switch_state_t Switch_update(void)
{
 8001398:	b580      	push	{r7, lr}
 800139a:	b082      	sub	sp, #8
 800139c:	af00      	add	r7, sp, #0
    uint8_t TempBtnReading;
    TempBtnReading =read_switch_raw();// R_BIT(GPIOC->IDR,13); // read the state of the switch into a local variable:
 800139e:	f7ff ffc3 	bl	8001328 <read_switch_raw>
 80013a2:	4603      	mov	r3, r0
 80013a4:	71fb      	strb	r3, [r7, #7]
    if(TempBtnReading != LastBtnState) // If the switch changed, due to noise or pressing:
 80013a6:	4b11      	ldr	r3, [pc, #68]	@ (80013ec <Switch_update+0x54>)
 80013a8:	781b      	ldrb	r3, [r3, #0]
 80013aa:	79fa      	ldrb	r2, [r7, #7]
 80013ac:	429a      	cmp	r2, r3
 80013ae:	d003      	beq.n	80013b8 <Switch_update+0x20>
    {
        LastDebounceTime = milli_sec_tick; // reset the debouncing timer
 80013b0:	4b0f      	ldr	r3, [pc, #60]	@ (80013f0 <Switch_update+0x58>)
 80013b2:	681b      	ldr	r3, [r3, #0]
 80013b4:	4a0f      	ldr	r2, [pc, #60]	@ (80013f4 <Switch_update+0x5c>)
 80013b6:	6013      	str	r3, [r2, #0]
    }
    if((milli_sec_tick - LastDebounceTime) > DebounceDelay)
 80013b8:	4b0d      	ldr	r3, [pc, #52]	@ (80013f0 <Switch_update+0x58>)
 80013ba:	681a      	ldr	r2, [r3, #0]
 80013bc:	4b0d      	ldr	r3, [pc, #52]	@ (80013f4 <Switch_update+0x5c>)
 80013be:	681b      	ldr	r3, [r3, #0]
 80013c0:	1ad2      	subs	r2, r2, r3
 80013c2:	4b0d      	ldr	r3, [pc, #52]	@ (80013f8 <Switch_update+0x60>)
 80013c4:	681b      	ldr	r3, [r3, #0]
 80013c6:	429a      	cmp	r2, r3
 80013c8:	d907      	bls.n	80013da <Switch_update+0x42>
    {
        if(TempBtnReading != BtnState)
 80013ca:	4b0c      	ldr	r3, [pc, #48]	@ (80013fc <Switch_update+0x64>)
 80013cc:	781b      	ldrb	r3, [r3, #0]
 80013ce:	79fa      	ldrb	r2, [r7, #7]
 80013d0:	429a      	cmp	r2, r3
 80013d2:	d002      	beq.n	80013da <Switch_update+0x42>
        {
            BtnState = TempBtnReading;
 80013d4:	4a09      	ldr	r2, [pc, #36]	@ (80013fc <Switch_update+0x64>)
 80013d6:	79fb      	ldrb	r3, [r7, #7]
 80013d8:	7013      	strb	r3, [r2, #0]
        }
    }
    LastBtnState = TempBtnReading;
 80013da:	4a04      	ldr	r2, [pc, #16]	@ (80013ec <Switch_update+0x54>)
 80013dc:	79fb      	ldrb	r3, [r7, #7]
 80013de:	7013      	strb	r3, [r2, #0]
    return BtnState;
 80013e0:	4b06      	ldr	r3, [pc, #24]	@ (80013fc <Switch_update+0x64>)
 80013e2:	781b      	ldrb	r3, [r3, #0]
}
 80013e4:	4618      	mov	r0, r3
 80013e6:	3708      	adds	r7, #8
 80013e8:	46bd      	mov	sp, r7
 80013ea:	bd80      	pop	{r7, pc}
 80013ec:	200000a1 	.word	0x200000a1
 80013f0:	200003d8 	.word	0x200003d8
 80013f4:	2000009c 	.word	0x2000009c
 80013f8:	20000000 	.word	0x20000000
 80013fc:	200000a0 	.word	0x200000a0

08001400 <MX_I2C1_Init>:
 */

#include"extern_file_declarations.h"
uint8_t I2C_RX_FLAG=0,data[2];
 void MX_I2C1_Init(void)
{
 8001400:	b580      	push	{r7, lr}
 8001402:	af00      	add	r7, sp, #0
  /* USER CODE BEGIN I2C1_Init 0 */
  /* USER CODE END I2C1_Init 0 */

  /* USER CODE BEGIN I2C1_Init 1 */
  /* USER CODE END I2C1_Init 1 */
  hi2c1.Instance = I2C1;
 8001404:	4b15      	ldr	r3, [pc, #84]	@ (800145c <MX_I2C1_Init+0x5c>)
 8001406:	4a16      	ldr	r2, [pc, #88]	@ (8001460 <MX_I2C1_Init+0x60>)
 8001408:	601a      	str	r2, [r3, #0]
  hi2c1.Init.ClockSpeed = 400000;
 800140a:	4b14      	ldr	r3, [pc, #80]	@ (800145c <MX_I2C1_Init+0x5c>)
 800140c:	4a15      	ldr	r2, [pc, #84]	@ (8001464 <MX_I2C1_Init+0x64>)
 800140e:	605a      	str	r2, [r3, #4]
  hi2c1.Init.DutyCycle = I2C_DUTYCYCLE_2;
 8001410:	4b12      	ldr	r3, [pc, #72]	@ (800145c <MX_I2C1_Init+0x5c>)
 8001412:	2200      	movs	r2, #0
 8001414:	609a      	str	r2, [r3, #8]
  hi2c1.Init.OwnAddress1 = 170;
 8001416:	4b11      	ldr	r3, [pc, #68]	@ (800145c <MX_I2C1_Init+0x5c>)
 8001418:	22aa      	movs	r2, #170	@ 0xaa
 800141a:	60da      	str	r2, [r3, #12]
  hi2c1.Init.AddressingMode = I2C_ADDRESSINGMODE_7BIT;
 800141c:	4b0f      	ldr	r3, [pc, #60]	@ (800145c <MX_I2C1_Init+0x5c>)
 800141e:	f44f 4280 	mov.w	r2, #16384	@ 0x4000
 8001422:	611a      	str	r2, [r3, #16]
  hi2c1.Init.DualAddressMode = I2C_DUALADDRESS_DISABLE;
 8001424:	4b0d      	ldr	r3, [pc, #52]	@ (800145c <MX_I2C1_Init+0x5c>)
 8001426:	2200      	movs	r2, #0
 8001428:	615a      	str	r2, [r3, #20]
  hi2c1.Init.OwnAddress2 = 0;
 800142a:	4b0c      	ldr	r3, [pc, #48]	@ (800145c <MX_I2C1_Init+0x5c>)
 800142c:	2200      	movs	r2, #0
 800142e:	619a      	str	r2, [r3, #24]
  hi2c1.Init.GeneralCallMode = I2C_GENERALCALL_DISABLE;
 8001430:	4b0a      	ldr	r3, [pc, #40]	@ (800145c <MX_I2C1_Init+0x5c>)
 8001432:	2200      	movs	r2, #0
 8001434:	61da      	str	r2, [r3, #28]
  hi2c1.Init.NoStretchMode = I2C_NOSTRETCH_DISABLE;
 8001436:	4b09      	ldr	r3, [pc, #36]	@ (800145c <MX_I2C1_Init+0x5c>)
 8001438:	2200      	movs	r2, #0
 800143a:	621a      	str	r2, [r3, #32]
  if (HAL_I2C_Init(&hi2c1) != HAL_OK)
 800143c:	4807      	ldr	r0, [pc, #28]	@ (800145c <MX_I2C1_Init+0x5c>)
 800143e:	f003 fe95 	bl	800516c <HAL_I2C_Init>
 8001442:	4603      	mov	r3, r0
 8001444:	2b00      	cmp	r3, #0
 8001446:	d001      	beq.n	800144c <MX_I2C1_Init+0x4c>
  {
    Error_Handler();
 8001448:	f002 fc9e 	bl	8003d88 <Error_Handler>
  }
  HAL_I2C_Slave_Receive_IT(&hi2c1, data, 2);
 800144c:	2202      	movs	r2, #2
 800144e:	4906      	ldr	r1, [pc, #24]	@ (8001468 <MX_I2C1_Init+0x68>)
 8001450:	4802      	ldr	r0, [pc, #8]	@ (800145c <MX_I2C1_Init+0x5c>)
 8001452:	f003 ffe3 	bl	800541c <HAL_I2C_Slave_Receive_IT>
}
 8001456:	bf00      	nop
 8001458:	bd80      	pop	{r7, pc}
 800145a:	bf00      	nop
 800145c:	20000380 	.word	0x20000380
 8001460:	40005400 	.word	0x40005400
 8001464:	00061a80 	.word	0x00061a80
 8001468:	200000a4 	.word	0x200000a4

0800146c <HAL_I2C_SlaveRxCpltCallback>:
void HAL_I2C_SlaveRxCpltCallback(I2C_HandleTypeDef *hi2c)
{
 800146c:	b580      	push	{r7, lr}
 800146e:	b082      	sub	sp, #8
 8001470:	af00      	add	r7, sp, #0
 8001472:	6078      	str	r0, [r7, #4]
	I2C_RX_FLAG=1;
 8001474:	4b05      	ldr	r3, [pc, #20]	@ (800148c <HAL_I2C_SlaveRxCpltCallback+0x20>)
 8001476:	2201      	movs	r2, #1
 8001478:	701a      	strb	r2, [r3, #0]
    HAL_I2C_Slave_Receive_IT(&hi2c1, data, 2);
 800147a:	2202      	movs	r2, #2
 800147c:	4904      	ldr	r1, [pc, #16]	@ (8001490 <HAL_I2C_SlaveRxCpltCallback+0x24>)
 800147e:	4805      	ldr	r0, [pc, #20]	@ (8001494 <HAL_I2C_SlaveRxCpltCallback+0x28>)
 8001480:	f003 ffcc 	bl	800541c <HAL_I2C_Slave_Receive_IT>
}
 8001484:	bf00      	nop
 8001486:	3708      	adds	r7, #8
 8001488:	46bd      	mov	sp, r7
 800148a:	bd80      	pop	{r7, pc}
 800148c:	200000a2 	.word	0x200000a2
 8001490:	200000a4 	.word	0x200000a4
 8001494:	20000380 	.word	0x20000380

08001498 <HAL_I2C_ErrorCallback>:
void HAL_I2C_ErrorCallback(I2C_HandleTypeDef *hi2c)
{
 8001498:	b580      	push	{r7, lr}
 800149a:	b082      	sub	sp, #8
 800149c:	af00      	add	r7, sp, #0
 800149e:	6078      	str	r0, [r7, #4]
    if (hi2c->Instance == I2C1) {
 80014a0:	687b      	ldr	r3, [r7, #4]
 80014a2:	681b      	ldr	r3, [r3, #0]
 80014a4:	4a0c      	ldr	r2, [pc, #48]	@ (80014d8 <HAL_I2C_ErrorCallback+0x40>)
 80014a6:	4293      	cmp	r3, r2
 80014a8:	d112      	bne.n	80014d0 <HAL_I2C_ErrorCallback+0x38>
        // Reset I2C if it’s stuck
        __HAL_RCC_I2C1_FORCE_RESET();
 80014aa:	4b0c      	ldr	r3, [pc, #48]	@ (80014dc <HAL_I2C_ErrorCallback+0x44>)
 80014ac:	691b      	ldr	r3, [r3, #16]
 80014ae:	4a0b      	ldr	r2, [pc, #44]	@ (80014dc <HAL_I2C_ErrorCallback+0x44>)
 80014b0:	f443 1300 	orr.w	r3, r3, #2097152	@ 0x200000
 80014b4:	6113      	str	r3, [r2, #16]
        __HAL_RCC_I2C1_RELEASE_RESET();
 80014b6:	4b09      	ldr	r3, [pc, #36]	@ (80014dc <HAL_I2C_ErrorCallback+0x44>)
 80014b8:	691b      	ldr	r3, [r3, #16]
 80014ba:	4a08      	ldr	r2, [pc, #32]	@ (80014dc <HAL_I2C_ErrorCallback+0x44>)
 80014bc:	f423 1300 	bic.w	r3, r3, #2097152	@ 0x200000
 80014c0:	6113      	str	r3, [r2, #16]

        MX_I2C1_Init();  // Re-init peripheral
 80014c2:	f7ff ff9d 	bl	8001400 <MX_I2C1_Init>
        HAL_I2C_Slave_Receive_IT(&hi2c1, data, 2);
 80014c6:	2202      	movs	r2, #2
 80014c8:	4905      	ldr	r1, [pc, #20]	@ (80014e0 <HAL_I2C_ErrorCallback+0x48>)
 80014ca:	4806      	ldr	r0, [pc, #24]	@ (80014e4 <HAL_I2C_ErrorCallback+0x4c>)
 80014cc:	f003 ffa6 	bl	800541c <HAL_I2C_Slave_Receive_IT>
    }
}
 80014d0:	bf00      	nop
 80014d2:	3708      	adds	r7, #8
 80014d4:	46bd      	mov	sp, r7
 80014d6:	bd80      	pop	{r7, pc}
 80014d8:	40005400 	.word	0x40005400
 80014dc:	40021000 	.word	0x40021000
 80014e0:	200000a4 	.word	0x200000a4
 80014e4:	20000380 	.word	0x20000380

080014e8 <Process_Jbd_Bms_Messages>:
#include"JBD_BMS.h"
#include"can.h"
JBD_BMS_MSG_t Bms_Frames;


void Process_Jbd_Bms_Messages(can_frame_t *frame){
 80014e8:	b580      	push	{r7, lr}
 80014ea:	b082      	sub	sp, #8
 80014ec:	af00      	add	r7, sp, #0
 80014ee:	6078      	str	r0, [r7, #4]
 switch(frame->id){
 80014f0:	687b      	ldr	r3, [r7, #4]
 80014f2:	681b      	ldr	r3, [r3, #0]
 80014f4:	f5a3 7380 	sub.w	r3, r3, #256	@ 0x100
 80014f8:	2b0c      	cmp	r3, #12
 80014fa:	d878      	bhi.n	80015ee <Process_Jbd_Bms_Messages+0x106>
 80014fc:	a201      	add	r2, pc, #4	@ (adr r2, 8001504 <Process_Jbd_Bms_Messages+0x1c>)
 80014fe:	f852 f023 	ldr.w	pc, [r2, r3, lsl #2]
 8001502:	bf00      	nop
 8001504:	08001539 	.word	0x08001539
 8001508:	08001547 	.word	0x08001547
 800150c:	08001555 	.word	0x08001555
 8001510:	08001563 	.word	0x08001563
 8001514:	08001571 	.word	0x08001571
 8001518:	0800157f 	.word	0x0800157f
 800151c:	0800158d 	.word	0x0800158d
 8001520:	0800159b 	.word	0x0800159b
 8001524:	080015a9 	.word	0x080015a9
 8001528:	080015b7 	.word	0x080015b7
 800152c:	080015c5 	.word	0x080015c5
 8001530:	080015d3 	.word	0x080015d3
 8001534:	080015e1 	.word	0x080015e1
 case 0x100:decode_CAN_0x100(frame->data,&Bms_Frames.Id_0x100);
 8001538:	687b      	ldr	r3, [r7, #4]
 800153a:	3307      	adds	r3, #7
 800153c:	492e      	ldr	r1, [pc, #184]	@ (80015f8 <Process_Jbd_Bms_Messages+0x110>)
 800153e:	4618      	mov	r0, r3
 8001540:	f000 f874 	bl	800162c <decode_CAN_0x100>
	 	 	 break;
 8001544:	e054      	b.n	80015f0 <Process_Jbd_Bms_Messages+0x108>
 case 0x101:decode_CAN_0x101(frame->data,&Bms_Frames.Id_0x101);
 8001546:	687b      	ldr	r3, [r7, #4]
 8001548:	3307      	adds	r3, #7
 800154a:	492c      	ldr	r1, [pc, #176]	@ (80015fc <Process_Jbd_Bms_Messages+0x114>)
 800154c:	4618      	mov	r0, r3
 800154e:	f000 f8eb 	bl	8001728 <decode_CAN_0x101>
	 	 	 break;
 8001552:	e04d      	b.n	80015f0 <Process_Jbd_Bms_Messages+0x108>
 case 0x102:decode_CAN_0x102(frame->data,&Bms_Frames.Id_0x102);
 8001554:	687b      	ldr	r3, [r7, #4]
 8001556:	3307      	adds	r3, #7
 8001558:	4929      	ldr	r1, [pc, #164]	@ (8001600 <Process_Jbd_Bms_Messages+0x118>)
 800155a:	4618      	mov	r0, r3
 800155c:	f000 f97a 	bl	8001854 <decode_CAN_0x102>
	 	 	 break;
 8001560:	e046      	b.n	80015f0 <Process_Jbd_Bms_Messages+0x108>
 case 0x103:decode_CAN_0x103(frame->data,&Bms_Frames.Id_0x103);
 8001562:	687b      	ldr	r3, [r7, #4]
 8001564:	3307      	adds	r3, #7
 8001566:	4927      	ldr	r1, [pc, #156]	@ (8001604 <Process_Jbd_Bms_Messages+0x11c>)
 8001568:	4618      	mov	r0, r3
 800156a:	f000 f92f 	bl	80017cc <decode_CAN_0x103>
	 	 	 break;
 800156e:	e03f      	b.n	80015f0 <Process_Jbd_Bms_Messages+0x108>
 case 0x104:decode_CAN_0x104(frame->data,&Bms_Frames.Id_0x104);
 8001570:	687b      	ldr	r3, [r7, #4]
 8001572:	3307      	adds	r3, #7
 8001574:	4924      	ldr	r1, [pc, #144]	@ (8001608 <Process_Jbd_Bms_Messages+0x120>)
 8001576:	4618      	mov	r0, r3
 8001578:	f000 f9de 	bl	8001938 <decode_CAN_0x104>
	 	 	 break;
 800157c:	e038      	b.n	80015f0 <Process_Jbd_Bms_Messages+0x108>
 case 0x105:decode_CAN_0x105(frame->data,&Bms_Frames.Id_0x105);
 800157e:	687b      	ldr	r3, [r7, #4]
 8001580:	3307      	adds	r3, #7
 8001582:	4922      	ldr	r1, [pc, #136]	@ (800160c <Process_Jbd_Bms_Messages+0x124>)
 8001584:	4618      	mov	r0, r3
 8001586:	f000 f9f9 	bl	800197c <decode_CAN_0x105>
	 	 	 break;
 800158a:	e031      	b.n	80015f0 <Process_Jbd_Bms_Messages+0x108>
 case 0x106:decode_CAN_0x106(frame->data,&Bms_Frames.Id_0x106);
 800158c:	687b      	ldr	r3, [r7, #4]
 800158e:	3307      	adds	r3, #7
 8001590:	491f      	ldr	r1, [pc, #124]	@ (8001610 <Process_Jbd_Bms_Messages+0x128>)
 8001592:	4618      	mov	r0, r3
 8001594:	f000 fa6a 	bl	8001a6c <decode_CAN_0x106>
	 	 	 break;
 8001598:	e02a      	b.n	80015f0 <Process_Jbd_Bms_Messages+0x108>
 case 0x107:decode_CAN_0x107(frame->data,&Bms_Frames.Id_0x107);
 800159a:	687b      	ldr	r3, [r7, #4]
 800159c:	3307      	adds	r3, #7
 800159e:	491d      	ldr	r1, [pc, #116]	@ (8001614 <Process_Jbd_Bms_Messages+0x12c>)
 80015a0:	4618      	mov	r0, r3
 80015a2:	f000 fadb 	bl	8001b5c <decode_CAN_0x107>
	 	 	 break;
 80015a6:	e023      	b.n	80015f0 <Process_Jbd_Bms_Messages+0x108>
 case 0x108:decode_CAN_0x108(frame->data,&Bms_Frames.Id_0x108);
 80015a8:	687b      	ldr	r3, [r7, #4]
 80015aa:	3307      	adds	r3, #7
 80015ac:	491a      	ldr	r1, [pc, #104]	@ (8001618 <Process_Jbd_Bms_Messages+0x130>)
 80015ae:	4618      	mov	r0, r3
 80015b0:	f000 fb4c 	bl	8001c4c <decode_CAN_0x108>
	 	 	 break;
 80015b4:	e01c      	b.n	80015f0 <Process_Jbd_Bms_Messages+0x108>
 case 0x109:decode_CAN_0x109(frame->data,&Bms_Frames.Id_0x109);
 80015b6:	687b      	ldr	r3, [r7, #4]
 80015b8:	3307      	adds	r3, #7
 80015ba:	4918      	ldr	r1, [pc, #96]	@ (800161c <Process_Jbd_Bms_Messages+0x134>)
 80015bc:	4618      	mov	r0, r3
 80015be:	f000 fbbd 	bl	8001d3c <decode_CAN_0x109>
	 	 	 break;
 80015c2:	e015      	b.n	80015f0 <Process_Jbd_Bms_Messages+0x108>
 case 0x10A:decode_CAN_0x10A(frame->data,&Bms_Frames.Id_0x10A);
 80015c4:	687b      	ldr	r3, [r7, #4]
 80015c6:	3307      	adds	r3, #7
 80015c8:	4915      	ldr	r1, [pc, #84]	@ (8001620 <Process_Jbd_Bms_Messages+0x138>)
 80015ca:	4618      	mov	r0, r3
 80015cc:	f000 fc2e 	bl	8001e2c <decode_CAN_0x10A>
	 	 	 break;
 80015d0:	e00e      	b.n	80015f0 <Process_Jbd_Bms_Messages+0x108>
 case 0X10B:decode_CAN_0x10B(frame->data,&Bms_Frames.Id_0x10B);
 80015d2:	687b      	ldr	r3, [r7, #4]
 80015d4:	3307      	adds	r3, #7
 80015d6:	4913      	ldr	r1, [pc, #76]	@ (8001624 <Process_Jbd_Bms_Messages+0x13c>)
 80015d8:	4618      	mov	r0, r3
 80015da:	f000 fc9f 	bl	8001f1c <decode_CAN_0x10B>
	 	 	 break;
 80015de:	e007      	b.n	80015f0 <Process_Jbd_Bms_Messages+0x108>
 case 0X10C:decode_CAN_0x10C(frame->data,&Bms_Frames.Id_0x10C);
 80015e0:	687b      	ldr	r3, [r7, #4]
 80015e2:	3307      	adds	r3, #7
 80015e4:	4910      	ldr	r1, [pc, #64]	@ (8001628 <Process_Jbd_Bms_Messages+0x140>)
 80015e6:	4618      	mov	r0, r3
 80015e8:	f000 fd10 	bl	800200c <decode_CAN_0x10C>
	 	 	 break;
 80015ec:	e000      	b.n	80015f0 <Process_Jbd_Bms_Messages+0x108>
 default :break;
 80015ee:	bf00      	nop
 }
}
 80015f0:	bf00      	nop
 80015f2:	3708      	adds	r7, #8
 80015f4:	46bd      	mov	sp, r7
 80015f6:	bd80      	pop	{r7, pc}
 80015f8:	200000a8 	.word	0x200000a8
 80015fc:	200000b8 	.word	0x200000b8
 8001600:	200000c4 	.word	0x200000c4
 8001604:	200000ea 	.word	0x200000ea
 8001608:	200000f2 	.word	0x200000f2
 800160c:	200000f8 	.word	0x200000f8
 8001610:	20000108 	.word	0x20000108
 8001614:	20000118 	.word	0x20000118
 8001618:	20000128 	.word	0x20000128
 800161c:	20000138 	.word	0x20000138
 8001620:	20000148 	.word	0x20000148
 8001624:	20000158 	.word	0x20000158
 8001628:	20000168 	.word	0x20000168

0800162c <decode_CAN_0x100>:
 */


#include"JBD_BMS_MESSAGES.h"
#include"uart.h"
void decode_CAN_0x100(const uint8_t *data, CAN_BMS_0x100_t *msg) {
 800162c:	e92d 43b0 	stmdb	sp!, {r4, r5, r7, r8, r9, lr}
 8001630:	b086      	sub	sp, #24
 8001632:	af04      	add	r7, sp, #16
 8001634:	6078      	str	r0, [r7, #4]
 8001636:	6039      	str	r1, [r7, #0]
    msg->Total_Voltage = ((data[0] << 8) | data[1]) * 0.01f;   // 10 mV → V
 8001638:	687b      	ldr	r3, [r7, #4]
 800163a:	781b      	ldrb	r3, [r3, #0]
 800163c:	021b      	lsls	r3, r3, #8
 800163e:	687a      	ldr	r2, [r7, #4]
 8001640:	3201      	adds	r2, #1
 8001642:	7812      	ldrb	r2, [r2, #0]
 8001644:	4313      	orrs	r3, r2
 8001646:	4618      	mov	r0, r3
 8001648:	f7ff f9d2 	bl	80009f0 <__aeabi_i2f>
 800164c:	4603      	mov	r3, r0
 800164e:	4934      	ldr	r1, [pc, #208]	@ (8001720 <decode_CAN_0x100+0xf4>)
 8001650:	4618      	mov	r0, r3
 8001652:	f7ff fa21 	bl	8000a98 <__aeabi_fmul>
 8001656:	4603      	mov	r3, r0
 8001658:	461a      	mov	r2, r3
 800165a:	683b      	ldr	r3, [r7, #0]
 800165c:	601a      	str	r2, [r3, #0]
    msg->Charge_and_Discharge_Current =(float)((int16_t)((data[2] << 8) | data[3])) * 0.01f;  // 10 mA → A
 800165e:	687b      	ldr	r3, [r7, #4]
 8001660:	3302      	adds	r3, #2
 8001662:	781b      	ldrb	r3, [r3, #0]
 8001664:	b21b      	sxth	r3, r3
 8001666:	021b      	lsls	r3, r3, #8
 8001668:	b21a      	sxth	r2, r3
 800166a:	687b      	ldr	r3, [r7, #4]
 800166c:	3303      	adds	r3, #3
 800166e:	781b      	ldrb	r3, [r3, #0]
 8001670:	b21b      	sxth	r3, r3
 8001672:	4313      	orrs	r3, r2
 8001674:	b21b      	sxth	r3, r3
 8001676:	4618      	mov	r0, r3
 8001678:	f7ff f9ba 	bl	80009f0 <__aeabi_i2f>
 800167c:	4603      	mov	r3, r0
 800167e:	4928      	ldr	r1, [pc, #160]	@ (8001720 <decode_CAN_0x100+0xf4>)
 8001680:	4618      	mov	r0, r3
 8001682:	f7ff fa09 	bl	8000a98 <__aeabi_fmul>
 8001686:	4603      	mov	r3, r0
 8001688:	461a      	mov	r2, r3
 800168a:	683b      	ldr	r3, [r7, #0]
 800168c:	605a      	str	r2, [r3, #4]
    msg->Remaining_Capacity= (float)(((int16_t)(data[4] << 8) | data[5])) * 0.01f; // 10 mAh → Ah
 800168e:	687b      	ldr	r3, [r7, #4]
 8001690:	3304      	adds	r3, #4
 8001692:	781b      	ldrb	r3, [r3, #0]
 8001694:	b21b      	sxth	r3, r3
 8001696:	021b      	lsls	r3, r3, #8
 8001698:	b21b      	sxth	r3, r3
 800169a:	461a      	mov	r2, r3
 800169c:	687b      	ldr	r3, [r7, #4]
 800169e:	3305      	adds	r3, #5
 80016a0:	781b      	ldrb	r3, [r3, #0]
 80016a2:	4313      	orrs	r3, r2
 80016a4:	4618      	mov	r0, r3
 80016a6:	f7ff f9a3 	bl	80009f0 <__aeabi_i2f>
 80016aa:	4603      	mov	r3, r0
 80016ac:	491c      	ldr	r1, [pc, #112]	@ (8001720 <decode_CAN_0x100+0xf4>)
 80016ae:	4618      	mov	r0, r3
 80016b0:	f7ff f9f2 	bl	8000a98 <__aeabi_fmul>
 80016b4:	4603      	mov	r3, r0
 80016b6:	461a      	mov	r2, r3
 80016b8:	683b      	ldr	r3, [r7, #0]
 80016ba:	609a      	str	r2, [r3, #8]
    msg->CRC_Check   = (data[6] << 8) | data[7];
 80016bc:	687b      	ldr	r3, [r7, #4]
 80016be:	3306      	adds	r3, #6
 80016c0:	781b      	ldrb	r3, [r3, #0]
 80016c2:	b21b      	sxth	r3, r3
 80016c4:	021b      	lsls	r3, r3, #8
 80016c6:	b21a      	sxth	r2, r3
 80016c8:	687b      	ldr	r3, [r7, #4]
 80016ca:	3307      	adds	r3, #7
 80016cc:	781b      	ldrb	r3, [r3, #0]
 80016ce:	b21b      	sxth	r3, r3
 80016d0:	4313      	orrs	r3, r2
 80016d2:	b21b      	sxth	r3, r3
 80016d4:	b29a      	uxth	r2, r3
 80016d6:	683b      	ldr	r3, [r7, #0]
 80016d8:	819a      	strh	r2, [r3, #12]
    uart_printf("Total_Voltage=%.2f Vol Charge_and_Discharge_Current=%.2f A Remaining_Capacity=%.2f Ah\n\r",msg->Total_Voltage,msg->Charge_and_Discharge_Current,msg->Remaining_Capacity);
 80016da:	683b      	ldr	r3, [r7, #0]
 80016dc:	681b      	ldr	r3, [r3, #0]
 80016de:	4618      	mov	r0, r3
 80016e0:	f7fe ffc4 	bl	800066c <__aeabi_f2d>
 80016e4:	4680      	mov	r8, r0
 80016e6:	4689      	mov	r9, r1
 80016e8:	683b      	ldr	r3, [r7, #0]
 80016ea:	685b      	ldr	r3, [r3, #4]
 80016ec:	4618      	mov	r0, r3
 80016ee:	f7fe ffbd 	bl	800066c <__aeabi_f2d>
 80016f2:	4604      	mov	r4, r0
 80016f4:	460d      	mov	r5, r1
 80016f6:	683b      	ldr	r3, [r7, #0]
 80016f8:	689b      	ldr	r3, [r3, #8]
 80016fa:	4618      	mov	r0, r3
 80016fc:	f7fe ffb6 	bl	800066c <__aeabi_f2d>
 8001700:	4602      	mov	r2, r0
 8001702:	460b      	mov	r3, r1
 8001704:	e9cd 2302 	strd	r2, r3, [sp, #8]
 8001708:	e9cd 4500 	strd	r4, r5, [sp]
 800170c:	4642      	mov	r2, r8
 800170e:	464b      	mov	r3, r9
 8001710:	4804      	ldr	r0, [pc, #16]	@ (8001724 <decode_CAN_0x100+0xf8>)
 8001712:	f003 f95f 	bl	80049d4 <uart_printf>
}
 8001716:	bf00      	nop
 8001718:	3708      	adds	r7, #8
 800171a:	46bd      	mov	sp, r7
 800171c:	e8bd 83b0 	ldmia.w	sp!, {r4, r5, r7, r8, r9, pc}
 8001720:	3c23d70a 	.word	0x3c23d70a
 8001724:	080078a0 	.word	0x080078a0

08001728 <decode_CAN_0x101>:
void decode_CAN_0x101(const uint8_t *data, CAN_BMS_0x101_t *msg) {
 8001728:	b580      	push	{r7, lr}
 800172a:	b084      	sub	sp, #16
 800172c:	af02      	add	r7, sp, #8
 800172e:	6078      	str	r0, [r7, #4]
 8001730:	6039      	str	r1, [r7, #0]
    msg->Full_Capacity = ((data[0] << 8) | data[1]) * 0.01f;  // 10 mAh → Ah
 8001732:	687b      	ldr	r3, [r7, #4]
 8001734:	781b      	ldrb	r3, [r3, #0]
 8001736:	021b      	lsls	r3, r3, #8
 8001738:	687a      	ldr	r2, [r7, #4]
 800173a:	3201      	adds	r2, #1
 800173c:	7812      	ldrb	r2, [r2, #0]
 800173e:	4313      	orrs	r3, r2
 8001740:	4618      	mov	r0, r3
 8001742:	f7ff f955 	bl	80009f0 <__aeabi_i2f>
 8001746:	4603      	mov	r3, r0
 8001748:	491e      	ldr	r1, [pc, #120]	@ (80017c4 <decode_CAN_0x101+0x9c>)
 800174a:	4618      	mov	r0, r3
 800174c:	f7ff f9a4 	bl	8000a98 <__aeabi_fmul>
 8001750:	4603      	mov	r3, r0
 8001752:	461a      	mov	r2, r3
 8001754:	683b      	ldr	r3, [r7, #0]
 8001756:	601a      	str	r2, [r3, #0]
    msg->No_Cycles        = (data[2] << 8) | data[3];
 8001758:	687b      	ldr	r3, [r7, #4]
 800175a:	3302      	adds	r3, #2
 800175c:	781b      	ldrb	r3, [r3, #0]
 800175e:	b21b      	sxth	r3, r3
 8001760:	021b      	lsls	r3, r3, #8
 8001762:	b21a      	sxth	r2, r3
 8001764:	687b      	ldr	r3, [r7, #4]
 8001766:	3303      	adds	r3, #3
 8001768:	781b      	ldrb	r3, [r3, #0]
 800176a:	b21b      	sxth	r3, r3
 800176c:	4313      	orrs	r3, r2
 800176e:	b21b      	sxth	r3, r3
 8001770:	b29a      	uxth	r2, r3
 8001772:	683b      	ldr	r3, [r7, #0]
 8001774:	809a      	strh	r2, [r3, #4]
    msg->RSOC          = (uint8_t)(((data[4] << 8) | data[5]) & 0xFF); // RSOC in %
 8001776:	687b      	ldr	r3, [r7, #4]
 8001778:	3305      	adds	r3, #5
 800177a:	781b      	ldrb	r3, [r3, #0]
 800177c:	461a      	mov	r2, r3
 800177e:	683b      	ldr	r3, [r7, #0]
 8001780:	80da      	strh	r2, [r3, #6]
    msg->CRC_Check        = (data[6] << 8) | data[7];
 8001782:	687b      	ldr	r3, [r7, #4]
 8001784:	3306      	adds	r3, #6
 8001786:	781b      	ldrb	r3, [r3, #0]
 8001788:	b21b      	sxth	r3, r3
 800178a:	021b      	lsls	r3, r3, #8
 800178c:	b21a      	sxth	r2, r3
 800178e:	687b      	ldr	r3, [r7, #4]
 8001790:	3307      	adds	r3, #7
 8001792:	781b      	ldrb	r3, [r3, #0]
 8001794:	b21b      	sxth	r3, r3
 8001796:	4313      	orrs	r3, r2
 8001798:	b21b      	sxth	r3, r3
 800179a:	b29a      	uxth	r2, r3
 800179c:	683b      	ldr	r3, [r7, #0]
 800179e:	811a      	strh	r2, [r3, #8]
    uart_printf("Full_Capacity=%.2f Ah RSOC=%d %\n\r",msg->Full_Capacity,(int)msg->RSOC);
 80017a0:	683b      	ldr	r3, [r7, #0]
 80017a2:	681b      	ldr	r3, [r3, #0]
 80017a4:	4618      	mov	r0, r3
 80017a6:	f7fe ff61 	bl	800066c <__aeabi_f2d>
 80017aa:	4602      	mov	r2, r0
 80017ac:	460b      	mov	r3, r1
 80017ae:	6839      	ldr	r1, [r7, #0]
 80017b0:	88c9      	ldrh	r1, [r1, #6]
 80017b2:	9100      	str	r1, [sp, #0]
 80017b4:	4804      	ldr	r0, [pc, #16]	@ (80017c8 <decode_CAN_0x101+0xa0>)
 80017b6:	f003 f90d 	bl	80049d4 <uart_printf>

}
 80017ba:	bf00      	nop
 80017bc:	3708      	adds	r7, #8
 80017be:	46bd      	mov	sp, r7
 80017c0:	bd80      	pop	{r7, pc}
 80017c2:	bf00      	nop
 80017c4:	3c23d70a 	.word	0x3c23d70a
 80017c8:	080078f8 	.word	0x080078f8

080017cc <decode_CAN_0x103>:
    msg->cell_voltage[start_cell - 1] = (data[0] << 8) | data[1];
    msg->cell_voltage[start_cell] = (data[2] << 8) | data[3];
    msg->cell_voltage[start_cell + 1] = (data[4] << 8) | data[5];
    msg->crc_check = (data[6] << 8) | data[7];
}
void decode_CAN_0x103(const uint8_t *data, CAN_BMS_0x103_t *msg) {
 80017cc:	b480      	push	{r7}
 80017ce:	b083      	sub	sp, #12
 80017d0:	af00      	add	r7, sp, #0
 80017d2:	6078      	str	r0, [r7, #4]
 80017d4:	6039      	str	r1, [r7, #0]
    // Decode MOS tube status (Bytes 0-1)
    msg->FET_Control_Status = (data[0] << 8) | data[1];
 80017d6:	687b      	ldr	r3, [r7, #4]
 80017d8:	781b      	ldrb	r3, [r3, #0]
 80017da:	b21b      	sxth	r3, r3
 80017dc:	021b      	lsls	r3, r3, #8
 80017de:	b21a      	sxth	r2, r3
 80017e0:	687b      	ldr	r3, [r7, #4]
 80017e2:	3301      	adds	r3, #1
 80017e4:	781b      	ldrb	r3, [r3, #0]
 80017e6:	b21b      	sxth	r3, r3
 80017e8:	4313      	orrs	r3, r2
 80017ea:	b21b      	sxth	r3, r3
 80017ec:	b29a      	uxth	r2, r3
 80017ee:	683b      	ldr	r3, [r7, #0]
 80017f0:	801a      	strh	r2, [r3, #0]
    // Decode Production date (Bytes 2-3)
    msg->Production_Date = (data[2] << 8) | data[3];
 80017f2:	687b      	ldr	r3, [r7, #4]
 80017f4:	3302      	adds	r3, #2
 80017f6:	781b      	ldrb	r3, [r3, #0]
 80017f8:	b21b      	sxth	r3, r3
 80017fa:	021b      	lsls	r3, r3, #8
 80017fc:	b21a      	sxth	r2, r3
 80017fe:	687b      	ldr	r3, [r7, #4]
 8001800:	3303      	adds	r3, #3
 8001802:	781b      	ldrb	r3, [r3, #0]
 8001804:	b21b      	sxth	r3, r3
 8001806:	4313      	orrs	r3, r2
 8001808:	b21a      	sxth	r2, r3
 800180a:	683b      	ldr	r3, [r7, #0]
 800180c:	805a      	strh	r2, [r3, #2]
    // Decode Software version (Bytes 4-5)
    msg->Software_Version = (data[4] << 8) | data[5];
 800180e:	687b      	ldr	r3, [r7, #4]
 8001810:	3304      	adds	r3, #4
 8001812:	781b      	ldrb	r3, [r3, #0]
 8001814:	b21b      	sxth	r3, r3
 8001816:	021b      	lsls	r3, r3, #8
 8001818:	b21a      	sxth	r2, r3
 800181a:	687b      	ldr	r3, [r7, #4]
 800181c:	3305      	adds	r3, #5
 800181e:	781b      	ldrb	r3, [r3, #0]
 8001820:	b21b      	sxth	r3, r3
 8001822:	4313      	orrs	r3, r2
 8001824:	b21b      	sxth	r3, r3
 8001826:	b29a      	uxth	r2, r3
 8001828:	683b      	ldr	r3, [r7, #0]
 800182a:	809a      	strh	r2, [r3, #4]
    // Decode CRC_16 check value (Bytes 6-7)
    msg->CRC_Check = (data[6] << 8) | data[7];
 800182c:	687b      	ldr	r3, [r7, #4]
 800182e:	3306      	adds	r3, #6
 8001830:	781b      	ldrb	r3, [r3, #0]
 8001832:	b21b      	sxth	r3, r3
 8001834:	021b      	lsls	r3, r3, #8
 8001836:	b21a      	sxth	r2, r3
 8001838:	687b      	ldr	r3, [r7, #4]
 800183a:	3307      	adds	r3, #7
 800183c:	781b      	ldrb	r3, [r3, #0]
 800183e:	b21b      	sxth	r3, r3
 8001840:	4313      	orrs	r3, r2
 8001842:	b21b      	sxth	r3, r3
 8001844:	b29a      	uxth	r2, r3
 8001846:	683b      	ldr	r3, [r7, #0]
 8001848:	80da      	strh	r2, [r3, #6]
}
 800184a:	bf00      	nop
 800184c:	370c      	adds	r7, #12
 800184e:	46bd      	mov	sp, r7
 8001850:	bc80      	pop	{r7}
 8001852:	4770      	bx	lr

08001854 <decode_CAN_0x102>:
void decode_CAN_0x102(const uint8_t *data, CAN_BMS_0x102_t *msg) {
 8001854:	b480      	push	{r7}
 8001856:	b087      	sub	sp, #28
 8001858:	af00      	add	r7, sp, #0
 800185a:	6078      	str	r0, [r7, #4]
 800185c:	6039      	str	r1, [r7, #0]
    // Decode equalization status for cells 1-16 (BYTE0 - BYTE1)
    uint16_t status_low_byte = (data[0] << 8) | data[1];
 800185e:	687b      	ldr	r3, [r7, #4]
 8001860:	781b      	ldrb	r3, [r3, #0]
 8001862:	b21b      	sxth	r3, r3
 8001864:	021b      	lsls	r3, r3, #8
 8001866:	b21a      	sxth	r2, r3
 8001868:	687b      	ldr	r3, [r7, #4]
 800186a:	3301      	adds	r3, #1
 800186c:	781b      	ldrb	r3, [r3, #0]
 800186e:	b21b      	sxth	r3, r3
 8001870:	4313      	orrs	r3, r2
 8001872:	b21b      	sxth	r3, r3
 8001874:	81fb      	strh	r3, [r7, #14]
    for (int i = 0; i < 16; ++i) {
 8001876:	2300      	movs	r3, #0
 8001878:	617b      	str	r3, [r7, #20]
 800187a:	e012      	b.n	80018a2 <decode_CAN_0x102+0x4e>
        msg->Equlization_Low_byte[i] = (status_low_byte >> i) & 1;
 800187c:	89fa      	ldrh	r2, [r7, #14]
 800187e:	697b      	ldr	r3, [r7, #20]
 8001880:	fa42 f303 	asr.w	r3, r2, r3
 8001884:	f003 0301 	and.w	r3, r3, #1
 8001888:	2b00      	cmp	r3, #0
 800188a:	bf14      	ite	ne
 800188c:	2301      	movne	r3, #1
 800188e:	2300      	moveq	r3, #0
 8001890:	b2d9      	uxtb	r1, r3
 8001892:	683a      	ldr	r2, [r7, #0]
 8001894:	697b      	ldr	r3, [r7, #20]
 8001896:	4413      	add	r3, r2
 8001898:	460a      	mov	r2, r1
 800189a:	701a      	strb	r2, [r3, #0]
    for (int i = 0; i < 16; ++i) {
 800189c:	697b      	ldr	r3, [r7, #20]
 800189e:	3301      	adds	r3, #1
 80018a0:	617b      	str	r3, [r7, #20]
 80018a2:	697b      	ldr	r3, [r7, #20]
 80018a4:	2b0f      	cmp	r3, #15
 80018a6:	dde9      	ble.n	800187c <decode_CAN_0x102+0x28>
    }
    // Decode equalization status for cells 17-33 (BYTE2 - BYTE3)
    uint16_t status_high_byte = (data[2] << 8) | data[3];
 80018a8:	687b      	ldr	r3, [r7, #4]
 80018aa:	3302      	adds	r3, #2
 80018ac:	781b      	ldrb	r3, [r3, #0]
 80018ae:	b21b      	sxth	r3, r3
 80018b0:	021b      	lsls	r3, r3, #8
 80018b2:	b21a      	sxth	r2, r3
 80018b4:	687b      	ldr	r3, [r7, #4]
 80018b6:	3303      	adds	r3, #3
 80018b8:	781b      	ldrb	r3, [r3, #0]
 80018ba:	b21b      	sxth	r3, r3
 80018bc:	4313      	orrs	r3, r2
 80018be:	b21b      	sxth	r3, r3
 80018c0:	81bb      	strh	r3, [r7, #12]
    for (int i = 0; i < 17; ++i) {
 80018c2:	2300      	movs	r3, #0
 80018c4:	613b      	str	r3, [r7, #16]
 80018c6:	e011      	b.n	80018ec <decode_CAN_0x102+0x98>
        msg->Equlization_Low_byte[16 + i] = (status_high_byte >> i) & 1;
 80018c8:	89ba      	ldrh	r2, [r7, #12]
 80018ca:	693b      	ldr	r3, [r7, #16]
 80018cc:	fa42 f303 	asr.w	r3, r2, r3
 80018d0:	f003 0201 	and.w	r2, r3, #1
 80018d4:	693b      	ldr	r3, [r7, #16]
 80018d6:	3310      	adds	r3, #16
 80018d8:	2a00      	cmp	r2, #0
 80018da:	bf14      	ite	ne
 80018dc:	2201      	movne	r2, #1
 80018de:	2200      	moveq	r2, #0
 80018e0:	b2d1      	uxtb	r1, r2
 80018e2:	683a      	ldr	r2, [r7, #0]
 80018e4:	54d1      	strb	r1, [r2, r3]
    for (int i = 0; i < 17; ++i) {
 80018e6:	693b      	ldr	r3, [r7, #16]
 80018e8:	3301      	adds	r3, #1
 80018ea:	613b      	str	r3, [r7, #16]
 80018ec:	693b      	ldr	r3, [r7, #16]
 80018ee:	2b10      	cmp	r3, #16
 80018f0:	ddea      	ble.n	80018c8 <decode_CAN_0x102+0x74>
    }
    // Decode protection status (BYTE4 - BYTE5)
    msg->Protection_Status = (data[4] << 8) | data[5];
 80018f2:	687b      	ldr	r3, [r7, #4]
 80018f4:	3304      	adds	r3, #4
 80018f6:	781b      	ldrb	r3, [r3, #0]
 80018f8:	b21b      	sxth	r3, r3
 80018fa:	021b      	lsls	r3, r3, #8
 80018fc:	b21a      	sxth	r2, r3
 80018fe:	687b      	ldr	r3, [r7, #4]
 8001900:	3305      	adds	r3, #5
 8001902:	781b      	ldrb	r3, [r3, #0]
 8001904:	b21b      	sxth	r3, r3
 8001906:	4313      	orrs	r3, r2
 8001908:	b21b      	sxth	r3, r3
 800190a:	b29a      	uxth	r2, r3
 800190c:	683b      	ldr	r3, [r7, #0]
 800190e:	845a      	strh	r2, [r3, #34]	@ 0x22
    // Decode CRC_16 check value (BYTE6 - BYTE7)
    msg->CRC_Check = (data[6] << 8) | data[7];
 8001910:	687b      	ldr	r3, [r7, #4]
 8001912:	3306      	adds	r3, #6
 8001914:	781b      	ldrb	r3, [r3, #0]
 8001916:	b21b      	sxth	r3, r3
 8001918:	021b      	lsls	r3, r3, #8
 800191a:	b21a      	sxth	r2, r3
 800191c:	687b      	ldr	r3, [r7, #4]
 800191e:	3307      	adds	r3, #7
 8001920:	781b      	ldrb	r3, [r3, #0]
 8001922:	b21b      	sxth	r3, r3
 8001924:	4313      	orrs	r3, r2
 8001926:	b21b      	sxth	r3, r3
 8001928:	b29a      	uxth	r2, r3
 800192a:	683b      	ldr	r3, [r7, #0]
 800192c:	849a      	strh	r2, [r3, #36]	@ 0x24
}
 800192e:	bf00      	nop
 8001930:	371c      	adds	r7, #28
 8001932:	46bd      	mov	sp, r7
 8001934:	bc80      	pop	{r7}
 8001936:	4770      	bx	lr

08001938 <decode_CAN_0x104>:
void decode_CAN_0x104(const uint8_t *data, CAN_BMS_0x104_t *msg) {
 8001938:	b480      	push	{r7}
 800193a:	b083      	sub	sp, #12
 800193c:	af00      	add	r7, sp, #0
 800193e:	6078      	str	r0, [r7, #4]
 8001940:	6039      	str	r1, [r7, #0]
    // Decode Number of battery strings (BYTE0)
    msg->Number_Of_Battery_Strings = data[0];
 8001942:	687b      	ldr	r3, [r7, #4]
 8001944:	781a      	ldrb	r2, [r3, #0]
 8001946:	683b      	ldr	r3, [r7, #0]
 8001948:	701a      	strb	r2, [r3, #0]
    // Decode Number of NTC probes (BYTE1)
    msg->NTC_Number_Probes = data[1];
 800194a:	687b      	ldr	r3, [r7, #4]
 800194c:	3301      	adds	r3, #1
 800194e:	781a      	ldrb	r2, [r3, #0]
 8001950:	683b      	ldr	r3, [r7, #0]
 8001952:	705a      	strb	r2, [r3, #1]
    // Decode CRC_16 check value (Bytes 2-3)
    // Assuming a 16-bit CRC value from bytes 2 and 3
    msg->CRC_Check = (data[2] << 8) | data[3];
 8001954:	687b      	ldr	r3, [r7, #4]
 8001956:	3302      	adds	r3, #2
 8001958:	781b      	ldrb	r3, [r3, #0]
 800195a:	b21b      	sxth	r3, r3
 800195c:	021b      	lsls	r3, r3, #8
 800195e:	b21a      	sxth	r2, r3
 8001960:	687b      	ldr	r3, [r7, #4]
 8001962:	3303      	adds	r3, #3
 8001964:	781b      	ldrb	r3, [r3, #0]
 8001966:	b21b      	sxth	r3, r3
 8001968:	4313      	orrs	r3, r2
 800196a:	b21b      	sxth	r3, r3
 800196c:	b29a      	uxth	r2, r3
 800196e:	683b      	ldr	r3, [r7, #0]
 8001970:	805a      	strh	r2, [r3, #2]
}
 8001972:	bf00      	nop
 8001974:	370c      	adds	r7, #12
 8001976:	46bd      	mov	sp, r7
 8001978:	bc80      	pop	{r7}
 800197a:	4770      	bx	lr

0800197c <decode_CAN_0x105>:
void decode_CAN_0x105(const uint8_t *data, CAN_BMS_0x105_t *msg) {
 800197c:	b580      	push	{r7, lr}
 800197e:	b084      	sub	sp, #16
 8001980:	af00      	add	r7, sp, #0
 8001982:	6078      	str	r0, [r7, #4]
 8001984:	6039      	str	r1, [r7, #0]
    // Decode temperature value of NTC1 (Bytes 0-1)
    // The raw value is in 0.1K.
    // Convert to Celsius: (Value * 0.1) - 273.15
    uint16_t raw_ntc1_temp = (data[0] << 8) | data[1];
 8001986:	687b      	ldr	r3, [r7, #4]
 8001988:	781b      	ldrb	r3, [r3, #0]
 800198a:	b21b      	sxth	r3, r3
 800198c:	021b      	lsls	r3, r3, #8
 800198e:	b21a      	sxth	r2, r3
 8001990:	687b      	ldr	r3, [r7, #4]
 8001992:	3301      	adds	r3, #1
 8001994:	781b      	ldrb	r3, [r3, #0]
 8001996:	b21b      	sxth	r3, r3
 8001998:	4313      	orrs	r3, r2
 800199a:	b21b      	sxth	r3, r3
 800199c:	81fb      	strh	r3, [r7, #14]
    msg->NTC1 = (raw_ntc1_temp * 0.1f) - 273.15f;
 800199e:	89fb      	ldrh	r3, [r7, #14]
 80019a0:	4618      	mov	r0, r3
 80019a2:	f7ff f825 	bl	80009f0 <__aeabi_i2f>
 80019a6:	4603      	mov	r3, r0
 80019a8:	492e      	ldr	r1, [pc, #184]	@ (8001a64 <decode_CAN_0x105+0xe8>)
 80019aa:	4618      	mov	r0, r3
 80019ac:	f7ff f874 	bl	8000a98 <__aeabi_fmul>
 80019b0:	4603      	mov	r3, r0
 80019b2:	492d      	ldr	r1, [pc, #180]	@ (8001a68 <decode_CAN_0x105+0xec>)
 80019b4:	4618      	mov	r0, r3
 80019b6:	f7fe ff65 	bl	8000884 <__aeabi_fsub>
 80019ba:	4603      	mov	r3, r0
 80019bc:	461a      	mov	r2, r3
 80019be:	683b      	ldr	r3, [r7, #0]
 80019c0:	601a      	str	r2, [r3, #0]
    // Decode temperature value of NTC2 (Bytes 2-3)
    uint16_t raw_ntc2_temp = (data[2] << 8) | data[3];
 80019c2:	687b      	ldr	r3, [r7, #4]
 80019c4:	3302      	adds	r3, #2
 80019c6:	781b      	ldrb	r3, [r3, #0]
 80019c8:	b21b      	sxth	r3, r3
 80019ca:	021b      	lsls	r3, r3, #8
 80019cc:	b21a      	sxth	r2, r3
 80019ce:	687b      	ldr	r3, [r7, #4]
 80019d0:	3303      	adds	r3, #3
 80019d2:	781b      	ldrb	r3, [r3, #0]
 80019d4:	b21b      	sxth	r3, r3
 80019d6:	4313      	orrs	r3, r2
 80019d8:	b21b      	sxth	r3, r3
 80019da:	81bb      	strh	r3, [r7, #12]
    msg->NTC2 = (raw_ntc2_temp * 0.1f) - 273.15f;
 80019dc:	89bb      	ldrh	r3, [r7, #12]
 80019de:	4618      	mov	r0, r3
 80019e0:	f7ff f806 	bl	80009f0 <__aeabi_i2f>
 80019e4:	4603      	mov	r3, r0
 80019e6:	491f      	ldr	r1, [pc, #124]	@ (8001a64 <decode_CAN_0x105+0xe8>)
 80019e8:	4618      	mov	r0, r3
 80019ea:	f7ff f855 	bl	8000a98 <__aeabi_fmul>
 80019ee:	4603      	mov	r3, r0
 80019f0:	491d      	ldr	r1, [pc, #116]	@ (8001a68 <decode_CAN_0x105+0xec>)
 80019f2:	4618      	mov	r0, r3
 80019f4:	f7fe ff46 	bl	8000884 <__aeabi_fsub>
 80019f8:	4603      	mov	r3, r0
 80019fa:	461a      	mov	r2, r3
 80019fc:	683b      	ldr	r3, [r7, #0]
 80019fe:	605a      	str	r2, [r3, #4]
    // Decode temperature value of NTC3 (Bytes 4-5)
    uint16_t raw_ntc3_temp = (data[4] << 8) | data[5];
 8001a00:	687b      	ldr	r3, [r7, #4]
 8001a02:	3304      	adds	r3, #4
 8001a04:	781b      	ldrb	r3, [r3, #0]
 8001a06:	b21b      	sxth	r3, r3
 8001a08:	021b      	lsls	r3, r3, #8
 8001a0a:	b21a      	sxth	r2, r3
 8001a0c:	687b      	ldr	r3, [r7, #4]
 8001a0e:	3305      	adds	r3, #5
 8001a10:	781b      	ldrb	r3, [r3, #0]
 8001a12:	b21b      	sxth	r3, r3
 8001a14:	4313      	orrs	r3, r2
 8001a16:	b21b      	sxth	r3, r3
 8001a18:	817b      	strh	r3, [r7, #10]
    msg->NTC3 = (raw_ntc3_temp * 0.1f) - 273.15f;
 8001a1a:	897b      	ldrh	r3, [r7, #10]
 8001a1c:	4618      	mov	r0, r3
 8001a1e:	f7fe ffe7 	bl	80009f0 <__aeabi_i2f>
 8001a22:	4603      	mov	r3, r0
 8001a24:	490f      	ldr	r1, [pc, #60]	@ (8001a64 <decode_CAN_0x105+0xe8>)
 8001a26:	4618      	mov	r0, r3
 8001a28:	f7ff f836 	bl	8000a98 <__aeabi_fmul>
 8001a2c:	4603      	mov	r3, r0
 8001a2e:	490e      	ldr	r1, [pc, #56]	@ (8001a68 <decode_CAN_0x105+0xec>)
 8001a30:	4618      	mov	r0, r3
 8001a32:	f7fe ff27 	bl	8000884 <__aeabi_fsub>
 8001a36:	4603      	mov	r3, r0
 8001a38:	461a      	mov	r2, r3
 8001a3a:	683b      	ldr	r3, [r7, #0]
 8001a3c:	609a      	str	r2, [r3, #8]
    // Decode CRC_16 check value (Bytes 6-7)
    msg->CRC_Check = (data[6] << 8) | data[7];
 8001a3e:	687b      	ldr	r3, [r7, #4]
 8001a40:	3306      	adds	r3, #6
 8001a42:	781b      	ldrb	r3, [r3, #0]
 8001a44:	b21b      	sxth	r3, r3
 8001a46:	021b      	lsls	r3, r3, #8
 8001a48:	b21a      	sxth	r2, r3
 8001a4a:	687b      	ldr	r3, [r7, #4]
 8001a4c:	3307      	adds	r3, #7
 8001a4e:	781b      	ldrb	r3, [r3, #0]
 8001a50:	b21b      	sxth	r3, r3
 8001a52:	4313      	orrs	r3, r2
 8001a54:	b21b      	sxth	r3, r3
 8001a56:	b29a      	uxth	r2, r3
 8001a58:	683b      	ldr	r3, [r7, #0]
 8001a5a:	819a      	strh	r2, [r3, #12]
}
 8001a5c:	bf00      	nop
 8001a5e:	3710      	adds	r7, #16
 8001a60:	46bd      	mov	sp, r7
 8001a62:	bd80      	pop	{r7, pc}
 8001a64:	3dcccccd 	.word	0x3dcccccd
 8001a68:	43889333 	.word	0x43889333

08001a6c <decode_CAN_0x106>:
void decode_CAN_0x106(const uint8_t *data, CAN_BMS_0x106_t *msg) {
 8001a6c:	b580      	push	{r7, lr}
 8001a6e:	b084      	sub	sp, #16
 8001a70:	af00      	add	r7, sp, #0
 8001a72:	6078      	str	r0, [r7, #4]
 8001a74:	6039      	str	r1, [r7, #0]
    // Decode temperature value of NTC4 (Bytes 0-1)
    // The raw value is in 0.1K.
    // Convert to Celsius: (Value * 0.1) - 273.15
    uint16_t raw_ntc4_temp = (data[0] << 8) | data[1];
 8001a76:	687b      	ldr	r3, [r7, #4]
 8001a78:	781b      	ldrb	r3, [r3, #0]
 8001a7a:	b21b      	sxth	r3, r3
 8001a7c:	021b      	lsls	r3, r3, #8
 8001a7e:	b21a      	sxth	r2, r3
 8001a80:	687b      	ldr	r3, [r7, #4]
 8001a82:	3301      	adds	r3, #1
 8001a84:	781b      	ldrb	r3, [r3, #0]
 8001a86:	b21b      	sxth	r3, r3
 8001a88:	4313      	orrs	r3, r2
 8001a8a:	b21b      	sxth	r3, r3
 8001a8c:	81fb      	strh	r3, [r7, #14]
    msg->NTC4 = (raw_ntc4_temp * 0.1f) - 273.15f;
 8001a8e:	89fb      	ldrh	r3, [r7, #14]
 8001a90:	4618      	mov	r0, r3
 8001a92:	f7fe ffad 	bl	80009f0 <__aeabi_i2f>
 8001a96:	4603      	mov	r3, r0
 8001a98:	492e      	ldr	r1, [pc, #184]	@ (8001b54 <decode_CAN_0x106+0xe8>)
 8001a9a:	4618      	mov	r0, r3
 8001a9c:	f7fe fffc 	bl	8000a98 <__aeabi_fmul>
 8001aa0:	4603      	mov	r3, r0
 8001aa2:	492d      	ldr	r1, [pc, #180]	@ (8001b58 <decode_CAN_0x106+0xec>)
 8001aa4:	4618      	mov	r0, r3
 8001aa6:	f7fe feed 	bl	8000884 <__aeabi_fsub>
 8001aaa:	4603      	mov	r3, r0
 8001aac:	461a      	mov	r2, r3
 8001aae:	683b      	ldr	r3, [r7, #0]
 8001ab0:	601a      	str	r2, [r3, #0]
    // Decode temperature value of NTC5 (Bytes 2-3)
    uint16_t raw_ntc5_temp = (data[2] << 8) | data[3];
 8001ab2:	687b      	ldr	r3, [r7, #4]
 8001ab4:	3302      	adds	r3, #2
 8001ab6:	781b      	ldrb	r3, [r3, #0]
 8001ab8:	b21b      	sxth	r3, r3
 8001aba:	021b      	lsls	r3, r3, #8
 8001abc:	b21a      	sxth	r2, r3
 8001abe:	687b      	ldr	r3, [r7, #4]
 8001ac0:	3303      	adds	r3, #3
 8001ac2:	781b      	ldrb	r3, [r3, #0]
 8001ac4:	b21b      	sxth	r3, r3
 8001ac6:	4313      	orrs	r3, r2
 8001ac8:	b21b      	sxth	r3, r3
 8001aca:	81bb      	strh	r3, [r7, #12]
    msg->NTC5 = (raw_ntc5_temp * 0.1f) - 273.15f;
 8001acc:	89bb      	ldrh	r3, [r7, #12]
 8001ace:	4618      	mov	r0, r3
 8001ad0:	f7fe ff8e 	bl	80009f0 <__aeabi_i2f>
 8001ad4:	4603      	mov	r3, r0
 8001ad6:	491f      	ldr	r1, [pc, #124]	@ (8001b54 <decode_CAN_0x106+0xe8>)
 8001ad8:	4618      	mov	r0, r3
 8001ada:	f7fe ffdd 	bl	8000a98 <__aeabi_fmul>
 8001ade:	4603      	mov	r3, r0
 8001ae0:	491d      	ldr	r1, [pc, #116]	@ (8001b58 <decode_CAN_0x106+0xec>)
 8001ae2:	4618      	mov	r0, r3
 8001ae4:	f7fe fece 	bl	8000884 <__aeabi_fsub>
 8001ae8:	4603      	mov	r3, r0
 8001aea:	461a      	mov	r2, r3
 8001aec:	683b      	ldr	r3, [r7, #0]
 8001aee:	605a      	str	r2, [r3, #4]
    // Decode temperature value of NTC6 (Bytes 4-5)
    uint16_t raw_ntc6_temp = (data[4] << 8) | data[5];
 8001af0:	687b      	ldr	r3, [r7, #4]
 8001af2:	3304      	adds	r3, #4
 8001af4:	781b      	ldrb	r3, [r3, #0]
 8001af6:	b21b      	sxth	r3, r3
 8001af8:	021b      	lsls	r3, r3, #8
 8001afa:	b21a      	sxth	r2, r3
 8001afc:	687b      	ldr	r3, [r7, #4]
 8001afe:	3305      	adds	r3, #5
 8001b00:	781b      	ldrb	r3, [r3, #0]
 8001b02:	b21b      	sxth	r3, r3
 8001b04:	4313      	orrs	r3, r2
 8001b06:	b21b      	sxth	r3, r3
 8001b08:	817b      	strh	r3, [r7, #10]
    msg->NTC6 = (raw_ntc6_temp * 0.1f) - 273.15f;
 8001b0a:	897b      	ldrh	r3, [r7, #10]
 8001b0c:	4618      	mov	r0, r3
 8001b0e:	f7fe ff6f 	bl	80009f0 <__aeabi_i2f>
 8001b12:	4603      	mov	r3, r0
 8001b14:	490f      	ldr	r1, [pc, #60]	@ (8001b54 <decode_CAN_0x106+0xe8>)
 8001b16:	4618      	mov	r0, r3
 8001b18:	f7fe ffbe 	bl	8000a98 <__aeabi_fmul>
 8001b1c:	4603      	mov	r3, r0
 8001b1e:	490e      	ldr	r1, [pc, #56]	@ (8001b58 <decode_CAN_0x106+0xec>)
 8001b20:	4618      	mov	r0, r3
 8001b22:	f7fe feaf 	bl	8000884 <__aeabi_fsub>
 8001b26:	4603      	mov	r3, r0
 8001b28:	461a      	mov	r2, r3
 8001b2a:	683b      	ldr	r3, [r7, #0]
 8001b2c:	609a      	str	r2, [r3, #8]
    // Decode CRC_16 check value (Bytes 6-7)
    msg->CRC_Check = (data[6] << 8) | data[7];
 8001b2e:	687b      	ldr	r3, [r7, #4]
 8001b30:	3306      	adds	r3, #6
 8001b32:	781b      	ldrb	r3, [r3, #0]
 8001b34:	b21b      	sxth	r3, r3
 8001b36:	021b      	lsls	r3, r3, #8
 8001b38:	b21a      	sxth	r2, r3
 8001b3a:	687b      	ldr	r3, [r7, #4]
 8001b3c:	3307      	adds	r3, #7
 8001b3e:	781b      	ldrb	r3, [r3, #0]
 8001b40:	b21b      	sxth	r3, r3
 8001b42:	4313      	orrs	r3, r2
 8001b44:	b21b      	sxth	r3, r3
 8001b46:	b29a      	uxth	r2, r3
 8001b48:	683b      	ldr	r3, [r7, #0]
 8001b4a:	819a      	strh	r2, [r3, #12]
}
 8001b4c:	bf00      	nop
 8001b4e:	3710      	adds	r7, #16
 8001b50:	46bd      	mov	sp, r7
 8001b52:	bd80      	pop	{r7, pc}
 8001b54:	3dcccccd 	.word	0x3dcccccd
 8001b58:	43889333 	.word	0x43889333

08001b5c <decode_CAN_0x107>:
void decode_CAN_0x107(const uint8_t *data, CAN_BMS_0x107_t *msg) {
 8001b5c:	e92d 43b0 	stmdb	sp!, {r4, r5, r7, r8, r9, lr}
 8001b60:	b086      	sub	sp, #24
 8001b62:	af04      	add	r7, sp, #16
 8001b64:	6078      	str	r0, [r7, #4]
 8001b66:	6039      	str	r1, [r7, #0]
    // Decode Cell1 voltage (Bytes 0-1)
    // The value is unsigned and in mV. "High byte first" means big-endian.
    msg->CELL1 = (float)((data[0] << 8) | data[1])/1000.f;
 8001b68:	687b      	ldr	r3, [r7, #4]
 8001b6a:	781b      	ldrb	r3, [r3, #0]
 8001b6c:	021b      	lsls	r3, r3, #8
 8001b6e:	687a      	ldr	r2, [r7, #4]
 8001b70:	3201      	adds	r2, #1
 8001b72:	7812      	ldrb	r2, [r2, #0]
 8001b74:	4313      	orrs	r3, r2
 8001b76:	4618      	mov	r0, r3
 8001b78:	f7fe ff3a 	bl	80009f0 <__aeabi_i2f>
 8001b7c:	4603      	mov	r3, r0
 8001b7e:	4931      	ldr	r1, [pc, #196]	@ (8001c44 <decode_CAN_0x107+0xe8>)
 8001b80:	4618      	mov	r0, r3
 8001b82:	f7ff f83d 	bl	8000c00 <__aeabi_fdiv>
 8001b86:	4603      	mov	r3, r0
 8001b88:	461a      	mov	r2, r3
 8001b8a:	683b      	ldr	r3, [r7, #0]
 8001b8c:	601a      	str	r2, [r3, #0]
    // Decode Cell2 voltage (Bytes 2-3)
    msg->CELL2 = (float)((data[2] << 8) | data[3])/1000.0f;
 8001b8e:	687b      	ldr	r3, [r7, #4]
 8001b90:	3302      	adds	r3, #2
 8001b92:	781b      	ldrb	r3, [r3, #0]
 8001b94:	021b      	lsls	r3, r3, #8
 8001b96:	687a      	ldr	r2, [r7, #4]
 8001b98:	3203      	adds	r2, #3
 8001b9a:	7812      	ldrb	r2, [r2, #0]
 8001b9c:	4313      	orrs	r3, r2
 8001b9e:	4618      	mov	r0, r3
 8001ba0:	f7fe ff26 	bl	80009f0 <__aeabi_i2f>
 8001ba4:	4603      	mov	r3, r0
 8001ba6:	4927      	ldr	r1, [pc, #156]	@ (8001c44 <decode_CAN_0x107+0xe8>)
 8001ba8:	4618      	mov	r0, r3
 8001baa:	f7ff f829 	bl	8000c00 <__aeabi_fdiv>
 8001bae:	4603      	mov	r3, r0
 8001bb0:	461a      	mov	r2, r3
 8001bb2:	683b      	ldr	r3, [r7, #0]
 8001bb4:	605a      	str	r2, [r3, #4]
    // Decode Cell3 voltage (Bytes 4-5)
    msg->CELL3 = (float)((data[4] << 8) | data[5])/1000.0f;
 8001bb6:	687b      	ldr	r3, [r7, #4]
 8001bb8:	3304      	adds	r3, #4
 8001bba:	781b      	ldrb	r3, [r3, #0]
 8001bbc:	021b      	lsls	r3, r3, #8
 8001bbe:	687a      	ldr	r2, [r7, #4]
 8001bc0:	3205      	adds	r2, #5
 8001bc2:	7812      	ldrb	r2, [r2, #0]
 8001bc4:	4313      	orrs	r3, r2
 8001bc6:	4618      	mov	r0, r3
 8001bc8:	f7fe ff12 	bl	80009f0 <__aeabi_i2f>
 8001bcc:	4603      	mov	r3, r0
 8001bce:	491d      	ldr	r1, [pc, #116]	@ (8001c44 <decode_CAN_0x107+0xe8>)
 8001bd0:	4618      	mov	r0, r3
 8001bd2:	f7ff f815 	bl	8000c00 <__aeabi_fdiv>
 8001bd6:	4603      	mov	r3, r0
 8001bd8:	461a      	mov	r2, r3
 8001bda:	683b      	ldr	r3, [r7, #0]
 8001bdc:	609a      	str	r2, [r3, #8]
    // Decode CRC_16 check value (Bytes 6-7)
    msg->CRC_Check = (data[6] << 8) | data[7];
 8001bde:	687b      	ldr	r3, [r7, #4]
 8001be0:	3306      	adds	r3, #6
 8001be2:	781b      	ldrb	r3, [r3, #0]
 8001be4:	b21b      	sxth	r3, r3
 8001be6:	021b      	lsls	r3, r3, #8
 8001be8:	b21a      	sxth	r2, r3
 8001bea:	687b      	ldr	r3, [r7, #4]
 8001bec:	3307      	adds	r3, #7
 8001bee:	781b      	ldrb	r3, [r3, #0]
 8001bf0:	b21b      	sxth	r3, r3
 8001bf2:	4313      	orrs	r3, r2
 8001bf4:	b21b      	sxth	r3, r3
 8001bf6:	b29a      	uxth	r2, r3
 8001bf8:	683b      	ldr	r3, [r7, #0]
 8001bfa:	819a      	strh	r2, [r3, #12]
    uart_printf("CELL1=%.2f v CELL2=%.2f v CELL3=%.2f v \n\r",msg->CELL1,msg->CELL2,msg->CELL3);
 8001bfc:	683b      	ldr	r3, [r7, #0]
 8001bfe:	681b      	ldr	r3, [r3, #0]
 8001c00:	4618      	mov	r0, r3
 8001c02:	f7fe fd33 	bl	800066c <__aeabi_f2d>
 8001c06:	4680      	mov	r8, r0
 8001c08:	4689      	mov	r9, r1
 8001c0a:	683b      	ldr	r3, [r7, #0]
 8001c0c:	685b      	ldr	r3, [r3, #4]
 8001c0e:	4618      	mov	r0, r3
 8001c10:	f7fe fd2c 	bl	800066c <__aeabi_f2d>
 8001c14:	4604      	mov	r4, r0
 8001c16:	460d      	mov	r5, r1
 8001c18:	683b      	ldr	r3, [r7, #0]
 8001c1a:	689b      	ldr	r3, [r3, #8]
 8001c1c:	4618      	mov	r0, r3
 8001c1e:	f7fe fd25 	bl	800066c <__aeabi_f2d>
 8001c22:	4602      	mov	r2, r0
 8001c24:	460b      	mov	r3, r1
 8001c26:	e9cd 2302 	strd	r2, r3, [sp, #8]
 8001c2a:	e9cd 4500 	strd	r4, r5, [sp]
 8001c2e:	4642      	mov	r2, r8
 8001c30:	464b      	mov	r3, r9
 8001c32:	4805      	ldr	r0, [pc, #20]	@ (8001c48 <decode_CAN_0x107+0xec>)
 8001c34:	f002 fece 	bl	80049d4 <uart_printf>
}
 8001c38:	bf00      	nop
 8001c3a:	3708      	adds	r7, #8
 8001c3c:	46bd      	mov	sp, r7
 8001c3e:	e8bd 83b0 	ldmia.w	sp!, {r4, r5, r7, r8, r9, pc}
 8001c42:	bf00      	nop
 8001c44:	447a0000 	.word	0x447a0000
 8001c48:	0800791c 	.word	0x0800791c

08001c4c <decode_CAN_0x108>:

void decode_CAN_0x108(const uint8_t *data, CAN_BMS_0x108_t *msg) {
 8001c4c:	e92d 43b0 	stmdb	sp!, {r4, r5, r7, r8, r9, lr}
 8001c50:	b086      	sub	sp, #24
 8001c52:	af04      	add	r7, sp, #16
 8001c54:	6078      	str	r0, [r7, #4]
 8001c56:	6039      	str	r1, [r7, #0]
    // Decode Cell4 voltage (Bytes 0-1)
    // The value is unsigned and in mV. "High byte first" means big-endian.
    msg->CELL4 =  (float)((data[0] << 8) | data[1])/1000.f;
 8001c58:	687b      	ldr	r3, [r7, #4]
 8001c5a:	781b      	ldrb	r3, [r3, #0]
 8001c5c:	021b      	lsls	r3, r3, #8
 8001c5e:	687a      	ldr	r2, [r7, #4]
 8001c60:	3201      	adds	r2, #1
 8001c62:	7812      	ldrb	r2, [r2, #0]
 8001c64:	4313      	orrs	r3, r2
 8001c66:	4618      	mov	r0, r3
 8001c68:	f7fe fec2 	bl	80009f0 <__aeabi_i2f>
 8001c6c:	4603      	mov	r3, r0
 8001c6e:	4931      	ldr	r1, [pc, #196]	@ (8001d34 <decode_CAN_0x108+0xe8>)
 8001c70:	4618      	mov	r0, r3
 8001c72:	f7fe ffc5 	bl	8000c00 <__aeabi_fdiv>
 8001c76:	4603      	mov	r3, r0
 8001c78:	461a      	mov	r2, r3
 8001c7a:	683b      	ldr	r3, [r7, #0]
 8001c7c:	601a      	str	r2, [r3, #0]

    // Decode Cell5 voltage (Bytes 2-3)
    msg->CELL5 =(float)((data[2] << 8) | data[3])/1000.0f;
 8001c7e:	687b      	ldr	r3, [r7, #4]
 8001c80:	3302      	adds	r3, #2
 8001c82:	781b      	ldrb	r3, [r3, #0]
 8001c84:	021b      	lsls	r3, r3, #8
 8001c86:	687a      	ldr	r2, [r7, #4]
 8001c88:	3203      	adds	r2, #3
 8001c8a:	7812      	ldrb	r2, [r2, #0]
 8001c8c:	4313      	orrs	r3, r2
 8001c8e:	4618      	mov	r0, r3
 8001c90:	f7fe feae 	bl	80009f0 <__aeabi_i2f>
 8001c94:	4603      	mov	r3, r0
 8001c96:	4927      	ldr	r1, [pc, #156]	@ (8001d34 <decode_CAN_0x108+0xe8>)
 8001c98:	4618      	mov	r0, r3
 8001c9a:	f7fe ffb1 	bl	8000c00 <__aeabi_fdiv>
 8001c9e:	4603      	mov	r3, r0
 8001ca0:	461a      	mov	r2, r3
 8001ca2:	683b      	ldr	r3, [r7, #0]
 8001ca4:	605a      	str	r2, [r3, #4]
    // Decode Cell6 voltage (Bytes 4-5)
    msg->CELL6 = (float)((data[4] << 8) | data[5])/1000.0f;
 8001ca6:	687b      	ldr	r3, [r7, #4]
 8001ca8:	3304      	adds	r3, #4
 8001caa:	781b      	ldrb	r3, [r3, #0]
 8001cac:	021b      	lsls	r3, r3, #8
 8001cae:	687a      	ldr	r2, [r7, #4]
 8001cb0:	3205      	adds	r2, #5
 8001cb2:	7812      	ldrb	r2, [r2, #0]
 8001cb4:	4313      	orrs	r3, r2
 8001cb6:	4618      	mov	r0, r3
 8001cb8:	f7fe fe9a 	bl	80009f0 <__aeabi_i2f>
 8001cbc:	4603      	mov	r3, r0
 8001cbe:	491d      	ldr	r1, [pc, #116]	@ (8001d34 <decode_CAN_0x108+0xe8>)
 8001cc0:	4618      	mov	r0, r3
 8001cc2:	f7fe ff9d 	bl	8000c00 <__aeabi_fdiv>
 8001cc6:	4603      	mov	r3, r0
 8001cc8:	461a      	mov	r2, r3
 8001cca:	683b      	ldr	r3, [r7, #0]
 8001ccc:	609a      	str	r2, [r3, #8]

    // Decode CRC_16 check value (Bytes 6-7)
    msg->CRC_Check = (data[6] << 8) | data[7];
 8001cce:	687b      	ldr	r3, [r7, #4]
 8001cd0:	3306      	adds	r3, #6
 8001cd2:	781b      	ldrb	r3, [r3, #0]
 8001cd4:	b21b      	sxth	r3, r3
 8001cd6:	021b      	lsls	r3, r3, #8
 8001cd8:	b21a      	sxth	r2, r3
 8001cda:	687b      	ldr	r3, [r7, #4]
 8001cdc:	3307      	adds	r3, #7
 8001cde:	781b      	ldrb	r3, [r3, #0]
 8001ce0:	b21b      	sxth	r3, r3
 8001ce2:	4313      	orrs	r3, r2
 8001ce4:	b21b      	sxth	r3, r3
 8001ce6:	b29a      	uxth	r2, r3
 8001ce8:	683b      	ldr	r3, [r7, #0]
 8001cea:	819a      	strh	r2, [r3, #12]
    uart_printf("CELL4=%.2f v CELL5=%.2f v CELL6=%.2f v \n\r",msg->CELL4,msg->CELL5,msg->CELL6);
 8001cec:	683b      	ldr	r3, [r7, #0]
 8001cee:	681b      	ldr	r3, [r3, #0]
 8001cf0:	4618      	mov	r0, r3
 8001cf2:	f7fe fcbb 	bl	800066c <__aeabi_f2d>
 8001cf6:	4680      	mov	r8, r0
 8001cf8:	4689      	mov	r9, r1
 8001cfa:	683b      	ldr	r3, [r7, #0]
 8001cfc:	685b      	ldr	r3, [r3, #4]
 8001cfe:	4618      	mov	r0, r3
 8001d00:	f7fe fcb4 	bl	800066c <__aeabi_f2d>
 8001d04:	4604      	mov	r4, r0
 8001d06:	460d      	mov	r5, r1
 8001d08:	683b      	ldr	r3, [r7, #0]
 8001d0a:	689b      	ldr	r3, [r3, #8]
 8001d0c:	4618      	mov	r0, r3
 8001d0e:	f7fe fcad 	bl	800066c <__aeabi_f2d>
 8001d12:	4602      	mov	r2, r0
 8001d14:	460b      	mov	r3, r1
 8001d16:	e9cd 2302 	strd	r2, r3, [sp, #8]
 8001d1a:	e9cd 4500 	strd	r4, r5, [sp]
 8001d1e:	4642      	mov	r2, r8
 8001d20:	464b      	mov	r3, r9
 8001d22:	4805      	ldr	r0, [pc, #20]	@ (8001d38 <decode_CAN_0x108+0xec>)
 8001d24:	f002 fe56 	bl	80049d4 <uart_printf>
}
 8001d28:	bf00      	nop
 8001d2a:	3708      	adds	r7, #8
 8001d2c:	46bd      	mov	sp, r7
 8001d2e:	e8bd 83b0 	ldmia.w	sp!, {r4, r5, r7, r8, r9, pc}
 8001d32:	bf00      	nop
 8001d34:	447a0000 	.word	0x447a0000
 8001d38:	08007948 	.word	0x08007948

08001d3c <decode_CAN_0x109>:
void decode_CAN_0x109(const uint8_t *data, CAN_BMS_0x109_t *msg) {
 8001d3c:	e92d 43b0 	stmdb	sp!, {r4, r5, r7, r8, r9, lr}
 8001d40:	b086      	sub	sp, #24
 8001d42:	af04      	add	r7, sp, #16
 8001d44:	6078      	str	r0, [r7, #4]
 8001d46:	6039      	str	r1, [r7, #0]
    // Decode Cell6 voltage (Bytes 0-1)
    // The value is unsigned and in mV. "High byte first" means big-endian.
    msg->CELL7 = (float)((data[0] << 8) | data[1])/1000.f;
 8001d48:	687b      	ldr	r3, [r7, #4]
 8001d4a:	781b      	ldrb	r3, [r3, #0]
 8001d4c:	021b      	lsls	r3, r3, #8
 8001d4e:	687a      	ldr	r2, [r7, #4]
 8001d50:	3201      	adds	r2, #1
 8001d52:	7812      	ldrb	r2, [r2, #0]
 8001d54:	4313      	orrs	r3, r2
 8001d56:	4618      	mov	r0, r3
 8001d58:	f7fe fe4a 	bl	80009f0 <__aeabi_i2f>
 8001d5c:	4603      	mov	r3, r0
 8001d5e:	4931      	ldr	r1, [pc, #196]	@ (8001e24 <decode_CAN_0x109+0xe8>)
 8001d60:	4618      	mov	r0, r3
 8001d62:	f7fe ff4d 	bl	8000c00 <__aeabi_fdiv>
 8001d66:	4603      	mov	r3, r0
 8001d68:	461a      	mov	r2, r3
 8001d6a:	683b      	ldr	r3, [r7, #0]
 8001d6c:	601a      	str	r2, [r3, #0]
    // Decode Cell7 voltage (Bytes 2-3)
    msg->CELL8 = (float)((data[2] << 8) | data[3])/1000.0f;
 8001d6e:	687b      	ldr	r3, [r7, #4]
 8001d70:	3302      	adds	r3, #2
 8001d72:	781b      	ldrb	r3, [r3, #0]
 8001d74:	021b      	lsls	r3, r3, #8
 8001d76:	687a      	ldr	r2, [r7, #4]
 8001d78:	3203      	adds	r2, #3
 8001d7a:	7812      	ldrb	r2, [r2, #0]
 8001d7c:	4313      	orrs	r3, r2
 8001d7e:	4618      	mov	r0, r3
 8001d80:	f7fe fe36 	bl	80009f0 <__aeabi_i2f>
 8001d84:	4603      	mov	r3, r0
 8001d86:	4927      	ldr	r1, [pc, #156]	@ (8001e24 <decode_CAN_0x109+0xe8>)
 8001d88:	4618      	mov	r0, r3
 8001d8a:	f7fe ff39 	bl	8000c00 <__aeabi_fdiv>
 8001d8e:	4603      	mov	r3, r0
 8001d90:	461a      	mov	r2, r3
 8001d92:	683b      	ldr	r3, [r7, #0]
 8001d94:	605a      	str	r2, [r3, #4]

    // Decode Cell8 voltage (Bytes 4-5)
    msg->CELL9 = (float)((data[4] << 8) | data[5])/1000.0f;
 8001d96:	687b      	ldr	r3, [r7, #4]
 8001d98:	3304      	adds	r3, #4
 8001d9a:	781b      	ldrb	r3, [r3, #0]
 8001d9c:	021b      	lsls	r3, r3, #8
 8001d9e:	687a      	ldr	r2, [r7, #4]
 8001da0:	3205      	adds	r2, #5
 8001da2:	7812      	ldrb	r2, [r2, #0]
 8001da4:	4313      	orrs	r3, r2
 8001da6:	4618      	mov	r0, r3
 8001da8:	f7fe fe22 	bl	80009f0 <__aeabi_i2f>
 8001dac:	4603      	mov	r3, r0
 8001dae:	491d      	ldr	r1, [pc, #116]	@ (8001e24 <decode_CAN_0x109+0xe8>)
 8001db0:	4618      	mov	r0, r3
 8001db2:	f7fe ff25 	bl	8000c00 <__aeabi_fdiv>
 8001db6:	4603      	mov	r3, r0
 8001db8:	461a      	mov	r2, r3
 8001dba:	683b      	ldr	r3, [r7, #0]
 8001dbc:	609a      	str	r2, [r3, #8]

    // Decode CRC_16 check value (Bytes 6-7)
    msg->CRC_Check = (data[6] << 8) | data[7];
 8001dbe:	687b      	ldr	r3, [r7, #4]
 8001dc0:	3306      	adds	r3, #6
 8001dc2:	781b      	ldrb	r3, [r3, #0]
 8001dc4:	b21b      	sxth	r3, r3
 8001dc6:	021b      	lsls	r3, r3, #8
 8001dc8:	b21a      	sxth	r2, r3
 8001dca:	687b      	ldr	r3, [r7, #4]
 8001dcc:	3307      	adds	r3, #7
 8001dce:	781b      	ldrb	r3, [r3, #0]
 8001dd0:	b21b      	sxth	r3, r3
 8001dd2:	4313      	orrs	r3, r2
 8001dd4:	b21b      	sxth	r3, r3
 8001dd6:	b29a      	uxth	r2, r3
 8001dd8:	683b      	ldr	r3, [r7, #0]
 8001dda:	819a      	strh	r2, [r3, #12]
    uart_printf("CELL7=%.2f v CELL8=%.2f v CELL9=%.2f v \n\r",msg->CELL7,msg->CELL8,msg->CELL9);
 8001ddc:	683b      	ldr	r3, [r7, #0]
 8001dde:	681b      	ldr	r3, [r3, #0]
 8001de0:	4618      	mov	r0, r3
 8001de2:	f7fe fc43 	bl	800066c <__aeabi_f2d>
 8001de6:	4680      	mov	r8, r0
 8001de8:	4689      	mov	r9, r1
 8001dea:	683b      	ldr	r3, [r7, #0]
 8001dec:	685b      	ldr	r3, [r3, #4]
 8001dee:	4618      	mov	r0, r3
 8001df0:	f7fe fc3c 	bl	800066c <__aeabi_f2d>
 8001df4:	4604      	mov	r4, r0
 8001df6:	460d      	mov	r5, r1
 8001df8:	683b      	ldr	r3, [r7, #0]
 8001dfa:	689b      	ldr	r3, [r3, #8]
 8001dfc:	4618      	mov	r0, r3
 8001dfe:	f7fe fc35 	bl	800066c <__aeabi_f2d>
 8001e02:	4602      	mov	r2, r0
 8001e04:	460b      	mov	r3, r1
 8001e06:	e9cd 2302 	strd	r2, r3, [sp, #8]
 8001e0a:	e9cd 4500 	strd	r4, r5, [sp]
 8001e0e:	4642      	mov	r2, r8
 8001e10:	464b      	mov	r3, r9
 8001e12:	4805      	ldr	r0, [pc, #20]	@ (8001e28 <decode_CAN_0x109+0xec>)
 8001e14:	f002 fdde 	bl	80049d4 <uart_printf>
}
 8001e18:	bf00      	nop
 8001e1a:	3708      	adds	r7, #8
 8001e1c:	46bd      	mov	sp, r7
 8001e1e:	e8bd 83b0 	ldmia.w	sp!, {r4, r5, r7, r8, r9, pc}
 8001e22:	bf00      	nop
 8001e24:	447a0000 	.word	0x447a0000
 8001e28:	08007974 	.word	0x08007974

08001e2c <decode_CAN_0x10A>:
void decode_CAN_0x10A(const uint8_t *data, CAN_BMS_0x10A_t *msg) {
 8001e2c:	e92d 43b0 	stmdb	sp!, {r4, r5, r7, r8, r9, lr}
 8001e30:	b086      	sub	sp, #24
 8001e32:	af04      	add	r7, sp, #16
 8001e34:	6078      	str	r0, [r7, #4]
 8001e36:	6039      	str	r1, [r7, #0]
    // Decode Cell10 voltage (Bytes 0-1)
    // The value is unsigned and in mV. "High byte first" means big-endian.
    msg->CELL10 =  (float)((data[0] << 8) | data[1])/1000.f;
 8001e38:	687b      	ldr	r3, [r7, #4]
 8001e3a:	781b      	ldrb	r3, [r3, #0]
 8001e3c:	021b      	lsls	r3, r3, #8
 8001e3e:	687a      	ldr	r2, [r7, #4]
 8001e40:	3201      	adds	r2, #1
 8001e42:	7812      	ldrb	r2, [r2, #0]
 8001e44:	4313      	orrs	r3, r2
 8001e46:	4618      	mov	r0, r3
 8001e48:	f7fe fdd2 	bl	80009f0 <__aeabi_i2f>
 8001e4c:	4603      	mov	r3, r0
 8001e4e:	4931      	ldr	r1, [pc, #196]	@ (8001f14 <decode_CAN_0x10A+0xe8>)
 8001e50:	4618      	mov	r0, r3
 8001e52:	f7fe fed5 	bl	8000c00 <__aeabi_fdiv>
 8001e56:	4603      	mov	r3, r0
 8001e58:	461a      	mov	r2, r3
 8001e5a:	683b      	ldr	r3, [r7, #0]
 8001e5c:	601a      	str	r2, [r3, #0]

    // Decode Cell11 voltage (Bytes 2-3)
    msg->CELL11 = (float)((data[2] << 8) | data[3])/1000.0f;
 8001e5e:	687b      	ldr	r3, [r7, #4]
 8001e60:	3302      	adds	r3, #2
 8001e62:	781b      	ldrb	r3, [r3, #0]
 8001e64:	021b      	lsls	r3, r3, #8
 8001e66:	687a      	ldr	r2, [r7, #4]
 8001e68:	3203      	adds	r2, #3
 8001e6a:	7812      	ldrb	r2, [r2, #0]
 8001e6c:	4313      	orrs	r3, r2
 8001e6e:	4618      	mov	r0, r3
 8001e70:	f7fe fdbe 	bl	80009f0 <__aeabi_i2f>
 8001e74:	4603      	mov	r3, r0
 8001e76:	4927      	ldr	r1, [pc, #156]	@ (8001f14 <decode_CAN_0x10A+0xe8>)
 8001e78:	4618      	mov	r0, r3
 8001e7a:	f7fe fec1 	bl	8000c00 <__aeabi_fdiv>
 8001e7e:	4603      	mov	r3, r0
 8001e80:	461a      	mov	r2, r3
 8001e82:	683b      	ldr	r3, [r7, #0]
 8001e84:	605a      	str	r2, [r3, #4]

    // Decode Cell12 voltage (Bytes 4-5)
    msg->CELL12 = (float)((data[4] << 8) | data[5])/1000.0f;
 8001e86:	687b      	ldr	r3, [r7, #4]
 8001e88:	3304      	adds	r3, #4
 8001e8a:	781b      	ldrb	r3, [r3, #0]
 8001e8c:	021b      	lsls	r3, r3, #8
 8001e8e:	687a      	ldr	r2, [r7, #4]
 8001e90:	3205      	adds	r2, #5
 8001e92:	7812      	ldrb	r2, [r2, #0]
 8001e94:	4313      	orrs	r3, r2
 8001e96:	4618      	mov	r0, r3
 8001e98:	f7fe fdaa 	bl	80009f0 <__aeabi_i2f>
 8001e9c:	4603      	mov	r3, r0
 8001e9e:	491d      	ldr	r1, [pc, #116]	@ (8001f14 <decode_CAN_0x10A+0xe8>)
 8001ea0:	4618      	mov	r0, r3
 8001ea2:	f7fe fead 	bl	8000c00 <__aeabi_fdiv>
 8001ea6:	4603      	mov	r3, r0
 8001ea8:	461a      	mov	r2, r3
 8001eaa:	683b      	ldr	r3, [r7, #0]
 8001eac:	609a      	str	r2, [r3, #8]

    // Decode CRC_16 check value (Bytes 6-7)
    msg->CRC_Check = (data[6] << 8) | data[7];
 8001eae:	687b      	ldr	r3, [r7, #4]
 8001eb0:	3306      	adds	r3, #6
 8001eb2:	781b      	ldrb	r3, [r3, #0]
 8001eb4:	b21b      	sxth	r3, r3
 8001eb6:	021b      	lsls	r3, r3, #8
 8001eb8:	b21a      	sxth	r2, r3
 8001eba:	687b      	ldr	r3, [r7, #4]
 8001ebc:	3307      	adds	r3, #7
 8001ebe:	781b      	ldrb	r3, [r3, #0]
 8001ec0:	b21b      	sxth	r3, r3
 8001ec2:	4313      	orrs	r3, r2
 8001ec4:	b21b      	sxth	r3, r3
 8001ec6:	b29a      	uxth	r2, r3
 8001ec8:	683b      	ldr	r3, [r7, #0]
 8001eca:	819a      	strh	r2, [r3, #12]
    uart_printf("CELL10=%.2f v CELL11=%.2f v CELL12=%.2f v \n\r",msg->CELL10,msg->CELL11,msg->CELL12);
 8001ecc:	683b      	ldr	r3, [r7, #0]
 8001ece:	681b      	ldr	r3, [r3, #0]
 8001ed0:	4618      	mov	r0, r3
 8001ed2:	f7fe fbcb 	bl	800066c <__aeabi_f2d>
 8001ed6:	4680      	mov	r8, r0
 8001ed8:	4689      	mov	r9, r1
 8001eda:	683b      	ldr	r3, [r7, #0]
 8001edc:	685b      	ldr	r3, [r3, #4]
 8001ede:	4618      	mov	r0, r3
 8001ee0:	f7fe fbc4 	bl	800066c <__aeabi_f2d>
 8001ee4:	4604      	mov	r4, r0
 8001ee6:	460d      	mov	r5, r1
 8001ee8:	683b      	ldr	r3, [r7, #0]
 8001eea:	689b      	ldr	r3, [r3, #8]
 8001eec:	4618      	mov	r0, r3
 8001eee:	f7fe fbbd 	bl	800066c <__aeabi_f2d>
 8001ef2:	4602      	mov	r2, r0
 8001ef4:	460b      	mov	r3, r1
 8001ef6:	e9cd 2302 	strd	r2, r3, [sp, #8]
 8001efa:	e9cd 4500 	strd	r4, r5, [sp]
 8001efe:	4642      	mov	r2, r8
 8001f00:	464b      	mov	r3, r9
 8001f02:	4805      	ldr	r0, [pc, #20]	@ (8001f18 <decode_CAN_0x10A+0xec>)
 8001f04:	f002 fd66 	bl	80049d4 <uart_printf>
}
 8001f08:	bf00      	nop
 8001f0a:	3708      	adds	r7, #8
 8001f0c:	46bd      	mov	sp, r7
 8001f0e:	e8bd 83b0 	ldmia.w	sp!, {r4, r5, r7, r8, r9, pc}
 8001f12:	bf00      	nop
 8001f14:	447a0000 	.word	0x447a0000
 8001f18:	080079a0 	.word	0x080079a0

08001f1c <decode_CAN_0x10B>:
void decode_CAN_0x10B(const uint8_t *data, CAN_BMS_0x10B_t *msg) {
 8001f1c:	e92d 43b0 	stmdb	sp!, {r4, r5, r7, r8, r9, lr}
 8001f20:	b086      	sub	sp, #24
 8001f22:	af04      	add	r7, sp, #16
 8001f24:	6078      	str	r0, [r7, #4]
 8001f26:	6039      	str	r1, [r7, #0]
    // Decode Cell13 voltage (Bytes 0-1)
    // The value is unsigned and in mV. "High byte first" means big-endian.
    msg->CELL13 =  (float)((data[0] << 8) | data[1])/1000.f;
 8001f28:	687b      	ldr	r3, [r7, #4]
 8001f2a:	781b      	ldrb	r3, [r3, #0]
 8001f2c:	021b      	lsls	r3, r3, #8
 8001f2e:	687a      	ldr	r2, [r7, #4]
 8001f30:	3201      	adds	r2, #1
 8001f32:	7812      	ldrb	r2, [r2, #0]
 8001f34:	4313      	orrs	r3, r2
 8001f36:	4618      	mov	r0, r3
 8001f38:	f7fe fd5a 	bl	80009f0 <__aeabi_i2f>
 8001f3c:	4603      	mov	r3, r0
 8001f3e:	4931      	ldr	r1, [pc, #196]	@ (8002004 <decode_CAN_0x10B+0xe8>)
 8001f40:	4618      	mov	r0, r3
 8001f42:	f7fe fe5d 	bl	8000c00 <__aeabi_fdiv>
 8001f46:	4603      	mov	r3, r0
 8001f48:	461a      	mov	r2, r3
 8001f4a:	683b      	ldr	r3, [r7, #0]
 8001f4c:	601a      	str	r2, [r3, #0]
    // Decode Cell14 voltage (Bytes 2-3)
    msg->CELL14 = (float)((data[2] << 8) | data[3])/1000.0f;
 8001f4e:	687b      	ldr	r3, [r7, #4]
 8001f50:	3302      	adds	r3, #2
 8001f52:	781b      	ldrb	r3, [r3, #0]
 8001f54:	021b      	lsls	r3, r3, #8
 8001f56:	687a      	ldr	r2, [r7, #4]
 8001f58:	3203      	adds	r2, #3
 8001f5a:	7812      	ldrb	r2, [r2, #0]
 8001f5c:	4313      	orrs	r3, r2
 8001f5e:	4618      	mov	r0, r3
 8001f60:	f7fe fd46 	bl	80009f0 <__aeabi_i2f>
 8001f64:	4603      	mov	r3, r0
 8001f66:	4927      	ldr	r1, [pc, #156]	@ (8002004 <decode_CAN_0x10B+0xe8>)
 8001f68:	4618      	mov	r0, r3
 8001f6a:	f7fe fe49 	bl	8000c00 <__aeabi_fdiv>
 8001f6e:	4603      	mov	r3, r0
 8001f70:	461a      	mov	r2, r3
 8001f72:	683b      	ldr	r3, [r7, #0]
 8001f74:	605a      	str	r2, [r3, #4]
    // Decode Cell15 voltage (Bytes 4-5)
    msg->CELL15 = (float)((data[4] << 8) | data[5])/1000.0f;
 8001f76:	687b      	ldr	r3, [r7, #4]
 8001f78:	3304      	adds	r3, #4
 8001f7a:	781b      	ldrb	r3, [r3, #0]
 8001f7c:	021b      	lsls	r3, r3, #8
 8001f7e:	687a      	ldr	r2, [r7, #4]
 8001f80:	3205      	adds	r2, #5
 8001f82:	7812      	ldrb	r2, [r2, #0]
 8001f84:	4313      	orrs	r3, r2
 8001f86:	4618      	mov	r0, r3
 8001f88:	f7fe fd32 	bl	80009f0 <__aeabi_i2f>
 8001f8c:	4603      	mov	r3, r0
 8001f8e:	491d      	ldr	r1, [pc, #116]	@ (8002004 <decode_CAN_0x10B+0xe8>)
 8001f90:	4618      	mov	r0, r3
 8001f92:	f7fe fe35 	bl	8000c00 <__aeabi_fdiv>
 8001f96:	4603      	mov	r3, r0
 8001f98:	461a      	mov	r2, r3
 8001f9a:	683b      	ldr	r3, [r7, #0]
 8001f9c:	609a      	str	r2, [r3, #8]
    // Decode CRC_16 check value (Bytes 6-7)
    msg->CRC_Check = (data[6] << 8) | data[7];
 8001f9e:	687b      	ldr	r3, [r7, #4]
 8001fa0:	3306      	adds	r3, #6
 8001fa2:	781b      	ldrb	r3, [r3, #0]
 8001fa4:	b21b      	sxth	r3, r3
 8001fa6:	021b      	lsls	r3, r3, #8
 8001fa8:	b21a      	sxth	r2, r3
 8001faa:	687b      	ldr	r3, [r7, #4]
 8001fac:	3307      	adds	r3, #7
 8001fae:	781b      	ldrb	r3, [r3, #0]
 8001fb0:	b21b      	sxth	r3, r3
 8001fb2:	4313      	orrs	r3, r2
 8001fb4:	b21b      	sxth	r3, r3
 8001fb6:	b29a      	uxth	r2, r3
 8001fb8:	683b      	ldr	r3, [r7, #0]
 8001fba:	819a      	strh	r2, [r3, #12]
    uart_printf("CELL13=%.2f v CELL14=%.2f v CELL15=%.2f v \n\r",msg->CELL13,msg->CELL14,msg->CELL15);
 8001fbc:	683b      	ldr	r3, [r7, #0]
 8001fbe:	681b      	ldr	r3, [r3, #0]
 8001fc0:	4618      	mov	r0, r3
 8001fc2:	f7fe fb53 	bl	800066c <__aeabi_f2d>
 8001fc6:	4680      	mov	r8, r0
 8001fc8:	4689      	mov	r9, r1
 8001fca:	683b      	ldr	r3, [r7, #0]
 8001fcc:	685b      	ldr	r3, [r3, #4]
 8001fce:	4618      	mov	r0, r3
 8001fd0:	f7fe fb4c 	bl	800066c <__aeabi_f2d>
 8001fd4:	4604      	mov	r4, r0
 8001fd6:	460d      	mov	r5, r1
 8001fd8:	683b      	ldr	r3, [r7, #0]
 8001fda:	689b      	ldr	r3, [r3, #8]
 8001fdc:	4618      	mov	r0, r3
 8001fde:	f7fe fb45 	bl	800066c <__aeabi_f2d>
 8001fe2:	4602      	mov	r2, r0
 8001fe4:	460b      	mov	r3, r1
 8001fe6:	e9cd 2302 	strd	r2, r3, [sp, #8]
 8001fea:	e9cd 4500 	strd	r4, r5, [sp]
 8001fee:	4642      	mov	r2, r8
 8001ff0:	464b      	mov	r3, r9
 8001ff2:	4805      	ldr	r0, [pc, #20]	@ (8002008 <decode_CAN_0x10B+0xec>)
 8001ff4:	f002 fcee 	bl	80049d4 <uart_printf>
}
 8001ff8:	bf00      	nop
 8001ffa:	3708      	adds	r7, #8
 8001ffc:	46bd      	mov	sp, r7
 8001ffe:	e8bd 83b0 	ldmia.w	sp!, {r4, r5, r7, r8, r9, pc}
 8002002:	bf00      	nop
 8002004:	447a0000 	.word	0x447a0000
 8002008:	080079d0 	.word	0x080079d0

0800200c <decode_CAN_0x10C>:
void decode_CAN_0x10C(const uint8_t *data, CAN_BMS_0x10C_t *msg) {
 800200c:	b580      	push	{r7, lr}
 800200e:	b082      	sub	sp, #8
 8002010:	af00      	add	r7, sp, #0
 8002012:	6078      	str	r0, [r7, #4]
 8002014:	6039      	str	r1, [r7, #0]
    // Decode Cell16 voltage (Bytes 0-1)
    // The value is unsigned and in mV. "High byte first" means big-endian.
    msg->CELL16 =  (float)((data[0] << 8) | data[1])/1000.f;
 8002016:	687b      	ldr	r3, [r7, #4]
 8002018:	781b      	ldrb	r3, [r3, #0]
 800201a:	021b      	lsls	r3, r3, #8
 800201c:	687a      	ldr	r2, [r7, #4]
 800201e:	3201      	adds	r2, #1
 8002020:	7812      	ldrb	r2, [r2, #0]
 8002022:	4313      	orrs	r3, r2
 8002024:	4618      	mov	r0, r3
 8002026:	f7fe fce3 	bl	80009f0 <__aeabi_i2f>
 800202a:	4603      	mov	r3, r0
 800202c:	4926      	ldr	r1, [pc, #152]	@ (80020c8 <decode_CAN_0x10C+0xbc>)
 800202e:	4618      	mov	r0, r3
 8002030:	f7fe fde6 	bl	8000c00 <__aeabi_fdiv>
 8002034:	4603      	mov	r3, r0
 8002036:	461a      	mov	r2, r3
 8002038:	683b      	ldr	r3, [r7, #0]
 800203a:	601a      	str	r2, [r3, #0]

    // Decode Cell17 voltage (Bytes 2-3)
    msg->CELL17 = (float)((data[2] << 8) | data[3])/1000.0f;
 800203c:	687b      	ldr	r3, [r7, #4]
 800203e:	3302      	adds	r3, #2
 8002040:	781b      	ldrb	r3, [r3, #0]
 8002042:	021b      	lsls	r3, r3, #8
 8002044:	687a      	ldr	r2, [r7, #4]
 8002046:	3203      	adds	r2, #3
 8002048:	7812      	ldrb	r2, [r2, #0]
 800204a:	4313      	orrs	r3, r2
 800204c:	4618      	mov	r0, r3
 800204e:	f7fe fccf 	bl	80009f0 <__aeabi_i2f>
 8002052:	4603      	mov	r3, r0
 8002054:	491c      	ldr	r1, [pc, #112]	@ (80020c8 <decode_CAN_0x10C+0xbc>)
 8002056:	4618      	mov	r0, r3
 8002058:	f7fe fdd2 	bl	8000c00 <__aeabi_fdiv>
 800205c:	4603      	mov	r3, r0
 800205e:	461a      	mov	r2, r3
 8002060:	683b      	ldr	r3, [r7, #0]
 8002062:	605a      	str	r2, [r3, #4]

    // Decode Cell3 voltage (Bytes 4-5)
    msg->CELL18 = (float)((data[4] << 8) | data[5])/1000.0f;
 8002064:	687b      	ldr	r3, [r7, #4]
 8002066:	3304      	adds	r3, #4
 8002068:	781b      	ldrb	r3, [r3, #0]
 800206a:	021b      	lsls	r3, r3, #8
 800206c:	687a      	ldr	r2, [r7, #4]
 800206e:	3205      	adds	r2, #5
 8002070:	7812      	ldrb	r2, [r2, #0]
 8002072:	4313      	orrs	r3, r2
 8002074:	4618      	mov	r0, r3
 8002076:	f7fe fcbb 	bl	80009f0 <__aeabi_i2f>
 800207a:	4603      	mov	r3, r0
 800207c:	4912      	ldr	r1, [pc, #72]	@ (80020c8 <decode_CAN_0x10C+0xbc>)
 800207e:	4618      	mov	r0, r3
 8002080:	f7fe fdbe 	bl	8000c00 <__aeabi_fdiv>
 8002084:	4603      	mov	r3, r0
 8002086:	461a      	mov	r2, r3
 8002088:	683b      	ldr	r3, [r7, #0]
 800208a:	609a      	str	r2, [r3, #8]

    // Decode CRC_16 check value (Bytes 6-7)
    msg->CRC_Check = (data[6] << 8) | data[7];
 800208c:	687b      	ldr	r3, [r7, #4]
 800208e:	3306      	adds	r3, #6
 8002090:	781b      	ldrb	r3, [r3, #0]
 8002092:	b21b      	sxth	r3, r3
 8002094:	021b      	lsls	r3, r3, #8
 8002096:	b21a      	sxth	r2, r3
 8002098:	687b      	ldr	r3, [r7, #4]
 800209a:	3307      	adds	r3, #7
 800209c:	781b      	ldrb	r3, [r3, #0]
 800209e:	b21b      	sxth	r3, r3
 80020a0:	4313      	orrs	r3, r2
 80020a2:	b21b      	sxth	r3, r3
 80020a4:	b29a      	uxth	r2, r3
 80020a6:	683b      	ldr	r3, [r7, #0]
 80020a8:	819a      	strh	r2, [r3, #12]
    uart_printf("CELL16=%.2f v \n\r",msg->CELL16);
 80020aa:	683b      	ldr	r3, [r7, #0]
 80020ac:	681b      	ldr	r3, [r3, #0]
 80020ae:	4618      	mov	r0, r3
 80020b0:	f7fe fadc 	bl	800066c <__aeabi_f2d>
 80020b4:	4602      	mov	r2, r0
 80020b6:	460b      	mov	r3, r1
 80020b8:	4804      	ldr	r0, [pc, #16]	@ (80020cc <decode_CAN_0x10C+0xc0>)
 80020ba:	f002 fc8b 	bl	80049d4 <uart_printf>
}
 80020be:	bf00      	nop
 80020c0:	3708      	adds	r7, #8
 80020c2:	46bd      	mov	sp, r7
 80020c4:	bd80      	pop	{r7, pc}
 80020c6:	bf00      	nop
 80020c8:	447a0000 	.word	0x447a0000
 80020cc:	08007a00 	.word	0x08007a00

080020d0 <matel_mcu_process_can_frame>:
#include"MCU_ELECTROCATLYST.h"
#include"can.h"
#include"uart.h"

DBC_AllMessages_t msg;
void matel_mcu_process_can_frame(can_frame_t *frame){
 80020d0:	b580      	push	{r7, lr}
 80020d2:	b082      	sub	sp, #8
 80020d4:	af00      	add	r7, sp, #0
 80020d6:	6078      	str	r0, [r7, #4]
	switch(frame->id){
 80020d8:	687b      	ldr	r3, [r7, #4]
 80020da:	681b      	ldr	r3, [r3, #0]
 80020dc:	f1b3 4f40 	cmp.w	r3, #3221225472	@ 0xc0000000
 80020e0:	d073      	beq.n	80021ca <matel_mcu_process_can_frame+0xfa>
 80020e2:	f1b3 4f40 	cmp.w	r3, #3221225472	@ 0xc0000000
 80020e6:	d871      	bhi.n	80021cc <matel_mcu_process_can_frame+0xfc>
 80020e8:	4a3a      	ldr	r2, [pc, #232]	@ (80021d4 <matel_mcu_process_can_frame+0x104>)
 80020ea:	4293      	cmp	r3, r2
 80020ec:	d066      	beq.n	80021bc <matel_mcu_process_can_frame+0xec>
 80020ee:	4a39      	ldr	r2, [pc, #228]	@ (80021d4 <matel_mcu_process_can_frame+0x104>)
 80020f0:	4293      	cmp	r3, r2
 80020f2:	d86b      	bhi.n	80021cc <matel_mcu_process_can_frame+0xfc>
 80020f4:	4a38      	ldr	r2, [pc, #224]	@ (80021d8 <matel_mcu_process_can_frame+0x108>)
 80020f6:	4293      	cmp	r3, r2
 80020f8:	d059      	beq.n	80021ae <matel_mcu_process_can_frame+0xde>
 80020fa:	4a37      	ldr	r2, [pc, #220]	@ (80021d8 <matel_mcu_process_can_frame+0x108>)
 80020fc:	4293      	cmp	r3, r2
 80020fe:	d865      	bhi.n	80021cc <matel_mcu_process_can_frame+0xfc>
 8002100:	2bb3      	cmp	r3, #179	@ 0xb3
 8002102:	d82d      	bhi.n	8002160 <matel_mcu_process_can_frame+0x90>
 8002104:	2ba1      	cmp	r3, #161	@ 0xa1
 8002106:	d361      	bcc.n	80021cc <matel_mcu_process_can_frame+0xfc>
 8002108:	3ba1      	subs	r3, #161	@ 0xa1
 800210a:	2b12      	cmp	r3, #18
 800210c:	d85e      	bhi.n	80021cc <matel_mcu_process_can_frame+0xfc>
 800210e:	a201      	add	r2, pc, #4	@ (adr r2, 8002114 <matel_mcu_process_can_frame+0x44>)
 8002110:	f852 f023 	ldr.w	pc, [r2, r3, lsl #2]
 8002114:	08002169 	.word	0x08002169
 8002118:	080021cd 	.word	0x080021cd
 800211c:	080021cd 	.word	0x080021cd
 8002120:	080021cd 	.word	0x080021cd
 8002124:	080021cd 	.word	0x080021cd
 8002128:	080021cd 	.word	0x080021cd
 800212c:	080021cd 	.word	0x080021cd
 8002130:	080021cd 	.word	0x080021cd
 8002134:	080021cd 	.word	0x080021cd
 8002138:	080021cd 	.word	0x080021cd
 800213c:	080021cd 	.word	0x080021cd
 8002140:	080021cd 	.word	0x080021cd
 8002144:	080021cd 	.word	0x080021cd
 8002148:	08002177 	.word	0x08002177
 800214c:	08002185 	.word	0x08002185
 8002150:	080021cd 	.word	0x080021cd
 8002154:	080021cd 	.word	0x080021cd
 8002158:	080021cd 	.word	0x080021cd
 800215c:	08002193 	.word	0x08002193
 8002160:	4a1e      	ldr	r2, [pc, #120]	@ (80021dc <matel_mcu_process_can_frame+0x10c>)
 8002162:	4293      	cmp	r3, r2
 8002164:	d01c      	beq.n	80021a0 <matel_mcu_process_can_frame+0xd0>
	                                             break;
	case Matel_VECTOR__INDEPENDENT_SIG_MSG_0xC0000000:
		                                       break;
	}

}
 8002166:	e031      	b.n	80021cc <matel_mcu_process_can_frame+0xfc>
	case Matel_MCU_POWER_CAN_STD_ID_A1:decode_MCU_POWER_One(frame->data,&msg.MCU_POWER_One);
 8002168:	687b      	ldr	r3, [r7, #4]
 800216a:	3307      	adds	r3, #7
 800216c:	491c      	ldr	r1, [pc, #112]	@ (80021e0 <matel_mcu_process_can_frame+0x110>)
 800216e:	4618      	mov	r0, r3
 8002170:	f000 ffae 	bl	80030d0 <decode_MCU_POWER_One>
		                                break;
 8002174:	e02a      	b.n	80021cc <matel_mcu_process_can_frame+0xfc>
	case Matel_MCU_FAULT_one_CAN_STD_ID_AE:decode_MCU_FAULT_One(frame->data, &msg.MCU_FAULT_One);
 8002176:	687b      	ldr	r3, [r7, #4]
 8002178:	3307      	adds	r3, #7
 800217a:	491a      	ldr	r1, [pc, #104]	@ (80021e4 <matel_mcu_process_can_frame+0x114>)
 800217c:	4618      	mov	r0, r3
 800217e:	f000 fb7f 	bl	8002880 <decode_MCU_FAULT_One>
		                                  break;
 8002182:	e023      	b.n	80021cc <matel_mcu_process_can_frame+0xfc>
	case Matel_MCU_FAULT_two_CAN_STD_ID_AF:decode_MCU_FAULT_two(frame->data,&msg.MCU_FAULT_two);
 8002184:	687b      	ldr	r3, [r7, #4]
 8002186:	3307      	adds	r3, #7
 8002188:	4917      	ldr	r1, [pc, #92]	@ (80021e8 <matel_mcu_process_can_frame+0x118>)
 800218a:	4618      	mov	r0, r3
 800218c:	f000 fcd0 	bl	8002b30 <decode_MCU_FAULT_two>
		                                  break;
 8002190:	e01c      	b.n	80021cc <matel_mcu_process_can_frame+0xfc>
	case Matel_MCU_Fault_Code_CAN_STD_ID_B3:decode_MCU_Fault_Code(frame->data, &msg.MCU_Fault_Code);
 8002192:	687b      	ldr	r3, [r7, #4]
 8002194:	3307      	adds	r3, #7
 8002196:	4915      	ldr	r1, [pc, #84]	@ (80021ec <matel_mcu_process_can_frame+0x11c>)
 8002198:	4618      	mov	r0, r3
 800219a:	f000 f98b 	bl	80024b4 <decode_MCU_Fault_Code>
		                                   break;
 800219e:	e015      	b.n	80021cc <matel_mcu_process_can_frame+0xfc>
	case Matel_MCU_Stat_One_CAN_EXTD_ID_18265040:decode_MCU_Stat_One(frame->data, &msg.MCU_Stat_One);
 80021a0:	687b      	ldr	r3, [r7, #4]
 80021a2:	3307      	adds	r3, #7
 80021a4:	4912      	ldr	r1, [pc, #72]	@ (80021f0 <matel_mcu_process_can_frame+0x120>)
 80021a6:	4618      	mov	r0, r3
 80021a8:	f000 fed6 	bl	8002f58 <decode_MCU_Stat_One>
		                                  break;
 80021ac:	e00e      	b.n	80021cc <matel_mcu_process_can_frame+0xfc>
	case Matel_MCU_Stat_Two_CAN_EXTD_ID_18275040:decode_MCU_Stat_Two(frame->data, &msg.MCU_Stat_Two);
 80021ae:	687b      	ldr	r3, [r7, #4]
 80021b0:	3307      	adds	r3, #7
 80021b2:	4910      	ldr	r1, [pc, #64]	@ (80021f4 <matel_mcu_process_can_frame+0x124>)
 80021b4:	4618      	mov	r0, r3
 80021b6:	f000 f8ff 	bl	80023b8 <decode_MCU_Stat_Two>
		                                       break;
 80021ba:	e007      	b.n	80021cc <matel_mcu_process_can_frame+0xfc>
	case Matel_MCU_HearthBeat_CAN_EXTD_ID_18963257:decode_HearthBeat(frame->data, &msg.HearthBeat);
 80021bc:	687b      	ldr	r3, [r7, #4]
 80021be:	3307      	adds	r3, #7
 80021c0:	490d      	ldr	r1, [pc, #52]	@ (80021f8 <matel_mcu_process_can_frame+0x128>)
 80021c2:	4618      	mov	r0, r3
 80021c4:	f000 fdf8 	bl	8002db8 <decode_HearthBeat>
	                                             break;
 80021c8:	e000      	b.n	80021cc <matel_mcu_process_can_frame+0xfc>
		                                       break;
 80021ca:	bf00      	nop
}
 80021cc:	bf00      	nop
 80021ce:	3708      	adds	r7, #8
 80021d0:	46bd      	mov	sp, r7
 80021d2:	bd80      	pop	{r7, pc}
 80021d4:	18963257 	.word	0x18963257
 80021d8:	18275040 	.word	0x18275040
 80021dc:	18265040 	.word	0x18265040
 80021e0:	20000358 	.word	0x20000358
 80021e4:	20000314 	.word	0x20000314
 80021e8:	200002d8 	.word	0x200002d8
 80021ec:	200001d0 	.word	0x200001d0
 80021f0:	200002b8 	.word	0x200002b8
 80021f4:	200001b8 	.word	0x200001b8
 80021f8:	20000230 	.word	0x20000230

080021fc <extract_motorola_u64>:
	uint64_t mask = (~0ULL) << len;
	return (int64_t)(v | mask);
	}
	return (int64_t)v;
}
static uint64_t extract_motorola_u64(const uint8_t *data, int start, int len) {
 80021fc:	e92d 0fb0 	stmdb	sp!, {r4, r5, r7, r8, r9, sl, fp}
 8002200:	b08b      	sub	sp, #44	@ 0x2c
 8002202:	af00      	add	r7, sp, #0
 8002204:	60f8      	str	r0, [r7, #12]
 8002206:	60b9      	str	r1, [r7, #8]
 8002208:	607a      	str	r2, [r7, #4]
	if (len <= 0 || len > 64) return 0;
 800220a:	687b      	ldr	r3, [r7, #4]
 800220c:	2b00      	cmp	r3, #0
 800220e:	dd02      	ble.n	8002216 <extract_motorola_u64+0x1a>
 8002210:	687b      	ldr	r3, [r7, #4]
 8002212:	2b40      	cmp	r3, #64	@ 0x40
 8002214:	dd04      	ble.n	8002220 <extract_motorola_u64+0x24>
 8002216:	f04f 0200 	mov.w	r2, #0
 800221a:	f04f 0300 	mov.w	r3, #0
 800221e:	e051      	b.n	80022c4 <extract_motorola_u64+0xc8>
	uint64_t value = 0;
 8002220:	f04f 0200 	mov.w	r2, #0
 8002224:	f04f 0300 	mov.w	r3, #0
 8002228:	e9c7 2308 	strd	r2, r3, [r7, #32]
	int cur_byte = start / 8;
 800222c:	68bb      	ldr	r3, [r7, #8]
 800222e:	2b00      	cmp	r3, #0
 8002230:	da00      	bge.n	8002234 <extract_motorola_u64+0x38>
 8002232:	3307      	adds	r3, #7
 8002234:	10db      	asrs	r3, r3, #3
 8002236:	61fb      	str	r3, [r7, #28]
	int cur_bit = start % 8; // 7 = MSB of byte
 8002238:	68bb      	ldr	r3, [r7, #8]
 800223a:	425a      	negs	r2, r3
 800223c:	f003 0307 	and.w	r3, r3, #7
 8002240:	f002 0207 	and.w	r2, r2, #7
 8002244:	bf58      	it	pl
 8002246:	4253      	negpl	r3, r2
 8002248:	61bb      	str	r3, [r7, #24]
	for (int i = 0; i < len; i++) {
 800224a:	2300      	movs	r3, #0
 800224c:	617b      	str	r3, [r7, #20]
 800224e:	e033      	b.n	80022b8 <extract_motorola_u64+0xbc>
	uint8_t bit = 0;
 8002250:	2300      	movs	r3, #0
 8002252:	74fb      	strb	r3, [r7, #19]
	if (cur_byte >= 0 && cur_byte < 8) bit = (data[cur_byte] >> cur_bit) & 1U;
 8002254:	69fb      	ldr	r3, [r7, #28]
 8002256:	2b00      	cmp	r3, #0
 8002258:	db0e      	blt.n	8002278 <extract_motorola_u64+0x7c>
 800225a:	69fb      	ldr	r3, [r7, #28]
 800225c:	2b07      	cmp	r3, #7
 800225e:	dc0b      	bgt.n	8002278 <extract_motorola_u64+0x7c>
 8002260:	69fb      	ldr	r3, [r7, #28]
 8002262:	68fa      	ldr	r2, [r7, #12]
 8002264:	4413      	add	r3, r2
 8002266:	781b      	ldrb	r3, [r3, #0]
 8002268:	461a      	mov	r2, r3
 800226a:	69bb      	ldr	r3, [r7, #24]
 800226c:	fa42 f303 	asr.w	r3, r2, r3
 8002270:	b2db      	uxtb	r3, r3
 8002272:	f003 0301 	and.w	r3, r3, #1
 8002276:	74fb      	strb	r3, [r7, #19]
	value = (value << 1) | (uint64_t)bit;
 8002278:	e9d7 2308 	ldrd	r2, r3, [r7, #32]
 800227c:	eb12 0a02 	adds.w	sl, r2, r2
 8002280:	eb43 0b03 	adc.w	fp, r3, r3
 8002284:	4652      	mov	r2, sl
 8002286:	465b      	mov	r3, fp
 8002288:	7cf9      	ldrb	r1, [r7, #19]
 800228a:	2000      	movs	r0, #0
 800228c:	460c      	mov	r4, r1
 800228e:	4605      	mov	r5, r0
 8002290:	ea42 0804 	orr.w	r8, r2, r4
 8002294:	ea43 0905 	orr.w	r9, r3, r5
 8002298:	e9c7 8908 	strd	r8, r9, [r7, #32]
	cur_bit--;
 800229c:	69bb      	ldr	r3, [r7, #24]
 800229e:	3b01      	subs	r3, #1
 80022a0:	61bb      	str	r3, [r7, #24]
	if (cur_bit < 0) { cur_byte++; cur_bit = 7; }
 80022a2:	69bb      	ldr	r3, [r7, #24]
 80022a4:	2b00      	cmp	r3, #0
 80022a6:	da04      	bge.n	80022b2 <extract_motorola_u64+0xb6>
 80022a8:	69fb      	ldr	r3, [r7, #28]
 80022aa:	3301      	adds	r3, #1
 80022ac:	61fb      	str	r3, [r7, #28]
 80022ae:	2307      	movs	r3, #7
 80022b0:	61bb      	str	r3, [r7, #24]
	for (int i = 0; i < len; i++) {
 80022b2:	697b      	ldr	r3, [r7, #20]
 80022b4:	3301      	adds	r3, #1
 80022b6:	617b      	str	r3, [r7, #20]
 80022b8:	697a      	ldr	r2, [r7, #20]
 80022ba:	687b      	ldr	r3, [r7, #4]
 80022bc:	429a      	cmp	r2, r3
 80022be:	dbc7      	blt.n	8002250 <extract_motorola_u64+0x54>
	}
	return value;
 80022c0:	e9d7 2308 	ldrd	r2, r3, [r7, #32]
}
 80022c4:	4610      	mov	r0, r2
 80022c6:	4619      	mov	r1, r3
 80022c8:	372c      	adds	r7, #44	@ 0x2c
 80022ca:	46bd      	mov	sp, r7
 80022cc:	e8bd 0fb0 	ldmia.w	sp!, {r4, r5, r7, r8, r9, sl, fp}
 80022d0:	4770      	bx	lr

080022d2 <extract_little_endian_u64>:
    uint64_t shifted = v >> start_bit;
    uint64_t mask = (length == 64) ? ~0ULL : ((1ULL << length) - 1ULL);
    return shifted & mask;
}*/

static uint64_t extract_little_endian_u64(const uint8_t *data, int start, int len) {
 80022d2:	e92d 0fb0 	stmdb	sp!, {r4, r5, r7, r8, r9, sl, fp}
 80022d6:	b08d      	sub	sp, #52	@ 0x34
 80022d8:	af00      	add	r7, sp, #0
 80022da:	60f8      	str	r0, [r7, #12]
 80022dc:	60b9      	str	r1, [r7, #8]
 80022de:	607a      	str	r2, [r7, #4]
if (len <= 0 || len > 64) return 0;
 80022e0:	687b      	ldr	r3, [r7, #4]
 80022e2:	2b00      	cmp	r3, #0
 80022e4:	dd02      	ble.n	80022ec <extract_little_endian_u64+0x1a>
 80022e6:	687b      	ldr	r3, [r7, #4]
 80022e8:	2b40      	cmp	r3, #64	@ 0x40
 80022ea:	dd04      	ble.n	80022f6 <extract_little_endian_u64+0x24>
 80022ec:	f04f 0200 	mov.w	r2, #0
 80022f0:	f04f 0300 	mov.w	r3, #0
 80022f4:	e056      	b.n	80023a4 <extract_little_endian_u64+0xd2>
uint64_t value = 0;
 80022f6:	f04f 0200 	mov.w	r2, #0
 80022fa:	f04f 0300 	mov.w	r3, #0
 80022fe:	e9c7 230a 	strd	r2, r3, [r7, #40]	@ 0x28
for (int i = 0; i < len; i++) {
 8002302:	2300      	movs	r3, #0
 8002304:	627b      	str	r3, [r7, #36]	@ 0x24
 8002306:	e047      	b.n	8002398 <extract_little_endian_u64+0xc6>
int bit_index = start + i;
 8002308:	68ba      	ldr	r2, [r7, #8]
 800230a:	6a7b      	ldr	r3, [r7, #36]	@ 0x24
 800230c:	4413      	add	r3, r2
 800230e:	61fb      	str	r3, [r7, #28]
int byte_index = bit_index / 8;
 8002310:	69fb      	ldr	r3, [r7, #28]
 8002312:	2b00      	cmp	r3, #0
 8002314:	da00      	bge.n	8002318 <extract_little_endian_u64+0x46>
 8002316:	3307      	adds	r3, #7
 8002318:	10db      	asrs	r3, r3, #3
 800231a:	61bb      	str	r3, [r7, #24]
int bit_in_byte = bit_index % 8;
 800231c:	69fb      	ldr	r3, [r7, #28]
 800231e:	425a      	negs	r2, r3
 8002320:	f003 0307 	and.w	r3, r3, #7
 8002324:	f002 0207 	and.w	r2, r2, #7
 8002328:	bf58      	it	pl
 800232a:	4253      	negpl	r3, r2
 800232c:	617b      	str	r3, [r7, #20]
uint8_t bit = 0;
 800232e:	2300      	movs	r3, #0
 8002330:	f887 3023 	strb.w	r3, [r7, #35]	@ 0x23
if (byte_index >= 0 && byte_index < 8) bit = (data[byte_index] >> bit_in_byte) & 1U;
 8002334:	69bb      	ldr	r3, [r7, #24]
 8002336:	2b00      	cmp	r3, #0
 8002338:	db0f      	blt.n	800235a <extract_little_endian_u64+0x88>
 800233a:	69bb      	ldr	r3, [r7, #24]
 800233c:	2b07      	cmp	r3, #7
 800233e:	dc0c      	bgt.n	800235a <extract_little_endian_u64+0x88>
 8002340:	69bb      	ldr	r3, [r7, #24]
 8002342:	68fa      	ldr	r2, [r7, #12]
 8002344:	4413      	add	r3, r2
 8002346:	781b      	ldrb	r3, [r3, #0]
 8002348:	461a      	mov	r2, r3
 800234a:	697b      	ldr	r3, [r7, #20]
 800234c:	fa42 f303 	asr.w	r3, r2, r3
 8002350:	b2db      	uxtb	r3, r3
 8002352:	f003 0301 	and.w	r3, r3, #1
 8002356:	f887 3023 	strb.w	r3, [r7, #35]	@ 0x23
value |= ((uint64_t)bit << i);
 800235a:	f897 3023 	ldrb.w	r3, [r7, #35]	@ 0x23
 800235e:	2200      	movs	r2, #0
 8002360:	4698      	mov	r8, r3
 8002362:	4691      	mov	r9, r2
 8002364:	6a7b      	ldr	r3, [r7, #36]	@ 0x24
 8002366:	f1a3 0120 	sub.w	r1, r3, #32
 800236a:	f1c3 0220 	rsb	r2, r3, #32
 800236e:	fa09 f503 	lsl.w	r5, r9, r3
 8002372:	fa08 f101 	lsl.w	r1, r8, r1
 8002376:	430d      	orrs	r5, r1
 8002378:	fa28 f202 	lsr.w	r2, r8, r2
 800237c:	4315      	orrs	r5, r2
 800237e:	fa08 f403 	lsl.w	r4, r8, r3
 8002382:	e9d7 230a 	ldrd	r2, r3, [r7, #40]	@ 0x28
 8002386:	ea42 0a04 	orr.w	sl, r2, r4
 800238a:	ea43 0b05 	orr.w	fp, r3, r5
 800238e:	e9c7 ab0a 	strd	sl, fp, [r7, #40]	@ 0x28
for (int i = 0; i < len; i++) {
 8002392:	6a7b      	ldr	r3, [r7, #36]	@ 0x24
 8002394:	3301      	adds	r3, #1
 8002396:	627b      	str	r3, [r7, #36]	@ 0x24
 8002398:	6a7a      	ldr	r2, [r7, #36]	@ 0x24
 800239a:	687b      	ldr	r3, [r7, #4]
 800239c:	429a      	cmp	r2, r3
 800239e:	dbb3      	blt.n	8002308 <extract_little_endian_u64+0x36>
}
return value;
 80023a0:	e9d7 230a 	ldrd	r2, r3, [r7, #40]	@ 0x28
}
 80023a4:	4610      	mov	r0, r2
 80023a6:	4619      	mov	r1, r3
 80023a8:	3734      	adds	r7, #52	@ 0x34
 80023aa:	46bd      	mov	sp, r7
 80023ac:	e8bd 0fb0 	ldmia.w	sp!, {r4, r5, r7, r8, r9, sl, fp}
 80023b0:	4770      	bx	lr
 80023b2:	0000      	movs	r0, r0
 80023b4:	0000      	movs	r0, r0
	...

080023b8 <decode_MCU_Stat_Two>:

// Implementations of decode functions follow (using extract helpers)


void decode_MCU_Stat_Two(const uint8_t *data, MCU_Stat_Two_t *out) {
 80023b8:	b580      	push	{r7, lr}
 80023ba:	b088      	sub	sp, #32
 80023bc:	af00      	add	r7, sp, #0
 80023be:	6078      	str	r0, [r7, #4]
 80023c0:	6039      	str	r1, [r7, #0]
	if (!out) return;
 80023c2:	683b      	ldr	r3, [r7, #0]
 80023c4:	2b00      	cmp	r3, #0
 80023c6:	d062      	beq.n	800248e <decode_MCU_Stat_Two+0xd6>
	uint64_t raw0 = extract_little_endian_u64(data, 32, 32);
 80023c8:	2220      	movs	r2, #32
 80023ca:	2120      	movs	r1, #32
 80023cc:	6878      	ldr	r0, [r7, #4]
 80023ce:	f7ff ff80 	bl	80022d2 <extract_little_endian_u64>
 80023d2:	e9c7 0106 	strd	r0, r1, [r7, #24]
	out->MCU_Odometer_Val = (double)raw0 * 0.1 + 0.0;
 80023d6:	e9d7 0106 	ldrd	r0, r1, [r7, #24]
 80023da:	f7fe f969 	bl	80006b0 <__aeabi_ul2d>
 80023de:	a32e      	add	r3, pc, #184	@ (adr r3, 8002498 <decode_MCU_Stat_Two+0xe0>)
 80023e0:	e9d3 2300 	ldrd	r2, r3, [r3]
 80023e4:	f7fd feb4 	bl	8000150 <__aeabi_dmul>
 80023e8:	4602      	mov	r2, r0
 80023ea:	460b      	mov	r3, r1
 80023ec:	4610      	mov	r0, r2
 80023ee:	4619      	mov	r1, r3
 80023f0:	f04f 0200 	mov.w	r2, #0
 80023f4:	f04f 0300 	mov.w	r3, #0
 80023f8:	f7fd ffda 	bl	80003b0 <__adddf3>
 80023fc:	4602      	mov	r2, r0
 80023fe:	460b      	mov	r3, r1
 8002400:	6839      	ldr	r1, [r7, #0]
 8002402:	e9c1 2300 	strd	r2, r3, [r1]
	uint64_t raw1 = extract_little_endian_u64(data, 16, 16);
 8002406:	2210      	movs	r2, #16
 8002408:	2110      	movs	r1, #16
 800240a:	6878      	ldr	r0, [r7, #4]
 800240c:	f7ff ff61 	bl	80022d2 <extract_little_endian_u64>
 8002410:	e9c7 0104 	strd	r0, r1, [r7, #16]
	out->MCU_VCU_State = (double)raw1;
 8002414:	e9d7 0104 	ldrd	r0, r1, [r7, #16]
 8002418:	f7fe f94a 	bl	80006b0 <__aeabi_ul2d>
 800241c:	4602      	mov	r2, r0
 800241e:	460b      	mov	r3, r1
 8002420:	6839      	ldr	r1, [r7, #0]
 8002422:	e9c1 2302 	strd	r2, r3, [r1, #8]
	uint64_t raw2 = extract_little_endian_u64(data, 0, 16);
 8002426:	2210      	movs	r2, #16
 8002428:	2100      	movs	r1, #0
 800242a:	6878      	ldr	r0, [r7, #4]
 800242c:	f7ff ff51 	bl	80022d2 <extract_little_endian_u64>
 8002430:	e9c7 0102 	strd	r0, r1, [r7, #8]
	out->MCU_Motor_RPM = (double)raw2  -16384.0;
 8002434:	e9d7 0102 	ldrd	r0, r1, [r7, #8]
 8002438:	f7fe f93a 	bl	80006b0 <__aeabi_ul2d>
 800243c:	f04f 0200 	mov.w	r2, #0
 8002440:	4b17      	ldr	r3, [pc, #92]	@ (80024a0 <decode_MCU_Stat_Two+0xe8>)
 8002442:	f7fd ffb3 	bl	80003ac <__aeabi_dsub>
 8002446:	4602      	mov	r2, r0
 8002448:	460b      	mov	r3, r1
 800244a:	6839      	ldr	r1, [r7, #0]
 800244c:	e9c1 2304 	strd	r2, r3, [r1, #16]
	uart_print_str("\n Odometer: ");
 8002450:	4814      	ldr	r0, [pc, #80]	@ (80024a4 <decode_MCU_Stat_Two+0xec>)
 8002452:	f002 f951 	bl	80046f8 <uart_print_str>
	uart_send_double(out->MCU_Odometer_Val,3);
 8002456:	683b      	ldr	r3, [r7, #0]
 8002458:	e9d3 0100 	ldrd	r0, r1, [r3]
 800245c:	2203      	movs	r2, #3
 800245e:	f002 f961 	bl	8004724 <uart_send_double>
	uart_print_str("\n MCU_VCU_State: ");
 8002462:	4811      	ldr	r0, [pc, #68]	@ (80024a8 <decode_MCU_Stat_Two+0xf0>)
 8002464:	f002 f948 	bl	80046f8 <uart_print_str>
	uart_send_double(out->MCU_VCU_State,3);
 8002468:	683b      	ldr	r3, [r7, #0]
 800246a:	e9d3 0102 	ldrd	r0, r1, [r3, #8]
 800246e:	2203      	movs	r2, #3
 8002470:	f002 f958 	bl	8004724 <uart_send_double>
	uart_print_str("\n MCU_Motor_RPM :");
 8002474:	480d      	ldr	r0, [pc, #52]	@ (80024ac <decode_MCU_Stat_Two+0xf4>)
 8002476:	f002 f93f 	bl	80046f8 <uart_print_str>
	uart_send_double(out->MCU_Motor_RPM,3);
 800247a:	683b      	ldr	r3, [r7, #0]
 800247c:	e9d3 0104 	ldrd	r0, r1, [r3, #16]
 8002480:	2203      	movs	r2, #3
 8002482:	f002 f94f 	bl	8004724 <uart_send_double>
	uart_print_str("\n============================================\n");
 8002486:	480a      	ldr	r0, [pc, #40]	@ (80024b0 <decode_MCU_Stat_Two+0xf8>)
 8002488:	f002 f936 	bl	80046f8 <uart_print_str>
 800248c:	e000      	b.n	8002490 <decode_MCU_Stat_Two+0xd8>
	if (!out) return;
 800248e:	bf00      	nop
}
 8002490:	3720      	adds	r7, #32
 8002492:	46bd      	mov	sp, r7
 8002494:	bd80      	pop	{r7, pc}
 8002496:	bf00      	nop
 8002498:	9999999a 	.word	0x9999999a
 800249c:	3fb99999 	.word	0x3fb99999
 80024a0:	40d00000 	.word	0x40d00000
 80024a4:	08007a14 	.word	0x08007a14
 80024a8:	08007a24 	.word	0x08007a24
 80024ac:	08007a38 	.word	0x08007a38
 80024b0:	08007a4c 	.word	0x08007a4c

080024b4 <decode_MCU_Fault_Code>:


void decode_MCU_Fault_Code(const uint8_t *data, MCU_Fault_Code_t *out) {
 80024b4:	b580      	push	{r7, lr}
 80024b6:	b082      	sub	sp, #8
 80024b8:	af00      	add	r7, sp, #0
 80024ba:	6078      	str	r0, [r7, #4]
 80024bc:	6039      	str	r1, [r7, #0]
	if (!out) return;
 80024be:	683b      	ldr	r3, [r7, #0]
 80024c0:	2b00      	cmp	r3, #0
 80024c2:	f000 81a2 	beq.w	800280a <decode_MCU_Fault_Code+0x356>
	// sequential 8-bit little-endian signals
	out->MCU_Fault_Code_0 = (int)extract_motorola_u64(data, 30, 1);
 80024c6:	2201      	movs	r2, #1
 80024c8:	211e      	movs	r1, #30
 80024ca:	6878      	ldr	r0, [r7, #4]
 80024cc:	f7ff fe96 	bl	80021fc <extract_motorola_u64>
 80024d0:	4602      	mov	r2, r0
 80024d2:	460b      	mov	r3, r1
 80024d4:	683b      	ldr	r3, [r7, #0]
 80024d6:	601a      	str	r2, [r3, #0]
	out->MCU_Fault_Code_1 = (int)extract_motorola_u64(data, 31, 1);
 80024d8:	2201      	movs	r2, #1
 80024da:	211f      	movs	r1, #31
 80024dc:	6878      	ldr	r0, [r7, #4]
 80024de:	f7ff fe8d 	bl	80021fc <extract_motorola_u64>
 80024e2:	4602      	mov	r2, r0
 80024e4:	460b      	mov	r3, r1
 80024e6:	683b      	ldr	r3, [r7, #0]
 80024e8:	605a      	str	r2, [r3, #4]
	out->MCU_Fault_Code_2 = (int)extract_motorola_u64(data, 16,1);
 80024ea:	2201      	movs	r2, #1
 80024ec:	2110      	movs	r1, #16
 80024ee:	6878      	ldr	r0, [r7, #4]
 80024f0:	f7ff fe84 	bl	80021fc <extract_motorola_u64>
 80024f4:	4602      	mov	r2, r0
 80024f6:	460b      	mov	r3, r1
 80024f8:	683b      	ldr	r3, [r7, #0]
 80024fa:	609a      	str	r2, [r3, #8]
	out->MCU_Fault_Code_3 = (int)extract_motorola_u64(data, 17, 1);
 80024fc:	2201      	movs	r2, #1
 80024fe:	2111      	movs	r1, #17
 8002500:	6878      	ldr	r0, [r7, #4]
 8002502:	f7ff fe7b 	bl	80021fc <extract_motorola_u64>
 8002506:	4602      	mov	r2, r0
 8002508:	460b      	mov	r3, r1
 800250a:	683b      	ldr	r3, [r7, #0]
 800250c:	60da      	str	r2, [r3, #12]
	out->MCU_Fault_Code_4 = (int)extract_motorola_u64(data, 18, 1);
 800250e:	2201      	movs	r2, #1
 8002510:	2112      	movs	r1, #18
 8002512:	6878      	ldr	r0, [r7, #4]
 8002514:	f7ff fe72 	bl	80021fc <extract_motorola_u64>
 8002518:	4602      	mov	r2, r0
 800251a:	460b      	mov	r3, r1
 800251c:	683b      	ldr	r3, [r7, #0]
 800251e:	611a      	str	r2, [r3, #16]
	out->MCU_Fault_Code_5 = (int)extract_motorola_u64(data, 19, 1);
 8002520:	2201      	movs	r2, #1
 8002522:	2113      	movs	r1, #19
 8002524:	6878      	ldr	r0, [r7, #4]
 8002526:	f7ff fe69 	bl	80021fc <extract_motorola_u64>
 800252a:	4602      	mov	r2, r0
 800252c:	460b      	mov	r3, r1
 800252e:	683b      	ldr	r3, [r7, #0]
 8002530:	615a      	str	r2, [r3, #20]
	out->MCU_Fault_Code_6 = (int)extract_motorola_u64(data, 20, 1);
 8002532:	2201      	movs	r2, #1
 8002534:	2114      	movs	r1, #20
 8002536:	6878      	ldr	r0, [r7, #4]
 8002538:	f7ff fe60 	bl	80021fc <extract_motorola_u64>
 800253c:	4602      	mov	r2, r0
 800253e:	460b      	mov	r3, r1
 8002540:	683b      	ldr	r3, [r7, #0]
 8002542:	619a      	str	r2, [r3, #24]
	out->MCU_Fault_Code_7 = (int)extract_motorola_u64(data, 21, 1);
 8002544:	2201      	movs	r2, #1
 8002546:	2115      	movs	r1, #21
 8002548:	6878      	ldr	r0, [r7, #4]
 800254a:	f7ff fe57 	bl	80021fc <extract_motorola_u64>
 800254e:	4602      	mov	r2, r0
 8002550:	460b      	mov	r3, r1
 8002552:	683b      	ldr	r3, [r7, #0]
 8002554:	61da      	str	r2, [r3, #28]
	out->MCU_Fault_Code_8 = (int)extract_motorola_u64(data, 22, 1);
 8002556:	2201      	movs	r2, #1
 8002558:	2116      	movs	r1, #22
 800255a:	6878      	ldr	r0, [r7, #4]
 800255c:	f7ff fe4e 	bl	80021fc <extract_motorola_u64>
 8002560:	4602      	mov	r2, r0
 8002562:	460b      	mov	r3, r1
 8002564:	683b      	ldr	r3, [r7, #0]
 8002566:	621a      	str	r2, [r3, #32]
	out->MCU_Fault_Code_9 = (int)extract_motorola_u64(data,23, 1);
 8002568:	2201      	movs	r2, #1
 800256a:	2117      	movs	r1, #23
 800256c:	6878      	ldr	r0, [r7, #4]
 800256e:	f7ff fe45 	bl	80021fc <extract_motorola_u64>
 8002572:	4602      	mov	r2, r0
 8002574:	460b      	mov	r3, r1
 8002576:	683b      	ldr	r3, [r7, #0]
 8002578:	625a      	str	r2, [r3, #36]	@ 0x24
	out->MCU_Fault_Code_10 = (int)extract_motorola_u64(data, 8, 1);
 800257a:	2201      	movs	r2, #1
 800257c:	2108      	movs	r1, #8
 800257e:	6878      	ldr	r0, [r7, #4]
 8002580:	f7ff fe3c 	bl	80021fc <extract_motorola_u64>
 8002584:	4602      	mov	r2, r0
 8002586:	460b      	mov	r3, r1
 8002588:	683b      	ldr	r3, [r7, #0]
 800258a:	629a      	str	r2, [r3, #40]	@ 0x28
	out->MCU_Fault_Code_11 = (int)extract_motorola_u64(data, 9, 1);
 800258c:	2201      	movs	r2, #1
 800258e:	2109      	movs	r1, #9
 8002590:	6878      	ldr	r0, [r7, #4]
 8002592:	f7ff fe33 	bl	80021fc <extract_motorola_u64>
 8002596:	4602      	mov	r2, r0
 8002598:	460b      	mov	r3, r1
 800259a:	683b      	ldr	r3, [r7, #0]
 800259c:	62da      	str	r2, [r3, #44]	@ 0x2c
	out->MCU_Fault_Code_12 = (int)extract_motorola_u64(data, 10, 1);
 800259e:	2201      	movs	r2, #1
 80025a0:	210a      	movs	r1, #10
 80025a2:	6878      	ldr	r0, [r7, #4]
 80025a4:	f7ff fe2a 	bl	80021fc <extract_motorola_u64>
 80025a8:	4602      	mov	r2, r0
 80025aa:	460b      	mov	r3, r1
 80025ac:	683b      	ldr	r3, [r7, #0]
 80025ae:	631a      	str	r2, [r3, #48]	@ 0x30
	out->MCU_Fault_Code_13 = (int)extract_motorola_u64(data, 11, 1);
 80025b0:	2201      	movs	r2, #1
 80025b2:	210b      	movs	r1, #11
 80025b4:	6878      	ldr	r0, [r7, #4]
 80025b6:	f7ff fe21 	bl	80021fc <extract_motorola_u64>
 80025ba:	4602      	mov	r2, r0
 80025bc:	460b      	mov	r3, r1
 80025be:	683b      	ldr	r3, [r7, #0]
 80025c0:	635a      	str	r2, [r3, #52]	@ 0x34
	out->MCU_Fault_Code_14 = (int)extract_motorola_u64(data, 12, 1);
 80025c2:	2201      	movs	r2, #1
 80025c4:	210c      	movs	r1, #12
 80025c6:	6878      	ldr	r0, [r7, #4]
 80025c8:	f7ff fe18 	bl	80021fc <extract_motorola_u64>
 80025cc:	4602      	mov	r2, r0
 80025ce:	460b      	mov	r3, r1
 80025d0:	683b      	ldr	r3, [r7, #0]
 80025d2:	639a      	str	r2, [r3, #56]	@ 0x38
	out->MCU_Fault_Code_15 = (int)extract_motorola_u64(data, 13, 1);
 80025d4:	2201      	movs	r2, #1
 80025d6:	210d      	movs	r1, #13
 80025d8:	6878      	ldr	r0, [r7, #4]
 80025da:	f7ff fe0f 	bl	80021fc <extract_motorola_u64>
 80025de:	4602      	mov	r2, r0
 80025e0:	460b      	mov	r3, r1
 80025e2:	683b      	ldr	r3, [r7, #0]
 80025e4:	63da      	str	r2, [r3, #60]	@ 0x3c
	out->MCU_Fault_Code_16 = (int)extract_motorola_u64(data, 14, 1);
 80025e6:	2201      	movs	r2, #1
 80025e8:	210e      	movs	r1, #14
 80025ea:	6878      	ldr	r0, [r7, #4]
 80025ec:	f7ff fe06 	bl	80021fc <extract_motorola_u64>
 80025f0:	4602      	mov	r2, r0
 80025f2:	460b      	mov	r3, r1
 80025f4:	683b      	ldr	r3, [r7, #0]
 80025f6:	641a      	str	r2, [r3, #64]	@ 0x40
	out->MCU_Fault_Code_17 = (int)extract_motorola_u64(data, 15, 1);
 80025f8:	2201      	movs	r2, #1
 80025fa:	210f      	movs	r1, #15
 80025fc:	6878      	ldr	r0, [r7, #4]
 80025fe:	f7ff fdfd 	bl	80021fc <extract_motorola_u64>
 8002602:	4602      	mov	r2, r0
 8002604:	460b      	mov	r3, r1
 8002606:	683b      	ldr	r3, [r7, #0]
 8002608:	645a      	str	r2, [r3, #68]	@ 0x44
	out->MCU_Fault_Code_18 = (int)extract_motorola_u64(data, 0, 1);
 800260a:	2201      	movs	r2, #1
 800260c:	2100      	movs	r1, #0
 800260e:	6878      	ldr	r0, [r7, #4]
 8002610:	f7ff fdf4 	bl	80021fc <extract_motorola_u64>
 8002614:	4602      	mov	r2, r0
 8002616:	460b      	mov	r3, r1
 8002618:	683b      	ldr	r3, [r7, #0]
 800261a:	649a      	str	r2, [r3, #72]	@ 0x48
	out->MCU_Fault_Code_19 = (int)extract_motorola_u64(data, 7, 3);
 800261c:	2203      	movs	r2, #3
 800261e:	2107      	movs	r1, #7
 8002620:	6878      	ldr	r0, [r7, #4]
 8002622:	f7ff fdeb 	bl	80021fc <extract_motorola_u64>
 8002626:	4602      	mov	r2, r0
 8002628:	460b      	mov	r3, r1
 800262a:	683b      	ldr	r3, [r7, #0]
 800262c:	64da      	str	r2, [r3, #76]	@ 0x4c
	out->MCU_Fault_Code_20 = (int)extract_motorola_u64(data, 1, 1);
 800262e:	2201      	movs	r2, #1
 8002630:	2101      	movs	r1, #1
 8002632:	6878      	ldr	r0, [r7, #4]
 8002634:	f7ff fde2 	bl	80021fc <extract_motorola_u64>
 8002638:	4602      	mov	r2, r0
 800263a:	460b      	mov	r3, r1
 800263c:	683b      	ldr	r3, [r7, #0]
 800263e:	651a      	str	r2, [r3, #80]	@ 0x50
	out->MCU_Fault_Code_21 = (int)extract_motorola_u64(data, 2,1);
 8002640:	2201      	movs	r2, #1
 8002642:	2102      	movs	r1, #2
 8002644:	6878      	ldr	r0, [r7, #4]
 8002646:	f7ff fdd9 	bl	80021fc <extract_motorola_u64>
 800264a:	4602      	mov	r2, r0
 800264c:	460b      	mov	r3, r1
 800264e:	683b      	ldr	r3, [r7, #0]
 8002650:	655a      	str	r2, [r3, #84]	@ 0x54
	out->MCU_Fault_Code_22 = (int)extract_motorola_u64(data, 4, 3);
 8002652:	2203      	movs	r2, #3
 8002654:	2104      	movs	r1, #4
 8002656:	6878      	ldr	r0, [r7, #4]
 8002658:	f7ff fdd0 	bl	80021fc <extract_motorola_u64>
 800265c:	4602      	mov	r2, r0
 800265e:	460b      	mov	r3, r1
 8002660:	683b      	ldr	r3, [r7, #0]
 8002662:	659a      	str	r2, [r3, #88]	@ 0x58
	uart_print_str("\n MCU_temp_cutoff: ");
 8002664:	486b      	ldr	r0, [pc, #428]	@ (8002814 <decode_MCU_Fault_Code+0x360>)
 8002666:	f002 f847 	bl	80046f8 <uart_print_str>
	uart_printf("%d ",out->MCU_Fault_Code_0);
 800266a:	683b      	ldr	r3, [r7, #0]
 800266c:	681b      	ldr	r3, [r3, #0]
 800266e:	4619      	mov	r1, r3
 8002670:	4869      	ldr	r0, [pc, #420]	@ (8002818 <decode_MCU_Fault_Code+0x364>)
 8002672:	f002 f9af 	bl	80049d4 <uart_printf>
	uart_print_str("\n motor_temp_cutoff_fault: ");
 8002676:	4869      	ldr	r0, [pc, #420]	@ (800281c <decode_MCU_Fault_Code+0x368>)
 8002678:	f002 f83e 	bl	80046f8 <uart_print_str>
	uart_printf("%d ",out->MCU_Fault_Code_1);
 800267c:	683b      	ldr	r3, [r7, #0]
 800267e:	685b      	ldr	r3, [r3, #4]
 8002680:	4619      	mov	r1, r3
 8002682:	4865      	ldr	r0, [pc, #404]	@ (8002818 <decode_MCU_Fault_Code+0x364>)
 8002684:	f002 f9a6 	bl	80049d4 <uart_printf>
	uart_print_str("\n Motor_temp_warning");
 8002688:	4865      	ldr	r0, [pc, #404]	@ (8002820 <decode_MCU_Fault_Code+0x36c>)
 800268a:	f002 f835 	bl	80046f8 <uart_print_str>
	uart_printf("%d",out->MCU_Fault_Code_2);
 800268e:	683b      	ldr	r3, [r7, #0]
 8002690:	689b      	ldr	r3, [r3, #8]
 8002692:	4619      	mov	r1, r3
 8002694:	4863      	ldr	r0, [pc, #396]	@ (8002824 <decode_MCU_Fault_Code+0x370>)
 8002696:	f002 f99d 	bl	80049d4 <uart_printf>
	uart_print_str("\n Motor_temp_sensor_fault: ");
 800269a:	4863      	ldr	r0, [pc, #396]	@ (8002828 <decode_MCU_Fault_Code+0x374>)
 800269c:	f002 f82c 	bl	80046f8 <uart_print_str>
	uart_printf("%d ",out->MCU_Fault_Code_3);
 80026a0:	683b      	ldr	r3, [r7, #0]
 80026a2:	68db      	ldr	r3, [r3, #12]
 80026a4:	4619      	mov	r1, r3
 80026a6:	485c      	ldr	r0, [pc, #368]	@ (8002818 <decode_MCU_Fault_Code+0x364>)
 80026a8:	f002 f994 	bl	80049d4 <uart_printf>
	uart_print_str("\n VCU_Brake_STG_Fault: ");
 80026ac:	485f      	ldr	r0, [pc, #380]	@ (800282c <decode_MCU_Fault_Code+0x378>)
 80026ae:	f002 f823 	bl	80046f8 <uart_print_str>
	uart_printf("%d ",out->MCU_Fault_Code_4);
 80026b2:	683b      	ldr	r3, [r7, #0]
 80026b4:	691b      	ldr	r3, [r3, #16]
 80026b6:	4619      	mov	r1, r3
 80026b8:	4857      	ldr	r0, [pc, #348]	@ (8002818 <decode_MCU_Fault_Code+0x364>)
 80026ba:	f002 f98b 	bl	80049d4 <uart_printf>
	uart_print_str("\n VCU_Brake_STB_Fault: ");
 80026be:	485c      	ldr	r0, [pc, #368]	@ (8002830 <decode_MCU_Fault_Code+0x37c>)
 80026c0:	f002 f81a 	bl	80046f8 <uart_print_str>
	uart_printf("%d ",out->MCU_Fault_Code_5);
 80026c4:	683b      	ldr	r3, [r7, #0]
 80026c6:	695b      	ldr	r3, [r3, #20]
 80026c8:	4619      	mov	r1, r3
 80026ca:	4853      	ldr	r0, [pc, #332]	@ (8002818 <decode_MCU_Fault_Code+0x364>)
 80026cc:	f002 f982 	bl	80049d4 <uart_printf>
	uart_print_str("\n VCU_Throttle2_STG_Fault: ");
 80026d0:	4858      	ldr	r0, [pc, #352]	@ (8002834 <decode_MCU_Fault_Code+0x380>)
 80026d2:	f002 f811 	bl	80046f8 <uart_print_str>
	uart_printf("%d \n ",out->MCU_Fault_Code_6);
 80026d6:	683b      	ldr	r3, [r7, #0]
 80026d8:	699b      	ldr	r3, [r3, #24]
 80026da:	4619      	mov	r1, r3
 80026dc:	4856      	ldr	r0, [pc, #344]	@ (8002838 <decode_MCU_Fault_Code+0x384>)
 80026de:	f002 f979 	bl	80049d4 <uart_printf>
	uart_print_str("\n VCU_Throttle2_STB_Fault: ");
 80026e2:	4856      	ldr	r0, [pc, #344]	@ (800283c <decode_MCU_Fault_Code+0x388>)
 80026e4:	f002 f808 	bl	80046f8 <uart_print_str>
	uart_printf("%d ",out->MCU_Fault_Code_7);
 80026e8:	683b      	ldr	r3, [r7, #0]
 80026ea:	69db      	ldr	r3, [r3, #28]
 80026ec:	4619      	mov	r1, r3
 80026ee:	484a      	ldr	r0, [pc, #296]	@ (8002818 <decode_MCU_Fault_Code+0x364>)
 80026f0:	f002 f970 	bl	80049d4 <uart_printf>
	uart_print_str("\n VCU_Throttle1_STB_Fault: ");
 80026f4:	4852      	ldr	r0, [pc, #328]	@ (8002840 <decode_MCU_Fault_Code+0x38c>)
 80026f6:	f001 ffff 	bl	80046f8 <uart_print_str>
	uart_printf("%d ",out->MCU_Fault_Code_8);
 80026fa:	683b      	ldr	r3, [r7, #0]
 80026fc:	6a1b      	ldr	r3, [r3, #32]
 80026fe:	4619      	mov	r1, r3
 8002700:	4845      	ldr	r0, [pc, #276]	@ (8002818 <decode_MCU_Fault_Code+0x364>)
 8002702:	f002 f967 	bl	80049d4 <uart_printf>
	uart_print_str("\n VCU_Throttle1_STG_Fault");
 8002706:	484f      	ldr	r0, [pc, #316]	@ (8002844 <decode_MCU_Fault_Code+0x390>)
 8002708:	f001 fff6 	bl	80046f8 <uart_print_str>
	uart_printf("%d ",out->MCU_Fault_Code_9);
 800270c:	683b      	ldr	r3, [r7, #0]
 800270e:	6a5b      	ldr	r3, [r3, #36]	@ 0x24
 8002710:	4619      	mov	r1, r3
 8002712:	4841      	ldr	r0, [pc, #260]	@ (8002818 <decode_MCU_Fault_Code+0x364>)
 8002714:	f002 f95e 	bl	80049d4 <uart_printf>
	uart_print_str("\n MCU_temp_warning: ");
 8002718:	484b      	ldr	r0, [pc, #300]	@ (8002848 <decode_MCU_Fault_Code+0x394>)
 800271a:	f001 ffed 	bl	80046f8 <uart_print_str>
	uart_printf("%d ",out->MCU_Fault_Code_10);
 800271e:	683b      	ldr	r3, [r7, #0]
 8002720:	6a9b      	ldr	r3, [r3, #40]	@ 0x28
 8002722:	4619      	mov	r1, r3
 8002724:	483c      	ldr	r0, [pc, #240]	@ (8002818 <decode_MCU_Fault_Code+0x364>)
 8002726:	f002 f955 	bl	80049d4 <uart_printf>
	uart_print_str("\n MCU_temp_sensor_fault: ");
 800272a:	4848      	ldr	r0, [pc, #288]	@ (800284c <decode_MCU_Fault_Code+0x398>)
 800272c:	f001 ffe4 	bl	80046f8 <uart_print_str>
	uart_printf("%d ",out->MCU_Fault_Code_11);
 8002730:	683b      	ldr	r3, [r7, #0]
 8002732:	6adb      	ldr	r3, [r3, #44]	@ 0x2c
 8002734:	4619      	mov	r1, r3
 8002736:	4838      	ldr	r0, [pc, #224]	@ (8002818 <decode_MCU_Fault_Code+0x364>)
 8002738:	f002 f94c 	bl	80049d4 <uart_printf>
	uart_print_str("\n VCU_LowSOC_Fault: ");
 800273c:	4844      	ldr	r0, [pc, #272]	@ (8002850 <decode_MCU_Fault_Code+0x39c>)
 800273e:	f001 ffdb 	bl	80046f8 <uart_print_str>
	uart_printf("%d ",out->MCU_Fault_Code_12);
 8002742:	683b      	ldr	r3, [r7, #0]
 8002744:	6b1b      	ldr	r3, [r3, #48]	@ 0x30
 8002746:	4619      	mov	r1, r3
 8002748:	4833      	ldr	r0, [pc, #204]	@ (8002818 <decode_MCU_Fault_Code+0x364>)
 800274a:	f002 f943 	bl	80049d4 <uart_printf>
	uart_print_str("\n VCU_AuxVoltage_cutoff: ");
 800274e:	4841      	ldr	r0, [pc, #260]	@ (8002854 <decode_MCU_Fault_Code+0x3a0>)
 8002750:	f001 ffd2 	bl	80046f8 <uart_print_str>
	uart_printf("%d \n ",out->MCU_Fault_Code_13);
 8002754:	683b      	ldr	r3, [r7, #0]
 8002756:	6b5b      	ldr	r3, [r3, #52]	@ 0x34
 8002758:	4619      	mov	r1, r3
 800275a:	4837      	ldr	r0, [pc, #220]	@ (8002838 <decode_MCU_Fault_Code+0x384>)
 800275c:	f002 f93a 	bl	80049d4 <uart_printf>
	uart_print_str("\n VCU_AuxVoltage_Warning: ");
 8002760:	483d      	ldr	r0, [pc, #244]	@ (8002858 <decode_MCU_Fault_Code+0x3a4>)
 8002762:	f001 ffc9 	bl	80046f8 <uart_print_str>
	uart_printf("%d ",out->MCU_Fault_Code_14);
 8002766:	683b      	ldr	r3, [r7, #0]
 8002768:	6b9b      	ldr	r3, [r3, #56]	@ 0x38
 800276a:	4619      	mov	r1, r3
 800276c:	482a      	ldr	r0, [pc, #168]	@ (8002818 <decode_MCU_Fault_Code+0x364>)
 800276e:	f002 f931 	bl	80049d4 <uart_printf>
	uart_print_str("\n MCU_Encoder_Fault: ");
 8002772:	483a      	ldr	r0, [pc, #232]	@ (800285c <decode_MCU_Fault_Code+0x3a8>)
 8002774:	f001 ffc0 	bl	80046f8 <uart_print_str>
	uart_printf("%d ",out->MCU_Fault_Code_15);
 8002778:	683b      	ldr	r3, [r7, #0]
 800277a:	6bdb      	ldr	r3, [r3, #60]	@ 0x3c
 800277c:	4619      	mov	r1, r3
 800277e:	4826      	ldr	r0, [pc, #152]	@ (8002818 <decode_MCU_Fault_Code+0x364>)
 8002780:	f002 f928 	bl	80049d4 <uart_printf>
	uart_print_str("\n MCU_FET_OPEN_FAULT: ");
 8002784:	4836      	ldr	r0, [pc, #216]	@ (8002860 <decode_MCU_Fault_Code+0x3ac>)
 8002786:	f001 ffb7 	bl	80046f8 <uart_print_str>
	uart_printf("%d ",out->MCU_Fault_Code_16);
 800278a:	683b      	ldr	r3, [r7, #0]
 800278c:	6c1b      	ldr	r3, [r3, #64]	@ 0x40
 800278e:	4619      	mov	r1, r3
 8002790:	4821      	ldr	r0, [pc, #132]	@ (8002818 <decode_MCU_Fault_Code+0x364>)
 8002792:	f002 f91f 	bl	80049d4 <uart_printf>
	uart_print_str("\n MCU_WheelLock_Fault");
 8002796:	4833      	ldr	r0, [pc, #204]	@ (8002864 <decode_MCU_Fault_Code+0x3b0>)
 8002798:	f001 ffae 	bl	80046f8 <uart_print_str>
	uart_printf("%d ",out->MCU_Fault_Code_17);
 800279c:	683b      	ldr	r3, [r7, #0]
 800279e:	6c5b      	ldr	r3, [r3, #68]	@ 0x44
 80027a0:	4619      	mov	r1, r3
 80027a2:	481d      	ldr	r0, [pc, #116]	@ (8002818 <decode_MCU_Fault_Code+0x364>)
 80027a4:	f002 f916 	bl	80049d4 <uart_printf>
	uart_print_str("\n MCU_SensorSupply_Fault: ");
 80027a8:	482f      	ldr	r0, [pc, #188]	@ (8002868 <decode_MCU_Fault_Code+0x3b4>)
 80027aa:	f001 ffa5 	bl	80046f8 <uart_print_str>
	uart_printf("%d ",out->MCU_Fault_Code_18);
 80027ae:	683b      	ldr	r3, [r7, #0]
 80027b0:	6c9b      	ldr	r3, [r3, #72]	@ 0x48
 80027b2:	4619      	mov	r1, r3
 80027b4:	4818      	ldr	r0, [pc, #96]	@ (8002818 <decode_MCU_Fault_Code+0x364>)
 80027b6:	f002 f90d 	bl	80049d4 <uart_printf>
	uart_print_str("\n MCU_OverCurrent_Fault: ");
 80027ba:	482c      	ldr	r0, [pc, #176]	@ (800286c <decode_MCU_Fault_Code+0x3b8>)
 80027bc:	f001 ff9c 	bl	80046f8 <uart_print_str>
	uart_printf("%d ",out->MCU_Fault_Code_19);
 80027c0:	683b      	ldr	r3, [r7, #0]
 80027c2:	6cdb      	ldr	r3, [r3, #76]	@ 0x4c
 80027c4:	4619      	mov	r1, r3
 80027c6:	4814      	ldr	r0, [pc, #80]	@ (8002818 <decode_MCU_Fault_Code+0x364>)
 80027c8:	f002 f904 	bl	80049d4 <uart_printf>
	uart_print_str("\n MCU_DC_CurrSensor_Fault: ");
 80027cc:	4828      	ldr	r0, [pc, #160]	@ (8002870 <decode_MCU_Fault_Code+0x3bc>)
 80027ce:	f001 ff93 	bl	80046f8 <uart_print_str>
	uart_printf("%d ",out->MCU_Fault_Code_20);
 80027d2:	683b      	ldr	r3, [r7, #0]
 80027d4:	6d1b      	ldr	r3, [r3, #80]	@ 0x50
 80027d6:	4619      	mov	r1, r3
 80027d8:	480f      	ldr	r0, [pc, #60]	@ (8002818 <decode_MCU_Fault_Code+0x364>)
 80027da:	f002 f8fb 	bl	80049d4 <uart_printf>
	uart_print_str("\n MCU_Foc_Fault: ");
 80027de:	4825      	ldr	r0, [pc, #148]	@ (8002874 <decode_MCU_Fault_Code+0x3c0>)
 80027e0:	f001 ff8a 	bl	80046f8 <uart_print_str>
	uart_printf("%d \n ",out->MCU_Fault_Code_21);
 80027e4:	683b      	ldr	r3, [r7, #0]
 80027e6:	6d5b      	ldr	r3, [r3, #84]	@ 0x54
 80027e8:	4619      	mov	r1, r3
 80027ea:	4813      	ldr	r0, [pc, #76]	@ (8002838 <decode_MCU_Fault_Code+0x384>)
 80027ec:	f002 f8f2 	bl	80049d4 <uart_printf>
	uart_print_str("\n MCU_PH_Sensor_Fault: ");
 80027f0:	4821      	ldr	r0, [pc, #132]	@ (8002878 <decode_MCU_Fault_Code+0x3c4>)
 80027f2:	f001 ff81 	bl	80046f8 <uart_print_str>
	uart_printf("%d ",out->MCU_Fault_Code_22);
 80027f6:	683b      	ldr	r3, [r7, #0]
 80027f8:	6d9b      	ldr	r3, [r3, #88]	@ 0x58
 80027fa:	4619      	mov	r1, r3
 80027fc:	4806      	ldr	r0, [pc, #24]	@ (8002818 <decode_MCU_Fault_Code+0x364>)
 80027fe:	f002 f8e9 	bl	80049d4 <uart_printf>
	uart_print_str("\n============================================\n");
 8002802:	481e      	ldr	r0, [pc, #120]	@ (800287c <decode_MCU_Fault_Code+0x3c8>)
 8002804:	f001 ff78 	bl	80046f8 <uart_print_str>
 8002808:	e000      	b.n	800280c <decode_MCU_Fault_Code+0x358>
	if (!out) return;
 800280a:	bf00      	nop
}
 800280c:	3708      	adds	r7, #8
 800280e:	46bd      	mov	sp, r7
 8002810:	bd80      	pop	{r7, pc}
 8002812:	bf00      	nop
 8002814:	08007a7c 	.word	0x08007a7c
 8002818:	08007a90 	.word	0x08007a90
 800281c:	08007a94 	.word	0x08007a94
 8002820:	08007ab0 	.word	0x08007ab0
 8002824:	08007ac8 	.word	0x08007ac8
 8002828:	08007acc 	.word	0x08007acc
 800282c:	08007ae8 	.word	0x08007ae8
 8002830:	08007b00 	.word	0x08007b00
 8002834:	08007b18 	.word	0x08007b18
 8002838:	08007b34 	.word	0x08007b34
 800283c:	08007b3c 	.word	0x08007b3c
 8002840:	08007b58 	.word	0x08007b58
 8002844:	08007b74 	.word	0x08007b74
 8002848:	08007b90 	.word	0x08007b90
 800284c:	08007ba8 	.word	0x08007ba8
 8002850:	08007bc4 	.word	0x08007bc4
 8002854:	08007bdc 	.word	0x08007bdc
 8002858:	08007bf8 	.word	0x08007bf8
 800285c:	08007c14 	.word	0x08007c14
 8002860:	08007c2c 	.word	0x08007c2c
 8002864:	08007c44 	.word	0x08007c44
 8002868:	08007c5c 	.word	0x08007c5c
 800286c:	08007c78 	.word	0x08007c78
 8002870:	08007c94 	.word	0x08007c94
 8002874:	08007cb0 	.word	0x08007cb0
 8002878:	08007cc4 	.word	0x08007cc4
 800287c:	08007a4c 	.word	0x08007a4c

08002880 <decode_MCU_FAULT_One>:
void decode_MCU_FAULT_One(const uint8_t *data, MCU_FAULT_One_t *out) {
 8002880:	b580      	push	{r7, lr}
 8002882:	b082      	sub	sp, #8
 8002884:	af00      	add	r7, sp, #0
 8002886:	6078      	str	r0, [r7, #4]
 8002888:	6039      	str	r1, [r7, #0]
if (!out) return;
 800288a:	683b      	ldr	r3, [r7, #0]
 800288c:	2b00      	cmp	r3, #0
 800288e:	f000 8124 	beq.w	8002ada <decode_MCU_FAULT_One+0x25a>
out->MCU_FAULT_One_sig0 = (int)extract_motorola_u64(data, 27, 1);
 8002892:	2201      	movs	r2, #1
 8002894:	211b      	movs	r1, #27
 8002896:	6878      	ldr	r0, [r7, #4]
 8002898:	f7ff fcb0 	bl	80021fc <extract_motorola_u64>
 800289c:	4602      	mov	r2, r0
 800289e:	460b      	mov	r3, r1
 80028a0:	683b      	ldr	r3, [r7, #0]
 80028a2:	601a      	str	r2, [r3, #0]
out->MCU_FAULT_One_sig1 = (int)extract_motorola_u64(data, 28, 1);
 80028a4:	2201      	movs	r2, #1
 80028a6:	211c      	movs	r1, #28
 80028a8:	6878      	ldr	r0, [r7, #4]
 80028aa:	f7ff fca7 	bl	80021fc <extract_motorola_u64>
 80028ae:	4602      	mov	r2, r0
 80028b0:	460b      	mov	r3, r1
 80028b2:	683b      	ldr	r3, [r7, #0]
 80028b4:	605a      	str	r2, [r3, #4]
out->MCU_FAULT_One_sig2 = (int)extract_motorola_u64(data, 39, 1);
 80028b6:	2201      	movs	r2, #1
 80028b8:	2127      	movs	r1, #39	@ 0x27
 80028ba:	6878      	ldr	r0, [r7, #4]
 80028bc:	f7ff fc9e 	bl	80021fc <extract_motorola_u64>
 80028c0:	4602      	mov	r2, r0
 80028c2:	460b      	mov	r3, r1
 80028c4:	683b      	ldr	r3, [r7, #0]
 80028c6:	609a      	str	r2, [r3, #8]
out->MCU_FAULT_One_sig3 = (int)extract_motorola_u64(data, 4, 1);
 80028c8:	2201      	movs	r2, #1
 80028ca:	2104      	movs	r1, #4
 80028cc:	6878      	ldr	r0, [r7, #4]
 80028ce:	f7ff fc95 	bl	80021fc <extract_motorola_u64>
 80028d2:	4602      	mov	r2, r0
 80028d4:	460b      	mov	r3, r1
 80028d6:	683b      	ldr	r3, [r7, #0]
 80028d8:	60da      	str	r2, [r3, #12]
out->MCU_FAULT_One_sig4 = (int)extract_motorola_u64(data, 2, 1);
 80028da:	2201      	movs	r2, #1
 80028dc:	2102      	movs	r1, #2
 80028de:	6878      	ldr	r0, [r7, #4]
 80028e0:	f7ff fc8c 	bl	80021fc <extract_motorola_u64>
 80028e4:	4602      	mov	r2, r0
 80028e6:	460b      	mov	r3, r1
 80028e8:	683b      	ldr	r3, [r7, #0]
 80028ea:	611a      	str	r2, [r3, #16]
out->MCU_FAULT_One_sig5 = (int)extract_motorola_u64(data, 18, 6);
 80028ec:	2206      	movs	r2, #6
 80028ee:	2112      	movs	r1, #18
 80028f0:	6878      	ldr	r0, [r7, #4]
 80028f2:	f7ff fc83 	bl	80021fc <extract_motorola_u64>
 80028f6:	4602      	mov	r2, r0
 80028f8:	460b      	mov	r3, r1
 80028fa:	683b      	ldr	r3, [r7, #0]
 80028fc:	615a      	str	r2, [r3, #20]
out->MCU_FAULT_One_sig6 = (int)extract_motorola_u64(data, 6, 1);
 80028fe:	2201      	movs	r2, #1
 8002900:	2106      	movs	r1, #6
 8002902:	6878      	ldr	r0, [r7, #4]
 8002904:	f7ff fc7a 	bl	80021fc <extract_motorola_u64>
 8002908:	4602      	mov	r2, r0
 800290a:	460b      	mov	r3, r1
 800290c:	683b      	ldr	r3, [r7, #0]
 800290e:	619a      	str	r2, [r3, #24]
out->MCU_FAULT_One_sig7 = (int)extract_motorola_u64(data, 9, 2);
 8002910:	2202      	movs	r2, #2
 8002912:	2109      	movs	r1, #9
 8002914:	6878      	ldr	r0, [r7, #4]
 8002916:	f7ff fc71 	bl	80021fc <extract_motorola_u64>
 800291a:	4602      	mov	r2, r0
 800291c:	460b      	mov	r3, r1
 800291e:	683b      	ldr	r3, [r7, #0]
 8002920:	61da      	str	r2, [r3, #28]
out->MCU_FAULT_One_sig8 = (int)extract_motorola_u64(data, 11, 2);
 8002922:	2202      	movs	r2, #2
 8002924:	210b      	movs	r1, #11
 8002926:	6878      	ldr	r0, [r7, #4]
 8002928:	f7ff fc68 	bl	80021fc <extract_motorola_u64>
 800292c:	4602      	mov	r2, r0
 800292e:	460b      	mov	r3, r1
 8002930:	683b      	ldr	r3, [r7, #0]
 8002932:	621a      	str	r2, [r3, #32]
out->MCU_FAULT_One_sig9 = (int)extract_motorola_u64(data, 1, 1);
 8002934:	2201      	movs	r2, #1
 8002936:	2101      	movs	r1, #1
 8002938:	6878      	ldr	r0, [r7, #4]
 800293a:	f7ff fc5f 	bl	80021fc <extract_motorola_u64>
 800293e:	4602      	mov	r2, r0
 8002940:	460b      	mov	r3, r1
 8002942:	683b      	ldr	r3, [r7, #0]
 8002944:	625a      	str	r2, [r3, #36]	@ 0x24
out->MCU_FAULT_One_sig10 = (int)extract_motorola_u64(data, 21, 1);
 8002946:	2201      	movs	r2, #1
 8002948:	2115      	movs	r1, #21
 800294a:	6878      	ldr	r0, [r7, #4]
 800294c:	f7ff fc56 	bl	80021fc <extract_motorola_u64>
 8002950:	4602      	mov	r2, r0
 8002952:	460b      	mov	r3, r1
 8002954:	683b      	ldr	r3, [r7, #0]
 8002956:	629a      	str	r2, [r3, #40]	@ 0x28
out->MCU_FAULT_One_sig11 = (int)extract_motorola_u64(data, 7, 1);
 8002958:	2201      	movs	r2, #1
 800295a:	2107      	movs	r1, #7
 800295c:	6878      	ldr	r0, [r7, #4]
 800295e:	f7ff fc4d 	bl	80021fc <extract_motorola_u64>
 8002962:	4602      	mov	r2, r0
 8002964:	460b      	mov	r3, r1
 8002966:	683b      	ldr	r3, [r7, #0]
 8002968:	62da      	str	r2, [r3, #44]	@ 0x2c
out->MCU_FAULT_One_sig12 = (int)extract_motorola_u64(data, 15, 4);
 800296a:	2204      	movs	r2, #4
 800296c:	210f      	movs	r1, #15
 800296e:	6878      	ldr	r0, [r7, #4]
 8002970:	f7ff fc44 	bl	80021fc <extract_motorola_u64>
 8002974:	4602      	mov	r2, r0
 8002976:	460b      	mov	r3, r1
 8002978:	683b      	ldr	r3, [r7, #0]
 800297a:	631a      	str	r2, [r3, #48]	@ 0x30
out->MCU_FAULT_One_sig13 = (int)extract_motorola_u64(data, 23, 2);
 800297c:	2202      	movs	r2, #2
 800297e:	2117      	movs	r1, #23
 8002980:	6878      	ldr	r0, [r7, #4]
 8002982:	f7ff fc3b 	bl	80021fc <extract_motorola_u64>
 8002986:	4602      	mov	r2, r0
 8002988:	460b      	mov	r3, r1
 800298a:	683b      	ldr	r3, [r7, #0]
 800298c:	635a      	str	r2, [r3, #52]	@ 0x34
out->MCU_FAULT_One_sig14 = (int)extract_motorola_u64(data, 3, 1);
 800298e:	2201      	movs	r2, #1
 8002990:	2103      	movs	r1, #3
 8002992:	6878      	ldr	r0, [r7, #4]
 8002994:	f7ff fc32 	bl	80021fc <extract_motorola_u64>
 8002998:	4602      	mov	r2, r0
 800299a:	460b      	mov	r3, r1
 800299c:	683b      	ldr	r3, [r7, #0]
 800299e:	639a      	str	r2, [r3, #56]	@ 0x38
out->MCU_FAULT_One_sig15 = (int)extract_motorola_u64(data, 5, 1);
 80029a0:	2201      	movs	r2, #1
 80029a2:	2105      	movs	r1, #5
 80029a4:	6878      	ldr	r0, [r7, #4]
 80029a6:	f7ff fc29 	bl	80021fc <extract_motorola_u64>
 80029aa:	4602      	mov	r2, r0
 80029ac:	460b      	mov	r3, r1
 80029ae:	683b      	ldr	r3, [r7, #0]
 80029b0:	63da      	str	r2, [r3, #60]	@ 0x3c
uart_print_str("\n HW_ASC_st_b: ");
 80029b2:	484c      	ldr	r0, [pc, #304]	@ (8002ae4 <decode_MCU_FAULT_One+0x264>)
 80029b4:	f001 fea0 	bl	80046f8 <uart_print_str>
uart_printf("%d ",out->MCU_FAULT_One_sig0);
 80029b8:	683b      	ldr	r3, [r7, #0]
 80029ba:	681b      	ldr	r3, [r3, #0]
 80029bc:	4619      	mov	r1, r3
 80029be:	484a      	ldr	r0, [pc, #296]	@ (8002ae8 <decode_MCU_FAULT_One+0x268>)
 80029c0:	f002 f808 	bl	80049d4 <uart_printf>
uart_print_str("\n MCU_FET_OPEN_FAULT: ");
 80029c4:	4849      	ldr	r0, [pc, #292]	@ (8002aec <decode_MCU_FAULT_One+0x26c>)
 80029c6:	f001 fe97 	bl	80046f8 <uart_print_str>
uart_printf("%d ",out->MCU_FAULT_One_sig1);
 80029ca:	683b      	ldr	r3, [r7, #0]
 80029cc:	685b      	ldr	r3, [r3, #4]
 80029ce:	4619      	mov	r1, r3
 80029d0:	4845      	ldr	r0, [pc, #276]	@ (8002ae8 <decode_MCU_FAULT_One+0x268>)
 80029d2:	f001 ffff 	bl	80049d4 <uart_printf>
uart_print_str("\n MCU_DCDCCONV_Fault_St_B");
 80029d6:	4846      	ldr	r0, [pc, #280]	@ (8002af0 <decode_MCU_FAULT_One+0x270>)
 80029d8:	f001 fe8e 	bl	80046f8 <uart_print_str>
uart_printf("%d ",out->MCU_FAULT_One_sig2);
 80029dc:	683b      	ldr	r3, [r7, #0]
 80029de:	689b      	ldr	r3, [r3, #8]
 80029e0:	4619      	mov	r1, r3
 80029e2:	4841      	ldr	r0, [pc, #260]	@ (8002ae8 <decode_MCU_FAULT_One+0x268>)
 80029e4:	f001 fff6 	bl	80049d4 <uart_printf>
uart_print_str("\n MCU_BatteryUV_St_B: ");
 80029e8:	4842      	ldr	r0, [pc, #264]	@ (8002af4 <decode_MCU_FAULT_One+0x274>)
 80029ea:	f001 fe85 	bl	80046f8 <uart_print_str>
uart_printf("%d ",out->MCU_FAULT_One_sig3);
 80029ee:	683b      	ldr	r3, [r7, #0]
 80029f0:	68db      	ldr	r3, [r3, #12]
 80029f2:	4619      	mov	r1, r3
 80029f4:	483c      	ldr	r0, [pc, #240]	@ (8002ae8 <decode_MCU_FAULT_One+0x268>)
 80029f6:	f001 ffed 	bl	80049d4 <uart_printf>
uart_print_str("\n MCU_VCUFault_St_B: ");
 80029fa:	483f      	ldr	r0, [pc, #252]	@ (8002af8 <decode_MCU_FAULT_One+0x278>)
 80029fc:	f001 fe7c 	bl	80046f8 <uart_print_str>
uart_printf("%d ",out->MCU_FAULT_One_sig4);
 8002a00:	683b      	ldr	r3, [r7, #0]
 8002a02:	691b      	ldr	r3, [r3, #16]
 8002a04:	4619      	mov	r1, r3
 8002a06:	4838      	ldr	r0, [pc, #224]	@ (8002ae8 <decode_MCU_FAULT_One+0x268>)
 8002a08:	f001 ffe4 	bl	80049d4 <uart_printf>
uart_print_str("\n MCU_PhaseISensorFault_enum: ");
 8002a0c:	483b      	ldr	r0, [pc, #236]	@ (8002afc <decode_MCU_FAULT_One+0x27c>)
 8002a0e:	f001 fe73 	bl	80046f8 <uart_print_str>
uart_printf("%d ",out->MCU_FAULT_One_sig5);
 8002a12:	683b      	ldr	r3, [r7, #0]
 8002a14:	695b      	ldr	r3, [r3, #20]
 8002a16:	4619      	mov	r1, r3
 8002a18:	4833      	ldr	r0, [pc, #204]	@ (8002ae8 <decode_MCU_FAULT_One+0x268>)
 8002a1a:	f001 ffdb 	bl	80049d4 <uart_printf>
uart_print_str("\n MCU_SpeedFault_St_B: ");
 8002a1e:	4838      	ldr	r0, [pc, #224]	@ (8002b00 <decode_MCU_FAULT_One+0x280>)
 8002a20:	f001 fe6a 	bl	80046f8 <uart_print_str>
uart_printf("%d \n ",out->MCU_FAULT_One_sig6);
 8002a24:	683b      	ldr	r3, [r7, #0]
 8002a26:	699b      	ldr	r3, [r3, #24]
 8002a28:	4619      	mov	r1, r3
 8002a2a:	4836      	ldr	r0, [pc, #216]	@ (8002b04 <decode_MCU_FAULT_One+0x284>)
 8002a2c:	f001 ffd2 	bl	80049d4 <uart_printf>
uart_print_str("\n MCU_SensorSupplyFault_enum: ");
 8002a30:	4835      	ldr	r0, [pc, #212]	@ (8002b08 <decode_MCU_FAULT_One+0x288>)
 8002a32:	f001 fe61 	bl	80046f8 <uart_print_str>
uart_printf("%d ",out->MCU_FAULT_One_sig7);
 8002a36:	683b      	ldr	r3, [r7, #0]
 8002a38:	69db      	ldr	r3, [r3, #28]
 8002a3a:	4619      	mov	r1, r3
 8002a3c:	482a      	ldr	r0, [pc, #168]	@ (8002ae8 <decode_MCU_FAULT_One+0x268>)
 8002a3e:	f001 ffc9 	bl	80049d4 <uart_printf>
uart_print_str("\n MCU_PhFault_enum: ");
 8002a42:	4832      	ldr	r0, [pc, #200]	@ (8002b0c <decode_MCU_FAULT_One+0x28c>)
 8002a44:	f001 fe58 	bl	80046f8 <uart_print_str>
uart_printf("%d ",out->MCU_FAULT_One_sig8);
 8002a48:	683b      	ldr	r3, [r7, #0]
 8002a4a:	6a1b      	ldr	r3, [r3, #32]
 8002a4c:	4619      	mov	r1, r3
 8002a4e:	4826      	ldr	r0, [pc, #152]	@ (8002ae8 <decode_MCU_FAULT_One+0x268>)
 8002a50:	f001 ffc0 	bl	80049d4 <uart_printf>
uart_print_str("\n MCU_PhaseSensorFault_enum");
 8002a54:	482e      	ldr	r0, [pc, #184]	@ (8002b10 <decode_MCU_FAULT_One+0x290>)
 8002a56:	f001 fe4f 	bl	80046f8 <uart_print_str>
uart_printf("%d ",out->MCU_FAULT_One_sig9);
 8002a5a:	683b      	ldr	r3, [r7, #0]
 8002a5c:	6a5b      	ldr	r3, [r3, #36]	@ 0x24
 8002a5e:	4619      	mov	r1, r3
 8002a60:	4821      	ldr	r0, [pc, #132]	@ (8002ae8 <decode_MCU_FAULT_One+0x268>)
 8002a62:	f001 ffb7 	bl	80049d4 <uart_printf>
uart_print_str("\n MCU_OverCurrentFault_enum: ");
 8002a66:	482b      	ldr	r0, [pc, #172]	@ (8002b14 <decode_MCU_FAULT_One+0x294>)
 8002a68:	f001 fe46 	bl	80046f8 <uart_print_str>
uart_printf("%d ",out->MCU_FAULT_One_sig10);
 8002a6c:	683b      	ldr	r3, [r7, #0]
 8002a6e:	6a9b      	ldr	r3, [r3, #40]	@ 0x28
 8002a70:	4619      	mov	r1, r3
 8002a72:	481d      	ldr	r0, [pc, #116]	@ (8002ae8 <decode_MCU_FAULT_One+0x268>)
 8002a74:	f001 ffae 	bl	80049d4 <uart_printf>
uart_print_str("\n MCU_FOCFault_St_B: ");
 8002a78:	4827      	ldr	r0, [pc, #156]	@ (8002b18 <decode_MCU_FAULT_One+0x298>)
 8002a7a:	f001 fe3d 	bl	80046f8 <uart_print_str>
uart_printf("%d ",out->MCU_FAULT_One_sig11);
 8002a7e:	683b      	ldr	r3, [r7, #0]
 8002a80:	6adb      	ldr	r3, [r3, #44]	@ 0x2c
 8002a82:	4619      	mov	r1, r3
 8002a84:	4818      	ldr	r0, [pc, #96]	@ (8002ae8 <decode_MCU_FAULT_One+0x268>)
 8002a86:	f001 ffa5 	bl	80049d4 <uart_printf>
uart_print_str("\n MCU_EncoderFault_enum: ");
 8002a8a:	4824      	ldr	r0, [pc, #144]	@ (8002b1c <decode_MCU_FAULT_One+0x29c>)
 8002a8c:	f001 fe34 	bl	80046f8 <uart_print_str>
uart_printf("%d ",out->MCU_FAULT_One_sig12);
 8002a90:	683b      	ldr	r3, [r7, #0]
 8002a92:	6b1b      	ldr	r3, [r3, #48]	@ 0x30
 8002a94:	4619      	mov	r1, r3
 8002a96:	4814      	ldr	r0, [pc, #80]	@ (8002ae8 <decode_MCU_FAULT_One+0x268>)
 8002a98:	f001 ff9c 	bl	80049d4 <uart_printf>
uart_print_str("\n MCU_DC_ISensorFault_St_B: ");
 8002a9c:	4820      	ldr	r0, [pc, #128]	@ (8002b20 <decode_MCU_FAULT_One+0x2a0>)
 8002a9e:	f001 fe2b 	bl	80046f8 <uart_print_str>
uart_printf("%d \n ",out->MCU_FAULT_One_sig13);
 8002aa2:	683b      	ldr	r3, [r7, #0]
 8002aa4:	6b5b      	ldr	r3, [r3, #52]	@ 0x34
 8002aa6:	4619      	mov	r1, r3
 8002aa8:	4816      	ldr	r0, [pc, #88]	@ (8002b04 <decode_MCU_FAULT_One+0x284>)
 8002aaa:	f001 ff93 	bl	80049d4 <uart_printf>
uart_print_str("\n MCU_ChargerFault_St_B: ");
 8002aae:	481d      	ldr	r0, [pc, #116]	@ (8002b24 <decode_MCU_FAULT_One+0x2a4>)
 8002ab0:	f001 fe22 	bl	80046f8 <uart_print_str>
uart_printf("%d ",out->MCU_FAULT_One_sig14);
 8002ab4:	683b      	ldr	r3, [r7, #0]
 8002ab6:	6b9b      	ldr	r3, [r3, #56]	@ 0x38
 8002ab8:	4619      	mov	r1, r3
 8002aba:	480b      	ldr	r0, [pc, #44]	@ (8002ae8 <decode_MCU_FAULT_One+0x268>)
 8002abc:	f001 ff8a 	bl	80049d4 <uart_printf>
uart_print_str("\n MCU_BatOVFault_St_B: ");
 8002ac0:	4819      	ldr	r0, [pc, #100]	@ (8002b28 <decode_MCU_FAULT_One+0x2a8>)
 8002ac2:	f001 fe19 	bl	80046f8 <uart_print_str>
uart_printf("%d ",out->MCU_FAULT_One_sig15);
 8002ac6:	683b      	ldr	r3, [r7, #0]
 8002ac8:	6bdb      	ldr	r3, [r3, #60]	@ 0x3c
 8002aca:	4619      	mov	r1, r3
 8002acc:	4806      	ldr	r0, [pc, #24]	@ (8002ae8 <decode_MCU_FAULT_One+0x268>)
 8002ace:	f001 ff81 	bl	80049d4 <uart_printf>
uart_print_str("\n============================================\n");
 8002ad2:	4816      	ldr	r0, [pc, #88]	@ (8002b2c <decode_MCU_FAULT_One+0x2ac>)
 8002ad4:	f001 fe10 	bl	80046f8 <uart_print_str>
 8002ad8:	e000      	b.n	8002adc <decode_MCU_FAULT_One+0x25c>
if (!out) return;
 8002ada:	bf00      	nop
}
 8002adc:	3708      	adds	r7, #8
 8002ade:	46bd      	mov	sp, r7
 8002ae0:	bd80      	pop	{r7, pc}
 8002ae2:	bf00      	nop
 8002ae4:	08007cdc 	.word	0x08007cdc
 8002ae8:	08007a90 	.word	0x08007a90
 8002aec:	08007c2c 	.word	0x08007c2c
 8002af0:	08007cec 	.word	0x08007cec
 8002af4:	08007d08 	.word	0x08007d08
 8002af8:	08007d20 	.word	0x08007d20
 8002afc:	08007d38 	.word	0x08007d38
 8002b00:	08007d58 	.word	0x08007d58
 8002b04:	08007b34 	.word	0x08007b34
 8002b08:	08007d70 	.word	0x08007d70
 8002b0c:	08007d90 	.word	0x08007d90
 8002b10:	08007da8 	.word	0x08007da8
 8002b14:	08007dc4 	.word	0x08007dc4
 8002b18:	08007de4 	.word	0x08007de4
 8002b1c:	08007dfc 	.word	0x08007dfc
 8002b20:	08007e18 	.word	0x08007e18
 8002b24:	08007e38 	.word	0x08007e38
 8002b28:	08007e54 	.word	0x08007e54
 8002b2c:	08007a4c 	.word	0x08007a4c

08002b30 <decode_MCU_FAULT_two>:
void decode_MCU_FAULT_two(const uint8_t *data, MCU_FAULT_two_t *out) {
 8002b30:	b580      	push	{r7, lr}
 8002b32:	b082      	sub	sp, #8
 8002b34:	af00      	add	r7, sp, #0
 8002b36:	6078      	str	r0, [r7, #4]
 8002b38:	6039      	str	r1, [r7, #0]
if (!out) return;
 8002b3a:	683b      	ldr	r3, [r7, #0]
 8002b3c:	2b00      	cmp	r3, #0
 8002b3e:	f000 8112 	beq.w	8002d66 <decode_MCU_FAULT_two+0x236>
	out->MCU_FAULT_two_sig0 = (int)extract_motorola_u64(data, 9, 3);
 8002b42:	2203      	movs	r2, #3
 8002b44:	2109      	movs	r1, #9
 8002b46:	6878      	ldr	r0, [r7, #4]
 8002b48:	f7ff fb58 	bl	80021fc <extract_motorola_u64>
 8002b4c:	4602      	mov	r2, r0
 8002b4e:	460b      	mov	r3, r1
 8002b50:	683b      	ldr	r3, [r7, #0]
 8002b52:	601a      	str	r2, [r3, #0]
	out->MCU_FAULT_two_sig1 = (int)extract_motorola_u64(data, 10, 1);
 8002b54:	2201      	movs	r2, #1
 8002b56:	210a      	movs	r1, #10
 8002b58:	6878      	ldr	r0, [r7, #4]
 8002b5a:	f7ff fb4f 	bl	80021fc <extract_motorola_u64>
 8002b5e:	4602      	mov	r2, r0
 8002b60:	460b      	mov	r3, r1
 8002b62:	683b      	ldr	r3, [r7, #0]
 8002b64:	605a      	str	r2, [r3, #4]
	out->MCU_FAULT_two_sig2 = (int)extract_motorola_u64(data, 11, 1);
 8002b66:	2201      	movs	r2, #1
 8002b68:	210b      	movs	r1, #11
 8002b6a:	6878      	ldr	r0, [r7, #4]
 8002b6c:	f7ff fb46 	bl	80021fc <extract_motorola_u64>
 8002b70:	4602      	mov	r2, r0
 8002b72:	460b      	mov	r3, r1
 8002b74:	683b      	ldr	r3, [r7, #0]
 8002b76:	609a      	str	r2, [r3, #8]
	out->MCU_FAULT_two_sig3 = (int)extract_motorola_u64(data, 12, 1);
 8002b78:	2201      	movs	r2, #1
 8002b7a:	210c      	movs	r1, #12
 8002b7c:	6878      	ldr	r0, [r7, #4]
 8002b7e:	f7ff fb3d 	bl	80021fc <extract_motorola_u64>
 8002b82:	4602      	mov	r2, r0
 8002b84:	460b      	mov	r3, r1
 8002b86:	683b      	ldr	r3, [r7, #0]
 8002b88:	60da      	str	r2, [r3, #12]
	out->MCU_FAULT_two_sig4 = (int)extract_motorola_u64(data, 13, 1);
 8002b8a:	2201      	movs	r2, #1
 8002b8c:	210d      	movs	r1, #13
 8002b8e:	6878      	ldr	r0, [r7, #4]
 8002b90:	f7ff fb34 	bl	80021fc <extract_motorola_u64>
 8002b94:	4602      	mov	r2, r0
 8002b96:	460b      	mov	r3, r1
 8002b98:	683b      	ldr	r3, [r7, #0]
 8002b9a:	611a      	str	r2, [r3, #16]
	out->MCU_FAULT_two_sig5 = (int)extract_motorola_u64(data, 14, 1);
 8002b9c:	2201      	movs	r2, #1
 8002b9e:	210e      	movs	r1, #14
 8002ba0:	6878      	ldr	r0, [r7, #4]
 8002ba2:	f7ff fb2b 	bl	80021fc <extract_motorola_u64>
 8002ba6:	4602      	mov	r2, r0
 8002ba8:	460b      	mov	r3, r1
 8002baa:	683b      	ldr	r3, [r7, #0]
 8002bac:	615a      	str	r2, [r3, #20]
	out->MCU_FAULT_two_sig6 = (int)extract_motorola_u64(data, 15, 1);
 8002bae:	2201      	movs	r2, #1
 8002bb0:	210f      	movs	r1, #15
 8002bb2:	6878      	ldr	r0, [r7, #4]
 8002bb4:	f7ff fb22 	bl	80021fc <extract_motorola_u64>
 8002bb8:	4602      	mov	r2, r0
 8002bba:	460b      	mov	r3, r1
 8002bbc:	683b      	ldr	r3, [r7, #0]
 8002bbe:	619a      	str	r2, [r3, #24]
	out->MCU_FAULT_two_sig7 = (int)extract_motorola_u64(data, 0, 1);
 8002bc0:	2201      	movs	r2, #1
 8002bc2:	2100      	movs	r1, #0
 8002bc4:	6878      	ldr	r0, [r7, #4]
 8002bc6:	f7ff fb19 	bl	80021fc <extract_motorola_u64>
 8002bca:	4602      	mov	r2, r0
 8002bcc:	460b      	mov	r3, r1
 8002bce:	683b      	ldr	r3, [r7, #0]
 8002bd0:	61da      	str	r2, [r3, #28]
	out->MCU_FAULT_two_sig8 = (int)extract_motorola_u64(data, 1, 1);
 8002bd2:	2201      	movs	r2, #1
 8002bd4:	2101      	movs	r1, #1
 8002bd6:	6878      	ldr	r0, [r7, #4]
 8002bd8:	f7ff fb10 	bl	80021fc <extract_motorola_u64>
 8002bdc:	4602      	mov	r2, r0
 8002bde:	460b      	mov	r3, r1
 8002be0:	683b      	ldr	r3, [r7, #0]
 8002be2:	621a      	str	r2, [r3, #32]
	out->MCU_FAULT_two_sig9 = (int)extract_motorola_u64(data, 2, 1);
 8002be4:	2201      	movs	r2, #1
 8002be6:	2102      	movs	r1, #2
 8002be8:	6878      	ldr	r0, [r7, #4]
 8002bea:	f7ff fb07 	bl	80021fc <extract_motorola_u64>
 8002bee:	4602      	mov	r2, r0
 8002bf0:	460b      	mov	r3, r1
 8002bf2:	683b      	ldr	r3, [r7, #0]
 8002bf4:	625a      	str	r2, [r3, #36]	@ 0x24
	out->MCU_FAULT_two_sig10 = (int)extract_motorola_u64(data, 3, 1);
 8002bf6:	2201      	movs	r2, #1
 8002bf8:	2103      	movs	r1, #3
 8002bfa:	6878      	ldr	r0, [r7, #4]
 8002bfc:	f7ff fafe 	bl	80021fc <extract_motorola_u64>
 8002c00:	4602      	mov	r2, r0
 8002c02:	460b      	mov	r3, r1
 8002c04:	683b      	ldr	r3, [r7, #0]
 8002c06:	629a      	str	r2, [r3, #40]	@ 0x28
	out->MCU_FAULT_two_sig11 = (int)extract_motorola_u64(data, 4, 1);
 8002c08:	2201      	movs	r2, #1
 8002c0a:	2104      	movs	r1, #4
 8002c0c:	6878      	ldr	r0, [r7, #4]
 8002c0e:	f7ff faf5 	bl	80021fc <extract_motorola_u64>
 8002c12:	4602      	mov	r2, r0
 8002c14:	460b      	mov	r3, r1
 8002c16:	683b      	ldr	r3, [r7, #0]
 8002c18:	62da      	str	r2, [r3, #44]	@ 0x2c
	out->MCU_FAULT_two_sig12 = (int)extract_motorola_u64(data, 5, 1);
 8002c1a:	2201      	movs	r2, #1
 8002c1c:	2105      	movs	r1, #5
 8002c1e:	6878      	ldr	r0, [r7, #4]
 8002c20:	f7ff faec 	bl	80021fc <extract_motorola_u64>
 8002c24:	4602      	mov	r2, r0
 8002c26:	460b      	mov	r3, r1
 8002c28:	683b      	ldr	r3, [r7, #0]
 8002c2a:	631a      	str	r2, [r3, #48]	@ 0x30
	out->MCU_FAULT_two_sig13 = (int)extract_motorola_u64(data, 6, 1);
 8002c2c:	2201      	movs	r2, #1
 8002c2e:	2106      	movs	r1, #6
 8002c30:	6878      	ldr	r0, [r7, #4]
 8002c32:	f7ff fae3 	bl	80021fc <extract_motorola_u64>
 8002c36:	4602      	mov	r2, r0
 8002c38:	460b      	mov	r3, r1
 8002c3a:	683b      	ldr	r3, [r7, #0]
 8002c3c:	635a      	str	r2, [r3, #52]	@ 0x34
	out->MCU_FAULT_two_sig14 = (int)extract_motorola_u64(data, 7, 1);
 8002c3e:	2201      	movs	r2, #1
 8002c40:	2107      	movs	r1, #7
 8002c42:	6878      	ldr	r0, [r7, #4]
 8002c44:	f7ff fada 	bl	80021fc <extract_motorola_u64>
 8002c48:	4602      	mov	r2, r0
 8002c4a:	460b      	mov	r3, r1
 8002c4c:	683b      	ldr	r3, [r7, #0]
 8002c4e:	639a      	str	r2, [r3, #56]	@ 0x38
	uart_print_str("\n VCU_BFNRFault_St_B: ");
 8002c50:	4847      	ldr	r0, [pc, #284]	@ (8002d70 <decode_MCU_FAULT_two+0x240>)
 8002c52:	f001 fd51 	bl	80046f8 <uart_print_str>
	uart_printf("%d ",out->MCU_FAULT_two_sig0);
 8002c56:	683b      	ldr	r3, [r7, #0]
 8002c58:	681b      	ldr	r3, [r3, #0]
 8002c5a:	4619      	mov	r1, r3
 8002c5c:	4845      	ldr	r0, [pc, #276]	@ (8002d74 <decode_MCU_FAULT_two+0x244>)
 8002c5e:	f001 feb9 	bl	80049d4 <uart_printf>
	uart_print_str("\n VCU_DCDCEnableFault_St_B: ");
 8002c62:	4845      	ldr	r0, [pc, #276]	@ (8002d78 <decode_MCU_FAULT_two+0x248>)
 8002c64:	f001 fd48 	bl	80046f8 <uart_print_str>
	uart_printf("%d ",out->MCU_FAULT_two_sig1);
 8002c68:	683b      	ldr	r3, [r7, #0]
 8002c6a:	685b      	ldr	r3, [r3, #4]
 8002c6c:	4619      	mov	r1, r3
 8002c6e:	4841      	ldr	r0, [pc, #260]	@ (8002d74 <decode_MCU_FAULT_two+0x244>)
 8002c70:	f001 feb0 	bl	80049d4 <uart_printf>
	uart_print_str("\n VCU_ThrottleMismatch_St_B");
 8002c74:	4841      	ldr	r0, [pc, #260]	@ (8002d7c <decode_MCU_FAULT_two+0x24c>)
 8002c76:	f001 fd3f 	bl	80046f8 <uart_print_str>
	uart_printf("%d ",out->MCU_FAULT_two_sig2);
 8002c7a:	683b      	ldr	r3, [r7, #0]
 8002c7c:	689b      	ldr	r3, [r3, #8]
 8002c7e:	4619      	mov	r1, r3
 8002c80:	483c      	ldr	r0, [pc, #240]	@ (8002d74 <decode_MCU_FAULT_two+0x244>)
 8002c82:	f001 fea7 	bl	80049d4 <uart_printf>
	uart_print_str("\n VCU_LowSOC_Fault_St_B: ");
 8002c86:	483e      	ldr	r0, [pc, #248]	@ (8002d80 <decode_MCU_FAULT_two+0x250>)
 8002c88:	f001 fd36 	bl	80046f8 <uart_print_str>
	uart_printf("%d ",out->MCU_FAULT_two_sig3);
 8002c8c:	683b      	ldr	r3, [r7, #0]
 8002c8e:	68db      	ldr	r3, [r3, #12]
 8002c90:	4619      	mov	r1, r3
 8002c92:	4838      	ldr	r0, [pc, #224]	@ (8002d74 <decode_MCU_FAULT_two+0x244>)
 8002c94:	f001 fe9e 	bl	80049d4 <uart_printf>
	uart_print_str("\n VCU_LowSOC_Warning_St_B: ");
 8002c98:	483a      	ldr	r0, [pc, #232]	@ (8002d84 <decode_MCU_FAULT_two+0x254>)
 8002c9a:	f001 fd2d 	bl	80046f8 <uart_print_str>
	uart_printf("%d ",out->MCU_FAULT_two_sig4);
 8002c9e:	683b      	ldr	r3, [r7, #0]
 8002ca0:	691b      	ldr	r3, [r3, #16]
 8002ca2:	4619      	mov	r1, r3
 8002ca4:	4833      	ldr	r0, [pc, #204]	@ (8002d74 <decode_MCU_FAULT_two+0x244>)
 8002ca6:	f001 fe95 	bl	80049d4 <uart_printf>
	uart_print_str("\n VCU_AuxBatteryUV_Fault_St_B: ");
 8002caa:	4837      	ldr	r0, [pc, #220]	@ (8002d88 <decode_MCU_FAULT_two+0x258>)
 8002cac:	f001 fd24 	bl	80046f8 <uart_print_str>
	uart_printf("%d ",out->MCU_FAULT_two_sig5);
 8002cb0:	683b      	ldr	r3, [r7, #0]
 8002cb2:	695b      	ldr	r3, [r3, #20]
 8002cb4:	4619      	mov	r1, r3
 8002cb6:	482f      	ldr	r0, [pc, #188]	@ (8002d74 <decode_MCU_FAULT_two+0x244>)
 8002cb8:	f001 fe8c 	bl	80049d4 <uart_printf>
	uart_print_str("\n VCU_AuxVoltageUV_Warning_St_B: ");
 8002cbc:	4833      	ldr	r0, [pc, #204]	@ (8002d8c <decode_MCU_FAULT_two+0x25c>)
 8002cbe:	f001 fd1b 	bl	80046f8 <uart_print_str>
	uart_printf("%d \n ",out->MCU_FAULT_two_sig6);
 8002cc2:	683b      	ldr	r3, [r7, #0]
 8002cc4:	699b      	ldr	r3, [r3, #24]
 8002cc6:	4619      	mov	r1, r3
 8002cc8:	4831      	ldr	r0, [pc, #196]	@ (8002d90 <decode_MCU_FAULT_two+0x260>)
 8002cca:	f001 fe83 	bl	80049d4 <uart_printf>
	uart_print_str("\n VCU_OverSpeed_Fault_St_B: ");
 8002cce:	4831      	ldr	r0, [pc, #196]	@ (8002d94 <decode_MCU_FAULT_two+0x264>)
 8002cd0:	f001 fd12 	bl	80046f8 <uart_print_str>
	uart_printf("%d ",out->MCU_FAULT_two_sig7);
 8002cd4:	683b      	ldr	r3, [r7, #0]
 8002cd6:	69db      	ldr	r3, [r3, #28]
 8002cd8:	4619      	mov	r1, r3
 8002cda:	4826      	ldr	r0, [pc, #152]	@ (8002d74 <decode_MCU_FAULT_two+0x244>)
 8002cdc:	f001 fe7a 	bl	80049d4 <uart_printf>
	uart_print_str("\n VCU_OverSpeed_Warning_St_B: ");
 8002ce0:	482d      	ldr	r0, [pc, #180]	@ (8002d98 <decode_MCU_FAULT_two+0x268>)
 8002ce2:	f001 fd09 	bl	80046f8 <uart_print_str>
	uart_printf("%d ",out->MCU_FAULT_two_sig8);
 8002ce6:	683b      	ldr	r3, [r7, #0]
 8002ce8:	6a1b      	ldr	r3, [r3, #32]
 8002cea:	4619      	mov	r1, r3
 8002cec:	4821      	ldr	r0, [pc, #132]	@ (8002d74 <decode_MCU_FAULT_two+0x244>)
 8002cee:	f001 fe71 	bl	80049d4 <uart_printf>
	uart_print_str("\n VCU_Brake_STB_St_B");
 8002cf2:	482a      	ldr	r0, [pc, #168]	@ (8002d9c <decode_MCU_FAULT_two+0x26c>)
 8002cf4:	f001 fd00 	bl	80046f8 <uart_print_str>
	uart_printf("%d ",out->MCU_FAULT_two_sig9);
 8002cf8:	683b      	ldr	r3, [r7, #0]
 8002cfa:	6a5b      	ldr	r3, [r3, #36]	@ 0x24
 8002cfc:	4619      	mov	r1, r3
 8002cfe:	481d      	ldr	r0, [pc, #116]	@ (8002d74 <decode_MCU_FAULT_two+0x244>)
 8002d00:	f001 fe68 	bl	80049d4 <uart_printf>
	uart_print_str("\n VCU_Brake_STG_St_B: ");
 8002d04:	4826      	ldr	r0, [pc, #152]	@ (8002da0 <decode_MCU_FAULT_two+0x270>)
 8002d06:	f001 fcf7 	bl	80046f8 <uart_print_str>
	uart_printf("%d ",out->MCU_FAULT_two_sig10);
 8002d0a:	683b      	ldr	r3, [r7, #0]
 8002d0c:	6a9b      	ldr	r3, [r3, #40]	@ 0x28
 8002d0e:	4619      	mov	r1, r3
 8002d10:	4818      	ldr	r0, [pc, #96]	@ (8002d74 <decode_MCU_FAULT_two+0x244>)
 8002d12:	f001 fe5f 	bl	80049d4 <uart_printf>
	uart_print_str("\n VCU_Throttle2_STB_St_B: ");
 8002d16:	4823      	ldr	r0, [pc, #140]	@ (8002da4 <decode_MCU_FAULT_two+0x274>)
 8002d18:	f001 fcee 	bl	80046f8 <uart_print_str>
	uart_printf("%d ",out->MCU_FAULT_two_sig11);
 8002d1c:	683b      	ldr	r3, [r7, #0]
 8002d1e:	6adb      	ldr	r3, [r3, #44]	@ 0x2c
 8002d20:	4619      	mov	r1, r3
 8002d22:	4814      	ldr	r0, [pc, #80]	@ (8002d74 <decode_MCU_FAULT_two+0x244>)
 8002d24:	f001 fe56 	bl	80049d4 <uart_printf>
	uart_print_str("\n VCU_Throttle2_STG_St_B: ");
 8002d28:	481f      	ldr	r0, [pc, #124]	@ (8002da8 <decode_MCU_FAULT_two+0x278>)
 8002d2a:	f001 fce5 	bl	80046f8 <uart_print_str>
	uart_printf("%d ",out->MCU_FAULT_two_sig12);
 8002d2e:	683b      	ldr	r3, [r7, #0]
 8002d30:	6b1b      	ldr	r3, [r3, #48]	@ 0x30
 8002d32:	4619      	mov	r1, r3
 8002d34:	480f      	ldr	r0, [pc, #60]	@ (8002d74 <decode_MCU_FAULT_two+0x244>)
 8002d36:	f001 fe4d 	bl	80049d4 <uart_printf>
	uart_print_str("\n VCU_Throttle1_STB_St_B: ");
 8002d3a:	481c      	ldr	r0, [pc, #112]	@ (8002dac <decode_MCU_FAULT_two+0x27c>)
 8002d3c:	f001 fcdc 	bl	80046f8 <uart_print_str>
	uart_printf("%d \n ",out->MCU_FAULT_two_sig13);
 8002d40:	683b      	ldr	r3, [r7, #0]
 8002d42:	6b5b      	ldr	r3, [r3, #52]	@ 0x34
 8002d44:	4619      	mov	r1, r3
 8002d46:	4812      	ldr	r0, [pc, #72]	@ (8002d90 <decode_MCU_FAULT_two+0x260>)
 8002d48:	f001 fe44 	bl	80049d4 <uart_printf>
	uart_print_str("\n VCU_Throttle1_STG_St_B: ");
 8002d4c:	4818      	ldr	r0, [pc, #96]	@ (8002db0 <decode_MCU_FAULT_two+0x280>)
 8002d4e:	f001 fcd3 	bl	80046f8 <uart_print_str>
	uart_printf("%d ",out->MCU_FAULT_two_sig14);
 8002d52:	683b      	ldr	r3, [r7, #0]
 8002d54:	6b9b      	ldr	r3, [r3, #56]	@ 0x38
 8002d56:	4619      	mov	r1, r3
 8002d58:	4806      	ldr	r0, [pc, #24]	@ (8002d74 <decode_MCU_FAULT_two+0x244>)
 8002d5a:	f001 fe3b 	bl	80049d4 <uart_printf>
	uart_print_str("\n============================================\n");
 8002d5e:	4815      	ldr	r0, [pc, #84]	@ (8002db4 <decode_MCU_FAULT_two+0x284>)
 8002d60:	f001 fcca 	bl	80046f8 <uart_print_str>
 8002d64:	e000      	b.n	8002d68 <decode_MCU_FAULT_two+0x238>
if (!out) return;
 8002d66:	bf00      	nop
}
 8002d68:	3708      	adds	r7, #8
 8002d6a:	46bd      	mov	sp, r7
 8002d6c:	bd80      	pop	{r7, pc}
 8002d6e:	bf00      	nop
 8002d70:	08007e6c 	.word	0x08007e6c
 8002d74:	08007a90 	.word	0x08007a90
 8002d78:	08007e84 	.word	0x08007e84
 8002d7c:	08007ea4 	.word	0x08007ea4
 8002d80:	08007ec0 	.word	0x08007ec0
 8002d84:	08007edc 	.word	0x08007edc
 8002d88:	08007ef8 	.word	0x08007ef8
 8002d8c:	08007f18 	.word	0x08007f18
 8002d90:	08007b34 	.word	0x08007b34
 8002d94:	08007f3c 	.word	0x08007f3c
 8002d98:	08007f5c 	.word	0x08007f5c
 8002d9c:	08007f7c 	.word	0x08007f7c
 8002da0:	08007f94 	.word	0x08007f94
 8002da4:	08007fac 	.word	0x08007fac
 8002da8:	08007fc8 	.word	0x08007fc8
 8002dac:	08007fe4 	.word	0x08007fe4
 8002db0:	08008000 	.word	0x08008000
 8002db4:	08007a4c 	.word	0x08007a4c

08002db8 <decode_HearthBeat>:
void decode_HearthBeat(const uint8_t *data, HearthBeat_t *out) {
 8002db8:	b580      	push	{r7, lr}
 8002dba:	b082      	sub	sp, #8
 8002dbc:	af00      	add	r7, sp, #0
 8002dbe:	6078      	str	r0, [r7, #4]
 8002dc0:	6039      	str	r1, [r7, #0]
if (!out) return;
 8002dc2:	683b      	ldr	r3, [r7, #0]
 8002dc4:	2b00      	cmp	r3, #0
 8002dc6:	f000 80c1 	beq.w	8002f4c <decode_HearthBeat+0x194>
out->HeartBeat_Stat0 = (double)extract_little_endian_u64(data, 0, 1);
 8002dca:	2201      	movs	r2, #1
 8002dcc:	2100      	movs	r1, #0
 8002dce:	6878      	ldr	r0, [r7, #4]
 8002dd0:	f7ff fa7f 	bl	80022d2 <extract_little_endian_u64>
 8002dd4:	4602      	mov	r2, r0
 8002dd6:	460b      	mov	r3, r1
 8002dd8:	4610      	mov	r0, r2
 8002dda:	4619      	mov	r1, r3
 8002ddc:	f7fd fc68 	bl	80006b0 <__aeabi_ul2d>
 8002de0:	4602      	mov	r2, r0
 8002de2:	460b      	mov	r3, r1
 8002de4:	6839      	ldr	r1, [r7, #0]
 8002de6:	e9c1 2300 	strd	r2, r3, [r1]
out->HeartBeat_Stat1 = (double)extract_little_endian_u64(data, 1, 1);
 8002dea:	2201      	movs	r2, #1
 8002dec:	2101      	movs	r1, #1
 8002dee:	6878      	ldr	r0, [r7, #4]
 8002df0:	f7ff fa6f 	bl	80022d2 <extract_little_endian_u64>
 8002df4:	4602      	mov	r2, r0
 8002df6:	460b      	mov	r3, r1
 8002df8:	4610      	mov	r0, r2
 8002dfa:	4619      	mov	r1, r3
 8002dfc:	f7fd fc58 	bl	80006b0 <__aeabi_ul2d>
 8002e00:	4602      	mov	r2, r0
 8002e02:	460b      	mov	r3, r1
 8002e04:	6839      	ldr	r1, [r7, #0]
 8002e06:	e9c1 2302 	strd	r2, r3, [r1, #8]
out->HeartBeat_Stat2 = (double)extract_little_endian_u64(data, 2, 1);
 8002e0a:	2201      	movs	r2, #1
 8002e0c:	2102      	movs	r1, #2
 8002e0e:	6878      	ldr	r0, [r7, #4]
 8002e10:	f7ff fa5f 	bl	80022d2 <extract_little_endian_u64>
 8002e14:	4602      	mov	r2, r0
 8002e16:	460b      	mov	r3, r1
 8002e18:	4610      	mov	r0, r2
 8002e1a:	4619      	mov	r1, r3
 8002e1c:	f7fd fc48 	bl	80006b0 <__aeabi_ul2d>
 8002e20:	4602      	mov	r2, r0
 8002e22:	460b      	mov	r3, r1
 8002e24:	6839      	ldr	r1, [r7, #0]
 8002e26:	e9c1 2304 	strd	r2, r3, [r1, #16]
out->HeartBeat_Stat3 = (double)extract_little_endian_u64(data, 3, 1);
 8002e2a:	2201      	movs	r2, #1
 8002e2c:	2103      	movs	r1, #3
 8002e2e:	6878      	ldr	r0, [r7, #4]
 8002e30:	f7ff fa4f 	bl	80022d2 <extract_little_endian_u64>
 8002e34:	4602      	mov	r2, r0
 8002e36:	460b      	mov	r3, r1
 8002e38:	4610      	mov	r0, r2
 8002e3a:	4619      	mov	r1, r3
 8002e3c:	f7fd fc38 	bl	80006b0 <__aeabi_ul2d>
 8002e40:	4602      	mov	r2, r0
 8002e42:	460b      	mov	r3, r1
 8002e44:	6839      	ldr	r1, [r7, #0]
 8002e46:	e9c1 2306 	strd	r2, r3, [r1, #24]
out->HeartBeat_Stat4 = (double)extract_little_endian_u64(data, 4, 1);
 8002e4a:	2201      	movs	r2, #1
 8002e4c:	2104      	movs	r1, #4
 8002e4e:	6878      	ldr	r0, [r7, #4]
 8002e50:	f7ff fa3f 	bl	80022d2 <extract_little_endian_u64>
 8002e54:	4602      	mov	r2, r0
 8002e56:	460b      	mov	r3, r1
 8002e58:	4610      	mov	r0, r2
 8002e5a:	4619      	mov	r1, r3
 8002e5c:	f7fd fc28 	bl	80006b0 <__aeabi_ul2d>
 8002e60:	4602      	mov	r2, r0
 8002e62:	460b      	mov	r3, r1
 8002e64:	6839      	ldr	r1, [r7, #0]
 8002e66:	e9c1 2308 	strd	r2, r3, [r1, #32]
out->HeartBeat_Stat5 = (double)extract_little_endian_u64(data, 5, 1);
 8002e6a:	2201      	movs	r2, #1
 8002e6c:	2105      	movs	r1, #5
 8002e6e:	6878      	ldr	r0, [r7, #4]
 8002e70:	f7ff fa2f 	bl	80022d2 <extract_little_endian_u64>
 8002e74:	4602      	mov	r2, r0
 8002e76:	460b      	mov	r3, r1
 8002e78:	4610      	mov	r0, r2
 8002e7a:	4619      	mov	r1, r3
 8002e7c:	f7fd fc18 	bl	80006b0 <__aeabi_ul2d>
 8002e80:	4602      	mov	r2, r0
 8002e82:	460b      	mov	r3, r1
 8002e84:	6839      	ldr	r1, [r7, #0]
 8002e86:	e9c1 230a 	strd	r2, r3, [r1, #40]	@ 0x28
out->HeartBeat_Stat6 = (double)extract_little_endian_u64(data, 6, 1);
 8002e8a:	2201      	movs	r2, #1
 8002e8c:	2106      	movs	r1, #6
 8002e8e:	6878      	ldr	r0, [r7, #4]
 8002e90:	f7ff fa1f 	bl	80022d2 <extract_little_endian_u64>
 8002e94:	4602      	mov	r2, r0
 8002e96:	460b      	mov	r3, r1
 8002e98:	4610      	mov	r0, r2
 8002e9a:	4619      	mov	r1, r3
 8002e9c:	f7fd fc08 	bl	80006b0 <__aeabi_ul2d>
 8002ea0:	4602      	mov	r2, r0
 8002ea2:	460b      	mov	r3, r1
 8002ea4:	6839      	ldr	r1, [r7, #0]
 8002ea6:	e9c1 230c 	strd	r2, r3, [r1, #48]	@ 0x30
out->HeartBeat_Stat7 = (double)extract_little_endian_u64(data, 7, 1);
 8002eaa:	2201      	movs	r2, #1
 8002eac:	2107      	movs	r1, #7
 8002eae:	6878      	ldr	r0, [r7, #4]
 8002eb0:	f7ff fa0f 	bl	80022d2 <extract_little_endian_u64>
 8002eb4:	4602      	mov	r2, r0
 8002eb6:	460b      	mov	r3, r1
 8002eb8:	4610      	mov	r0, r2
 8002eba:	4619      	mov	r1, r3
 8002ebc:	f7fd fbf8 	bl	80006b0 <__aeabi_ul2d>
 8002ec0:	4602      	mov	r2, r0
 8002ec2:	460b      	mov	r3, r1
 8002ec4:	6839      	ldr	r1, [r7, #0]
 8002ec6:	e9c1 230e 	strd	r2, r3, [r1, #56]	@ 0x38
out->HeartBeat_Stat8 = (double)extract_little_endian_u64(data, 8, 1);
 8002eca:	2201      	movs	r2, #1
 8002ecc:	2108      	movs	r1, #8
 8002ece:	6878      	ldr	r0, [r7, #4]
 8002ed0:	f7ff f9ff 	bl	80022d2 <extract_little_endian_u64>
 8002ed4:	4602      	mov	r2, r0
 8002ed6:	460b      	mov	r3, r1
 8002ed8:	4610      	mov	r0, r2
 8002eda:	4619      	mov	r1, r3
 8002edc:	f7fd fbe8 	bl	80006b0 <__aeabi_ul2d>
 8002ee0:	4602      	mov	r2, r0
 8002ee2:	460b      	mov	r3, r1
 8002ee4:	6839      	ldr	r1, [r7, #0]
 8002ee6:	e9c1 2310 	strd	r2, r3, [r1, #64]	@ 0x40
out->HeartBeat_Stat9 = (double)extract_little_endian_u64(data, 9, 1);
 8002eea:	2201      	movs	r2, #1
 8002eec:	2109      	movs	r1, #9
 8002eee:	6878      	ldr	r0, [r7, #4]
 8002ef0:	f7ff f9ef 	bl	80022d2 <extract_little_endian_u64>
 8002ef4:	4602      	mov	r2, r0
 8002ef6:	460b      	mov	r3, r1
 8002ef8:	4610      	mov	r0, r2
 8002efa:	4619      	mov	r1, r3
 8002efc:	f7fd fbd8 	bl	80006b0 <__aeabi_ul2d>
 8002f00:	4602      	mov	r2, r0
 8002f02:	460b      	mov	r3, r1
 8002f04:	6839      	ldr	r1, [r7, #0]
 8002f06:	e9c1 2312 	strd	r2, r3, [r1, #72]	@ 0x48
out->HeartBeat_Stat10 = (double)extract_little_endian_u64(data, 10, 1);
 8002f0a:	2201      	movs	r2, #1
 8002f0c:	210a      	movs	r1, #10
 8002f0e:	6878      	ldr	r0, [r7, #4]
 8002f10:	f7ff f9df 	bl	80022d2 <extract_little_endian_u64>
 8002f14:	4602      	mov	r2, r0
 8002f16:	460b      	mov	r3, r1
 8002f18:	4610      	mov	r0, r2
 8002f1a:	4619      	mov	r1, r3
 8002f1c:	f7fd fbc8 	bl	80006b0 <__aeabi_ul2d>
 8002f20:	4602      	mov	r2, r0
 8002f22:	460b      	mov	r3, r1
 8002f24:	6839      	ldr	r1, [r7, #0]
 8002f26:	e9c1 2314 	strd	r2, r3, [r1, #80]	@ 0x50
out->HeartBeat_Stat11 = (double)extract_little_endian_u64(data, 11, 1);
 8002f2a:	2201      	movs	r2, #1
 8002f2c:	210b      	movs	r1, #11
 8002f2e:	6878      	ldr	r0, [r7, #4]
 8002f30:	f7ff f9cf 	bl	80022d2 <extract_little_endian_u64>
 8002f34:	4602      	mov	r2, r0
 8002f36:	460b      	mov	r3, r1
 8002f38:	4610      	mov	r0, r2
 8002f3a:	4619      	mov	r1, r3
 8002f3c:	f7fd fbb8 	bl	80006b0 <__aeabi_ul2d>
 8002f40:	4602      	mov	r2, r0
 8002f42:	460b      	mov	r3, r1
 8002f44:	6839      	ldr	r1, [r7, #0]
 8002f46:	e9c1 2316 	strd	r2, r3, [r1, #88]	@ 0x58
 8002f4a:	e000      	b.n	8002f4e <decode_HearthBeat+0x196>
if (!out) return;
 8002f4c:	bf00      	nop
}
 8002f4e:	3708      	adds	r7, #8
 8002f50:	46bd      	mov	sp, r7
 8002f52:	bd80      	pop	{r7, pc}
 8002f54:	0000      	movs	r0, r0
	...

08002f58 <decode_MCU_Stat_One>:
//uart_print_str("done \n\r");
//
//}


void decode_MCU_Stat_One(const uint8_t *data, MCU_Stat_One_t *out) {
 8002f58:	b580      	push	{r7, lr}
 8002f5a:	b082      	sub	sp, #8
 8002f5c:	af00      	add	r7, sp, #0
 8002f5e:	6078      	str	r0, [r7, #4]
 8002f60:	6039      	str	r1, [r7, #0]
	if (!out) return;
 8002f62:	683b      	ldr	r3, [r7, #0]
 8002f64:	2b00      	cmp	r3, #0
 8002f66:	f000 8094 	beq.w	8003092 <decode_MCU_Stat_One+0x13a>
	out->MCU_Stat_One_sig0 = (int)extract_little_endian_u64(data, 8, 8)-40;
 8002f6a:	2208      	movs	r2, #8
 8002f6c:	2108      	movs	r1, #8
 8002f6e:	6878      	ldr	r0, [r7, #4]
 8002f70:	f7ff f9af 	bl	80022d2 <extract_little_endian_u64>
 8002f74:	4602      	mov	r2, r0
 8002f76:	460b      	mov	r3, r1
 8002f78:	4613      	mov	r3, r2
 8002f7a:	f1a3 0228 	sub.w	r2, r3, #40	@ 0x28
 8002f7e:	683b      	ldr	r3, [r7, #0]
 8002f80:	601a      	str	r2, [r3, #0]
	out->MCU_Stat_One_sig1 = (int)extract_little_endian_u64(data, 0, 8)-40;
 8002f82:	2208      	movs	r2, #8
 8002f84:	2100      	movs	r1, #0
 8002f86:	6878      	ldr	r0, [r7, #4]
 8002f88:	f7ff f9a3 	bl	80022d2 <extract_little_endian_u64>
 8002f8c:	4602      	mov	r2, r0
 8002f8e:	460b      	mov	r3, r1
 8002f90:	4613      	mov	r3, r2
 8002f92:	f1a3 0228 	sub.w	r2, r3, #40	@ 0x28
 8002f96:	683b      	ldr	r3, [r7, #0]
 8002f98:	605a      	str	r2, [r3, #4]
	out->MCU_Stat_One_sig2 = (double)extract_little_endian_u64(data, 16, 16)*0.1;
 8002f9a:	2210      	movs	r2, #16
 8002f9c:	2110      	movs	r1, #16
 8002f9e:	6878      	ldr	r0, [r7, #4]
 8002fa0:	f7ff f997 	bl	80022d2 <extract_little_endian_u64>
 8002fa4:	4602      	mov	r2, r0
 8002fa6:	460b      	mov	r3, r1
 8002fa8:	4610      	mov	r0, r2
 8002faa:	4619      	mov	r1, r3
 8002fac:	f7fd fb80 	bl	80006b0 <__aeabi_ul2d>
 8002fb0:	a33b      	add	r3, pc, #236	@ (adr r3, 80030a0 <decode_MCU_Stat_One+0x148>)
 8002fb2:	e9d3 2300 	ldrd	r2, r3, [r3]
 8002fb6:	f7fd f8cb 	bl	8000150 <__aeabi_dmul>
 8002fba:	4602      	mov	r2, r0
 8002fbc:	460b      	mov	r3, r1
 8002fbe:	6839      	ldr	r1, [r7, #0]
 8002fc0:	e9c1 2302 	strd	r2, r3, [r1, #8]
	out->MCU_Stat_One_sig3 = (int)extract_little_endian_u64(data, 56, 3);
 8002fc4:	2203      	movs	r2, #3
 8002fc6:	2138      	movs	r1, #56	@ 0x38
 8002fc8:	6878      	ldr	r0, [r7, #4]
 8002fca:	f7ff f982 	bl	80022d2 <extract_little_endian_u64>
 8002fce:	4602      	mov	r2, r0
 8002fd0:	460b      	mov	r3, r1
 8002fd2:	683b      	ldr	r3, [r7, #0]
 8002fd4:	611a      	str	r2, [r3, #16]
	out->MCU_Stat_One_sig4 = (int)extract_little_endian_u64(data, 48, 8);
 8002fd6:	2208      	movs	r2, #8
 8002fd8:	2130      	movs	r1, #48	@ 0x30
 8002fda:	6878      	ldr	r0, [r7, #4]
 8002fdc:	f7ff f979 	bl	80022d2 <extract_little_endian_u64>
 8002fe0:	4602      	mov	r2, r0
 8002fe2:	460b      	mov	r3, r1
 8002fe4:	683b      	ldr	r3, [r7, #0]
 8002fe6:	615a      	str	r2, [r3, #20]
	out->MCU_Stat_One_sig5 = (int)extract_little_endian_u64(data, 40, 8);
 8002fe8:	2208      	movs	r2, #8
 8002fea:	2128      	movs	r1, #40	@ 0x28
 8002fec:	6878      	ldr	r0, [r7, #4]
 8002fee:	f7ff f970 	bl	80022d2 <extract_little_endian_u64>
 8002ff2:	4602      	mov	r2, r0
 8002ff4:	460b      	mov	r3, r1
 8002ff6:	683b      	ldr	r3, [r7, #0]
 8002ff8:	619a      	str	r2, [r3, #24]
	out->MCU_Stat_One_sig6 = (int)extract_little_endian_u64(data, 32, 8);
 8002ffa:	2208      	movs	r2, #8
 8002ffc:	2120      	movs	r1, #32
 8002ffe:	6878      	ldr	r0, [r7, #4]
 8003000:	f7ff f967 	bl	80022d2 <extract_little_endian_u64>
 8003004:	4602      	mov	r2, r0
 8003006:	460b      	mov	r3, r1
 8003008:	683b      	ldr	r3, [r7, #0]
 800300a:	61da      	str	r2, [r3, #28]
	uart_print_str("\n MCU_Motor_Temp: ");
 800300c:	4826      	ldr	r0, [pc, #152]	@ (80030a8 <decode_MCU_Stat_One+0x150>)
 800300e:	f001 fb73 	bl	80046f8 <uart_print_str>
	uart_printf("%d ",out->MCU_Stat_One_sig0);
 8003012:	683b      	ldr	r3, [r7, #0]
 8003014:	681b      	ldr	r3, [r3, #0]
 8003016:	4619      	mov	r1, r3
 8003018:	4824      	ldr	r0, [pc, #144]	@ (80030ac <decode_MCU_Stat_One+0x154>)
 800301a:	f001 fcdb 	bl	80049d4 <uart_printf>
	uart_print_str("\n MCU_PCB_Temp: ");
 800301e:	4824      	ldr	r0, [pc, #144]	@ (80030b0 <decode_MCU_Stat_One+0x158>)
 8003020:	f001 fb6a 	bl	80046f8 <uart_print_str>
	uart_printf("%d ",out->MCU_Stat_One_sig1);
 8003024:	683b      	ldr	r3, [r7, #0]
 8003026:	685b      	ldr	r3, [r3, #4]
 8003028:	4619      	mov	r1, r3
 800302a:	4820      	ldr	r0, [pc, #128]	@ (80030ac <decode_MCU_Stat_One+0x154>)
 800302c:	f001 fcd2 	bl	80049d4 <uart_printf>
	uart_print_str("\n MCU_RMS_Current");
 8003030:	4820      	ldr	r0, [pc, #128]	@ (80030b4 <decode_MCU_Stat_One+0x15c>)
 8003032:	f001 fb61 	bl	80046f8 <uart_print_str>
	uart_send_double(out->MCU_Stat_One_sig2,3);
 8003036:	683b      	ldr	r3, [r7, #0]
 8003038:	e9d3 0102 	ldrd	r0, r1, [r3, #8]
 800303c:	2203      	movs	r2, #3
 800303e:	f001 fb71 	bl	8004724 <uart_send_double>
	uart_print_str("\n MCU_Drive_Mode: ");
 8003042:	481d      	ldr	r0, [pc, #116]	@ (80030b8 <decode_MCU_Stat_One+0x160>)
 8003044:	f001 fb58 	bl	80046f8 <uart_print_str>
	uart_printf("%d ",out->MCU_Stat_One_sig3);
 8003048:	683b      	ldr	r3, [r7, #0]
 800304a:	691b      	ldr	r3, [r3, #16]
 800304c:	4619      	mov	r1, r3
 800304e:	4817      	ldr	r0, [pc, #92]	@ (80030ac <decode_MCU_Stat_One+0x154>)
 8003050:	f001 fcc0 	bl	80049d4 <uart_printf>
	uart_print_str("\n MCU_Speed_Kmph: ");
 8003054:	4819      	ldr	r0, [pc, #100]	@ (80030bc <decode_MCU_Stat_One+0x164>)
 8003056:	f001 fb4f 	bl	80046f8 <uart_print_str>
	uart_printf("%d ",out->MCU_Stat_One_sig4);
 800305a:	683b      	ldr	r3, [r7, #0]
 800305c:	695b      	ldr	r3, [r3, #20]
 800305e:	4619      	mov	r1, r3
 8003060:	4812      	ldr	r0, [pc, #72]	@ (80030ac <decode_MCU_Stat_One+0x154>)
 8003062:	f001 fcb7 	bl	80049d4 <uart_printf>
	uart_print_str("\n MCU_Brake_perc: ");
 8003066:	4816      	ldr	r0, [pc, #88]	@ (80030c0 <decode_MCU_Stat_One+0x168>)
 8003068:	f001 fb46 	bl	80046f8 <uart_print_str>
	uart_printf("%d ",out->MCU_Stat_One_sig5);
 800306c:	683b      	ldr	r3, [r7, #0]
 800306e:	699b      	ldr	r3, [r3, #24]
 8003070:	4619      	mov	r1, r3
 8003072:	480e      	ldr	r0, [pc, #56]	@ (80030ac <decode_MCU_Stat_One+0x154>)
 8003074:	f001 fcae 	bl	80049d4 <uart_printf>
	uart_print_str("\n MCU_Throttle_perc: ");
 8003078:	4812      	ldr	r0, [pc, #72]	@ (80030c4 <decode_MCU_Stat_One+0x16c>)
 800307a:	f001 fb3d 	bl	80046f8 <uart_print_str>
	uart_printf("%d \n ",out->MCU_Stat_One_sig6);
 800307e:	683b      	ldr	r3, [r7, #0]
 8003080:	69db      	ldr	r3, [r3, #28]
 8003082:	4619      	mov	r1, r3
 8003084:	4810      	ldr	r0, [pc, #64]	@ (80030c8 <decode_MCU_Stat_One+0x170>)
 8003086:	f001 fca5 	bl	80049d4 <uart_printf>
	uart_print_str("\n============================================\n");
 800308a:	4810      	ldr	r0, [pc, #64]	@ (80030cc <decode_MCU_Stat_One+0x174>)
 800308c:	f001 fb34 	bl	80046f8 <uart_print_str>
 8003090:	e000      	b.n	8003094 <decode_MCU_Stat_One+0x13c>
	if (!out) return;
 8003092:	bf00      	nop
}
 8003094:	3708      	adds	r7, #8
 8003096:	46bd      	mov	sp, r7
 8003098:	bd80      	pop	{r7, pc}
 800309a:	bf00      	nop
 800309c:	f3af 8000 	nop.w
 80030a0:	9999999a 	.word	0x9999999a
 80030a4:	3fb99999 	.word	0x3fb99999
 80030a8:	0800801c 	.word	0x0800801c
 80030ac:	08007a90 	.word	0x08007a90
 80030b0:	08008030 	.word	0x08008030
 80030b4:	08008044 	.word	0x08008044
 80030b8:	08008058 	.word	0x08008058
 80030bc:	0800806c 	.word	0x0800806c
 80030c0:	08008080 	.word	0x08008080
 80030c4:	08008094 	.word	0x08008094
 80030c8:	08007b34 	.word	0x08007b34
 80030cc:	08007a4c 	.word	0x08007a4c

080030d0 <decode_MCU_POWER_One>:





void decode_MCU_POWER_One(const uint8_t *data, MCU_POWER_One_t *out) {
 80030d0:	b580      	push	{r7, lr}
 80030d2:	b082      	sub	sp, #8
 80030d4:	af00      	add	r7, sp, #0
 80030d6:	6078      	str	r0, [r7, #4]
 80030d8:	6039      	str	r1, [r7, #0]
//if (!out) return;

out->power_sig0 = (double)extract_motorola_u64(data, 38, 10)*0.1-37.3;
 80030da:	220a      	movs	r2, #10
 80030dc:	2126      	movs	r1, #38	@ 0x26
 80030de:	6878      	ldr	r0, [r7, #4]
 80030e0:	f7ff f88c 	bl	80021fc <extract_motorola_u64>
 80030e4:	4602      	mov	r2, r0
 80030e6:	460b      	mov	r3, r1
 80030e8:	4610      	mov	r0, r2
 80030ea:	4619      	mov	r1, r3
 80030ec:	f7fd fae0 	bl	80006b0 <__aeabi_ul2d>
 80030f0:	a353      	add	r3, pc, #332	@ (adr r3, 8003240 <decode_MCU_POWER_One+0x170>)
 80030f2:	e9d3 2300 	ldrd	r2, r3, [r3]
 80030f6:	f7fd f82b 	bl	8000150 <__aeabi_dmul>
 80030fa:	4602      	mov	r2, r0
 80030fc:	460b      	mov	r3, r1
 80030fe:	4610      	mov	r0, r2
 8003100:	4619      	mov	r1, r3
 8003102:	a351      	add	r3, pc, #324	@ (adr r3, 8003248 <decode_MCU_POWER_One+0x178>)
 8003104:	e9d3 2300 	ldrd	r2, r3, [r3]
 8003108:	f7fd f950 	bl	80003ac <__aeabi_dsub>
 800310c:	4602      	mov	r2, r0
 800310e:	460b      	mov	r3, r1
 8003110:	6839      	ldr	r1, [r7, #0]
 8003112:	e9c1 2300 	strd	r2, r3, [r1]
out->power_sig1 = (double)extract_motorola_u64(data, 7, 10)*0.1;
 8003116:	220a      	movs	r2, #10
 8003118:	2107      	movs	r1, #7
 800311a:	6878      	ldr	r0, [r7, #4]
 800311c:	f7ff f86e 	bl	80021fc <extract_motorola_u64>
 8003120:	4602      	mov	r2, r0
 8003122:	460b      	mov	r3, r1
 8003124:	4610      	mov	r0, r2
 8003126:	4619      	mov	r1, r3
 8003128:	f7fd fac2 	bl	80006b0 <__aeabi_ul2d>
 800312c:	a344      	add	r3, pc, #272	@ (adr r3, 8003240 <decode_MCU_POWER_One+0x170>)
 800312e:	e9d3 2300 	ldrd	r2, r3, [r3]
 8003132:	f7fd f80d 	bl	8000150 <__aeabi_dmul>
 8003136:	4602      	mov	r2, r0
 8003138:	460b      	mov	r3, r1
 800313a:	6839      	ldr	r1, [r7, #0]
 800313c:	e9c1 2302 	strd	r2, r3, [r1, #8]
out->power_sig2 = (double)extract_motorola_u64(data, 16, 10)*0.1-65;
 8003140:	220a      	movs	r2, #10
 8003142:	2110      	movs	r1, #16
 8003144:	6878      	ldr	r0, [r7, #4]
 8003146:	f7ff f859 	bl	80021fc <extract_motorola_u64>
 800314a:	4602      	mov	r2, r0
 800314c:	460b      	mov	r3, r1
 800314e:	4610      	mov	r0, r2
 8003150:	4619      	mov	r1, r3
 8003152:	f7fd faad 	bl	80006b0 <__aeabi_ul2d>
 8003156:	a33a      	add	r3, pc, #232	@ (adr r3, 8003240 <decode_MCU_POWER_One+0x170>)
 8003158:	e9d3 2300 	ldrd	r2, r3, [r3]
 800315c:	f7fc fff8 	bl	8000150 <__aeabi_dmul>
 8003160:	4602      	mov	r2, r0
 8003162:	460b      	mov	r3, r1
 8003164:	4610      	mov	r0, r2
 8003166:	4619      	mov	r1, r3
 8003168:	f04f 0200 	mov.w	r2, #0
 800316c:	4b3a      	ldr	r3, [pc, #232]	@ (8003258 <decode_MCU_POWER_One+0x188>)
 800316e:	f7fd f91d 	bl	80003ac <__aeabi_dsub>
 8003172:	4602      	mov	r2, r0
 8003174:	460b      	mov	r3, r1
 8003176:	6839      	ldr	r1, [r7, #0]
 8003178:	e9c1 2304 	strd	r2, r3, [r1, #16]
out->power_sig3 = (uint64_t)extract_motorola_u64(data, 44, 15)-16384;
 800317c:	220f      	movs	r2, #15
 800317e:	212c      	movs	r1, #44	@ 0x2c
 8003180:	6878      	ldr	r0, [r7, #4]
 8003182:	f7ff f83b 	bl	80021fc <extract_motorola_u64>
 8003186:	4602      	mov	r2, r0
 8003188:	460b      	mov	r3, r1
 800318a:	4613      	mov	r3, r2
 800318c:	f5a3 4380 	sub.w	r3, r3, #16384	@ 0x4000
 8003190:	461a      	mov	r2, r3
 8003192:	683b      	ldr	r3, [r7, #0]
 8003194:	619a      	str	r2, [r3, #24]
out->power_sig4 = (double)extract_motorola_u64(data, 13, 13)*0.1-409.6;
 8003196:	220d      	movs	r2, #13
 8003198:	210d      	movs	r1, #13
 800319a:	6878      	ldr	r0, [r7, #4]
 800319c:	f7ff f82e 	bl	80021fc <extract_motorola_u64>
 80031a0:	4602      	mov	r2, r0
 80031a2:	460b      	mov	r3, r1
 80031a4:	4610      	mov	r0, r2
 80031a6:	4619      	mov	r1, r3
 80031a8:	f7fd fa82 	bl	80006b0 <__aeabi_ul2d>
 80031ac:	a324      	add	r3, pc, #144	@ (adr r3, 8003240 <decode_MCU_POWER_One+0x170>)
 80031ae:	e9d3 2300 	ldrd	r2, r3, [r3]
 80031b2:	f7fc ffcd 	bl	8000150 <__aeabi_dmul>
 80031b6:	4602      	mov	r2, r0
 80031b8:	460b      	mov	r3, r1
 80031ba:	4610      	mov	r0, r2
 80031bc:	4619      	mov	r1, r3
 80031be:	a324      	add	r3, pc, #144	@ (adr r3, 8003250 <decode_MCU_POWER_One+0x180>)
 80031c0:	e9d3 2300 	ldrd	r2, r3, [r3]
 80031c4:	f7fd f8f2 	bl	80003ac <__aeabi_dsub>
 80031c8:	4602      	mov	r2, r0
 80031ca:	460b      	mov	r3, r1
 80031cc:	6839      	ldr	r1, [r7, #0]
 80031ce:	e9c1 2308 	strd	r2, r3, [r1, #32]
uart_print_str("\n torque_requested: ");
 80031d2:	4822      	ldr	r0, [pc, #136]	@ (800325c <decode_MCU_POWER_One+0x18c>)
 80031d4:	f001 fa90 	bl	80046f8 <uart_print_str>
uart_send_double(out->power_sig0,3);
 80031d8:	683b      	ldr	r3, [r7, #0]
 80031da:	e9d3 0100 	ldrd	r0, r1, [r3]
 80031de:	2203      	movs	r2, #3
 80031e0:	f001 faa0 	bl	8004724 <uart_send_double>
uart_print_str("\n DC V0L: ");
 80031e4:	481e      	ldr	r0, [pc, #120]	@ (8003260 <decode_MCU_POWER_One+0x190>)
 80031e6:	f001 fa87 	bl	80046f8 <uart_print_str>
uart_send_double(out->power_sig1,3);
 80031ea:	683b      	ldr	r3, [r7, #0]
 80031ec:	e9d3 0102 	ldrd	r0, r1, [r3, #8]
 80031f0:	2203      	movs	r2, #3
 80031f2:	f001 fa97 	bl	8004724 <uart_send_double>
uart_print_str("\n EST_TORQ :");
 80031f6:	481b      	ldr	r0, [pc, #108]	@ (8003264 <decode_MCU_POWER_One+0x194>)
 80031f8:	f001 fa7e 	bl	80046f8 <uart_print_str>
uart_send_double(out->power_sig2,3);
 80031fc:	683b      	ldr	r3, [r7, #0]
 80031fe:	e9d3 0104 	ldrd	r0, r1, [r3, #16]
 8003202:	2203      	movs	r2, #3
 8003204:	f001 fa8e 	bl	8004724 <uart_send_double>
uart_print_str("\n RPM: ");
 8003208:	4817      	ldr	r0, [pc, #92]	@ (8003268 <decode_MCU_POWER_One+0x198>)
 800320a:	f001 fa75 	bl	80046f8 <uart_print_str>
uart_printf("%ld ",out->power_sig3);
 800320e:	683b      	ldr	r3, [r7, #0]
 8003210:	699b      	ldr	r3, [r3, #24]
 8003212:	4619      	mov	r1, r3
 8003214:	4815      	ldr	r0, [pc, #84]	@ (800326c <decode_MCU_POWER_One+0x19c>)
 8003216:	f001 fbdd 	bl	80049d4 <uart_printf>
uart_print_str("\n DC_CUR: ");
 800321a:	4815      	ldr	r0, [pc, #84]	@ (8003270 <decode_MCU_POWER_One+0x1a0>)
 800321c:	f001 fa6c 	bl	80046f8 <uart_print_str>
uart_send_double(out->power_sig4,3);
 8003220:	683b      	ldr	r3, [r7, #0]
 8003222:	e9d3 0108 	ldrd	r0, r1, [r3, #32]
 8003226:	2203      	movs	r2, #3
 8003228:	f001 fa7c 	bl	8004724 <uart_send_double>
uart_print_str("\n");
 800322c:	4811      	ldr	r0, [pc, #68]	@ (8003274 <decode_MCU_POWER_One+0x1a4>)
 800322e:	f001 fa63 	bl	80046f8 <uart_print_str>
uart_print_str("\n============================================\n");
 8003232:	4811      	ldr	r0, [pc, #68]	@ (8003278 <decode_MCU_POWER_One+0x1a8>)
 8003234:	f001 fa60 	bl	80046f8 <uart_print_str>

}
 8003238:	bf00      	nop
 800323a:	3708      	adds	r7, #8
 800323c:	46bd      	mov	sp, r7
 800323e:	bd80      	pop	{r7, pc}
 8003240:	9999999a 	.word	0x9999999a
 8003244:	3fb99999 	.word	0x3fb99999
 8003248:	66666666 	.word	0x66666666
 800324c:	4042a666 	.word	0x4042a666
 8003250:	9999999a 	.word	0x9999999a
 8003254:	40799999 	.word	0x40799999
 8003258:	40504000 	.word	0x40504000
 800325c:	080080ac 	.word	0x080080ac
 8003260:	080080c4 	.word	0x080080c4
 8003264:	080080d0 	.word	0x080080d0
 8003268:	080080e0 	.word	0x080080e0
 800326c:	080080e8 	.word	0x080080e8
 8003270:	080080f0 	.word	0x080080f0
 8003274:	080080fc 	.word	0x080080fc
 8003278:	08007a4c 	.word	0x08007a4c

0800327c <Motor_control_pins_init>:
    GPIOB->CRL&=~((0xF<<0)|(0XF<<4)|(0XF<<12)|(0xf<<20));
    GPIOB->CRL|=((0x3<<0)|(0X3<<4)|(0X3<<12)|(0x3<<20));
    GPIOB->ODR&=~((1<<PB0_REVERSE)|(1<<PB1_NEUTRAL)|(1<<PB3_DRIVE)|(1<<PB5_SPORT));
    GPIOB->ODR|=((1<<PB1_NEUTRAL));
}
void Motor_control_pins_init(){
 800327c:	b480      	push	{r7}
 800327e:	af00      	add	r7, sp, #0
    RCC->APB2ENR |= RCC_APB2ENR_IOPBEN;
 8003280:	4b12      	ldr	r3, [pc, #72]	@ (80032cc <Motor_control_pins_init+0x50>)
 8003282:	699b      	ldr	r3, [r3, #24]
 8003284:	4a11      	ldr	r2, [pc, #68]	@ (80032cc <Motor_control_pins_init+0x50>)
 8003286:	f043 0308 	orr.w	r3, r3, #8
 800328a:	6193      	str	r3, [r2, #24]
    GPIOB->CRL&=~((0x4<<0)|(0X4<<4)|(0X4<<12));
 800328c:	4b10      	ldr	r3, [pc, #64]	@ (80032d0 <Motor_control_pins_init+0x54>)
 800328e:	681b      	ldr	r3, [r3, #0]
 8003290:	4a0f      	ldr	r2, [pc, #60]	@ (80032d0 <Motor_control_pins_init+0x54>)
 8003292:	f423 4380 	bic.w	r3, r3, #16384	@ 0x4000
 8003296:	f023 0344 	bic.w	r3, r3, #68	@ 0x44
 800329a:	6013      	str	r3, [r2, #0]
    GPIOB->CRL|=((0x3<<0)|(0X3<<4)|(0X3<<12));
 800329c:	4b0c      	ldr	r3, [pc, #48]	@ (80032d0 <Motor_control_pins_init+0x54>)
 800329e:	681b      	ldr	r3, [r3, #0]
 80032a0:	4a0b      	ldr	r2, [pc, #44]	@ (80032d0 <Motor_control_pins_init+0x54>)
 80032a2:	f443 5340 	orr.w	r3, r3, #12288	@ 0x3000
 80032a6:	f043 0333 	orr.w	r3, r3, #51	@ 0x33
 80032aa:	6013      	str	r3, [r2, #0]
    GPIOB->ODR|=((1<<PB0_REVERSE)|(1<<PB1_NEUTRAL)|(1<<PB3_DRIVE));
 80032ac:	4b08      	ldr	r3, [pc, #32]	@ (80032d0 <Motor_control_pins_init+0x54>)
 80032ae:	68db      	ldr	r3, [r3, #12]
 80032b0:	4a07      	ldr	r2, [pc, #28]	@ (80032d0 <Motor_control_pins_init+0x54>)
 80032b2:	f043 030b 	orr.w	r3, r3, #11
 80032b6:	60d3      	str	r3, [r2, #12]
    GPIOB->ODR&=~((1<<PB1_NEUTRAL));
 80032b8:	4b05      	ldr	r3, [pc, #20]	@ (80032d0 <Motor_control_pins_init+0x54>)
 80032ba:	68db      	ldr	r3, [r3, #12]
 80032bc:	4a04      	ldr	r2, [pc, #16]	@ (80032d0 <Motor_control_pins_init+0x54>)
 80032be:	f023 0302 	bic.w	r3, r3, #2
 80032c2:	60d3      	str	r3, [r2, #12]
}
 80032c4:	bf00      	nop
 80032c6:	46bd      	mov	sp, r7
 80032c8:	bc80      	pop	{r7}
 80032ca:	4770      	bx	lr
 80032cc:	40021000 	.word	0x40021000
 80032d0:	40010c00 	.word	0x40010c00

080032d4 <set_baudrate>:
    uint32_t tseg2;
    uint32_t sjw;
    float sample_point;  // in percentage
} CAN_BitTiming;

STATUS set_baudrate(uint32_t Baud_Rate){
 80032d4:	b590      	push	{r4, r7, lr}
 80032d6:	f6ad 0d04 	subw	sp, sp, #2052	@ 0x804
 80032da:	af00      	add	r7, sp, #0
 80032dc:	f507 6300 	add.w	r3, r7, #2048	@ 0x800
 80032e0:	f2a3 73fc 	subw	r3, r3, #2044	@ 0x7fc
 80032e4:	6018      	str	r0, [r3, #0]
    CAN_BitTiming table[100]; // store results
    int count = 0;
 80032e6:	2300      	movs	r3, #0
 80032e8:	f8c7 37fc 	str.w	r3, [r7, #2044]	@ 0x7fc
    uint32_t clk = get_APB1_freq();      // 36 MHz
 80032ec:	f000 ffe2 	bl	80042b4 <get_APB1_freq>
 80032f0:	f8c7 07e8 	str.w	r0, [r7, #2024]	@ 0x7e8
    uint32_t baud = Baud_Rate;      // 500 kbps
 80032f4:	f507 6300 	add.w	r3, r7, #2048	@ 0x800
 80032f8:	f2a3 73fc 	subw	r3, r3, #2044	@ 0x7fc
 80032fc:	681b      	ldr	r3, [r3, #0]
 80032fe:	f8c7 37e4 	str.w	r3, [r7, #2020]	@ 0x7e4
    if (clk == 0 || Baud_Rate == 0) {
 8003302:	f8d7 37e8 	ldr.w	r3, [r7, #2024]	@ 0x7e8
 8003306:	2b00      	cmp	r3, #0
 8003308:	d006      	beq.n	8003318 <set_baudrate+0x44>
 800330a:	f507 6300 	add.w	r3, r7, #2048	@ 0x800
 800330e:	f2a3 73fc 	subw	r3, r3, #2044	@ 0x7fc
 8003312:	681b      	ldr	r3, [r3, #0]
 8003314:	2b00      	cmp	r3, #0
 8003316:	d101      	bne.n	800331c <set_baudrate+0x48>
        return RY_NOT_OK;
 8003318:	2300      	movs	r3, #0
 800331a:	e0f7      	b.n	800350c <set_baudrate+0x238>
    }
    uint32_t target = clk / baud; // should be 16
 800331c:	f8d7 27e8 	ldr.w	r2, [r7, #2024]	@ 0x7e8
 8003320:	f8d7 37e4 	ldr.w	r3, [r7, #2020]	@ 0x7e4
 8003324:	fbb2 f3f3 	udiv	r3, r2, r3
 8003328:	f8c7 37e0 	str.w	r3, [r7, #2016]	@ 0x7e0
    for (uint32_t prescaler = 1; prescaler <= 1024; prescaler++) {
 800332c:	2301      	movs	r3, #1
 800332e:	f8c7 37f8 	str.w	r3, [r7, #2040]	@ 0x7f8
 8003332:	e0c0      	b.n	80034b6 <set_baudrate+0x1e2>
        for (uint32_t tseg1 = 1; tseg1 <= 16; tseg1++) {
 8003334:	2301      	movs	r3, #1
 8003336:	f8c7 37f4 	str.w	r3, [r7, #2036]	@ 0x7f4
 800333a:	e0b2      	b.n	80034a2 <set_baudrate+0x1ce>
            for (uint32_t tseg2 = 1; tseg2 <= 8; tseg2++) {
 800333c:	2301      	movs	r3, #1
 800333e:	f8c7 37f0 	str.w	r3, [r7, #2032]	@ 0x7f0
 8003342:	e0a4      	b.n	800348e <set_baudrate+0x1ba>
            	uint32_t tq = 1 + tseg1 + tseg2;
 8003344:	f8d7 27f4 	ldr.w	r2, [r7, #2036]	@ 0x7f4
 8003348:	f8d7 37f0 	ldr.w	r3, [r7, #2032]	@ 0x7f0
 800334c:	4413      	add	r3, r2
 800334e:	3301      	adds	r3, #1
 8003350:	f8c7 37dc 	str.w	r3, [r7, #2012]	@ 0x7dc
                if (prescaler * tq == target) {
 8003354:	f8d7 37f8 	ldr.w	r3, [r7, #2040]	@ 0x7f8
 8003358:	f8d7 27dc 	ldr.w	r2, [r7, #2012]	@ 0x7dc
 800335c:	fb02 f303 	mul.w	r3, r2, r3
 8003360:	f8d7 27e0 	ldr.w	r2, [r7, #2016]	@ 0x7e0
 8003364:	429a      	cmp	r2, r3
 8003366:	f040 808d 	bne.w	8003484 <set_baudrate+0x1b0>
                    float sp = ((1.0f + tseg1) / tq) * 100.0f;
 800336a:	f8d7 07f4 	ldr.w	r0, [r7, #2036]	@ 0x7f4
 800336e:	f7fd fb3b 	bl	80009e8 <__aeabi_ui2f>
 8003372:	4603      	mov	r3, r0
 8003374:	f04f 517e 	mov.w	r1, #1065353216	@ 0x3f800000
 8003378:	4618      	mov	r0, r3
 800337a:	f7fd fa85 	bl	8000888 <__addsf3>
 800337e:	4603      	mov	r3, r0
 8003380:	461c      	mov	r4, r3
 8003382:	f8d7 07dc 	ldr.w	r0, [r7, #2012]	@ 0x7dc
 8003386:	f7fd fb2f 	bl	80009e8 <__aeabi_ui2f>
 800338a:	4603      	mov	r3, r0
 800338c:	4619      	mov	r1, r3
 800338e:	4620      	mov	r0, r4
 8003390:	f7fd fc36 	bl	8000c00 <__aeabi_fdiv>
 8003394:	4603      	mov	r3, r0
 8003396:	4960      	ldr	r1, [pc, #384]	@ (8003518 <set_baudrate+0x244>)
 8003398:	4618      	mov	r0, r3
 800339a:	f7fd fb7d 	bl	8000a98 <__aeabi_fmul>
 800339e:	4603      	mov	r3, r0
 80033a0:	f8c7 37d8 	str.w	r3, [r7, #2008]	@ 0x7d8
                    if (sp >= 70.0f && sp <= 80.0f) {
 80033a4:	495d      	ldr	r1, [pc, #372]	@ (800351c <set_baudrate+0x248>)
 80033a6:	f8d7 07d8 	ldr.w	r0, [r7, #2008]	@ 0x7d8
 80033aa:	f7fd fd27 	bl	8000dfc <__aeabi_fcmpge>
 80033ae:	4603      	mov	r3, r0
 80033b0:	2b00      	cmp	r3, #0
 80033b2:	d067      	beq.n	8003484 <set_baudrate+0x1b0>
 80033b4:	495a      	ldr	r1, [pc, #360]	@ (8003520 <set_baudrate+0x24c>)
 80033b6:	f8d7 07d8 	ldr.w	r0, [r7, #2008]	@ 0x7d8
 80033ba:	f7fd fd15 	bl	8000de8 <__aeabi_fcmple>
 80033be:	4603      	mov	r3, r0
 80033c0:	2b00      	cmp	r3, #0
 80033c2:	d05f      	beq.n	8003484 <set_baudrate+0x1b0>
                        for (int sjw = 1; sjw <= tseg2; sjw++) {
 80033c4:	2301      	movs	r3, #1
 80033c6:	f8c7 37ec 	str.w	r3, [r7, #2028]	@ 0x7ec
 80033ca:	e055      	b.n	8003478 <set_baudrate+0x1a4>
                            table[count].prescaler = prescaler;
 80033cc:	f8d7 37f8 	ldr.w	r3, [r7, #2040]	@ 0x7f8
 80033d0:	b298      	uxth	r0, r3
 80033d2:	f507 6300 	add.w	r3, r7, #2048	@ 0x800
 80033d6:	f5a3 61ff 	sub.w	r1, r3, #2040	@ 0x7f8
 80033da:	f8d7 27fc 	ldr.w	r2, [r7, #2044]	@ 0x7fc
 80033de:	4613      	mov	r3, r2
 80033e0:	009b      	lsls	r3, r3, #2
 80033e2:	4413      	add	r3, r2
 80033e4:	009b      	lsls	r3, r3, #2
 80033e6:	440b      	add	r3, r1
 80033e8:	4602      	mov	r2, r0
 80033ea:	801a      	strh	r2, [r3, #0]
                            table[count].tseg1 = tseg1;
 80033ec:	f507 6300 	add.w	r3, r7, #2048	@ 0x800
 80033f0:	f5a3 61ff 	sub.w	r1, r3, #2040	@ 0x7f8
 80033f4:	f8d7 27fc 	ldr.w	r2, [r7, #2044]	@ 0x7fc
 80033f8:	4613      	mov	r3, r2
 80033fa:	009b      	lsls	r3, r3, #2
 80033fc:	4413      	add	r3, r2
 80033fe:	009b      	lsls	r3, r3, #2
 8003400:	440b      	add	r3, r1
 8003402:	3304      	adds	r3, #4
 8003404:	f8d7 27f4 	ldr.w	r2, [r7, #2036]	@ 0x7f4
 8003408:	601a      	str	r2, [r3, #0]
                            table[count].tseg2 = tseg2;
 800340a:	f507 6300 	add.w	r3, r7, #2048	@ 0x800
 800340e:	f5a3 61ff 	sub.w	r1, r3, #2040	@ 0x7f8
 8003412:	f8d7 27fc 	ldr.w	r2, [r7, #2044]	@ 0x7fc
 8003416:	4613      	mov	r3, r2
 8003418:	009b      	lsls	r3, r3, #2
 800341a:	4413      	add	r3, r2
 800341c:	009b      	lsls	r3, r3, #2
 800341e:	440b      	add	r3, r1
 8003420:	3308      	adds	r3, #8
 8003422:	f8d7 27f0 	ldr.w	r2, [r7, #2032]	@ 0x7f0
 8003426:	601a      	str	r2, [r3, #0]
                            table[count].sjw = sjw;
 8003428:	f8d7 17ec 	ldr.w	r1, [r7, #2028]	@ 0x7ec
 800342c:	f507 6300 	add.w	r3, r7, #2048	@ 0x800
 8003430:	f5a3 60ff 	sub.w	r0, r3, #2040	@ 0x7f8
 8003434:	f8d7 27fc 	ldr.w	r2, [r7, #2044]	@ 0x7fc
 8003438:	4613      	mov	r3, r2
 800343a:	009b      	lsls	r3, r3, #2
 800343c:	4413      	add	r3, r2
 800343e:	009b      	lsls	r3, r3, #2
 8003440:	4403      	add	r3, r0
 8003442:	330c      	adds	r3, #12
 8003444:	6019      	str	r1, [r3, #0]
                            table[count].sample_point = sp;
 8003446:	f507 6300 	add.w	r3, r7, #2048	@ 0x800
 800344a:	f5a3 61ff 	sub.w	r1, r3, #2040	@ 0x7f8
 800344e:	f8d7 27fc 	ldr.w	r2, [r7, #2044]	@ 0x7fc
 8003452:	4613      	mov	r3, r2
 8003454:	009b      	lsls	r3, r3, #2
 8003456:	4413      	add	r3, r2
 8003458:	009b      	lsls	r3, r3, #2
 800345a:	440b      	add	r3, r1
 800345c:	3310      	adds	r3, #16
 800345e:	f8d7 27d8 	ldr.w	r2, [r7, #2008]	@ 0x7d8
 8003462:	601a      	str	r2, [r3, #0]
                            count++;
 8003464:	f8d7 37fc 	ldr.w	r3, [r7, #2044]	@ 0x7fc
 8003468:	3301      	adds	r3, #1
 800346a:	f8c7 37fc 	str.w	r3, [r7, #2044]	@ 0x7fc
                        for (int sjw = 1; sjw <= tseg2; sjw++) {
 800346e:	f8d7 37ec 	ldr.w	r3, [r7, #2028]	@ 0x7ec
 8003472:	3301      	adds	r3, #1
 8003474:	f8c7 37ec 	str.w	r3, [r7, #2028]	@ 0x7ec
 8003478:	f8d7 37ec 	ldr.w	r3, [r7, #2028]	@ 0x7ec
 800347c:	f8d7 27f0 	ldr.w	r2, [r7, #2032]	@ 0x7f0
 8003480:	429a      	cmp	r2, r3
 8003482:	d2a3      	bcs.n	80033cc <set_baudrate+0xf8>
            for (uint32_t tseg2 = 1; tseg2 <= 8; tseg2++) {
 8003484:	f8d7 37f0 	ldr.w	r3, [r7, #2032]	@ 0x7f0
 8003488:	3301      	adds	r3, #1
 800348a:	f8c7 37f0 	str.w	r3, [r7, #2032]	@ 0x7f0
 800348e:	f8d7 37f0 	ldr.w	r3, [r7, #2032]	@ 0x7f0
 8003492:	2b08      	cmp	r3, #8
 8003494:	f67f af56 	bls.w	8003344 <set_baudrate+0x70>
        for (uint32_t tseg1 = 1; tseg1 <= 16; tseg1++) {
 8003498:	f8d7 37f4 	ldr.w	r3, [r7, #2036]	@ 0x7f4
 800349c:	3301      	adds	r3, #1
 800349e:	f8c7 37f4 	str.w	r3, [r7, #2036]	@ 0x7f4
 80034a2:	f8d7 37f4 	ldr.w	r3, [r7, #2036]	@ 0x7f4
 80034a6:	2b10      	cmp	r3, #16
 80034a8:	f67f af48 	bls.w	800333c <set_baudrate+0x68>
    for (uint32_t prescaler = 1; prescaler <= 1024; prescaler++) {
 80034ac:	f8d7 37f8 	ldr.w	r3, [r7, #2040]	@ 0x7f8
 80034b0:	3301      	adds	r3, #1
 80034b2:	f8c7 37f8 	str.w	r3, [r7, #2040]	@ 0x7f8
 80034b6:	f8d7 37f8 	ldr.w	r3, [r7, #2040]	@ 0x7f8
 80034ba:	f5b3 6f80 	cmp.w	r3, #1024	@ 0x400
 80034be:	f67f af39 	bls.w	8003334 <set_baudrate+0x60>
                    }
                }
            }
        }
    }
    CAN1->BTR|=((table[0].prescaler-1)<<0)|((table[0].sjw-1)<<24)|((table[0].tseg1-1)<<16)|((table[0].tseg2-1)<<20);
 80034c2:	4b18      	ldr	r3, [pc, #96]	@ (8003524 <set_baudrate+0x250>)
 80034c4:	69da      	ldr	r2, [r3, #28]
 80034c6:	f507 6300 	add.w	r3, r7, #2048	@ 0x800
 80034ca:	f5a3 63ff 	sub.w	r3, r3, #2040	@ 0x7f8
 80034ce:	881b      	ldrh	r3, [r3, #0]
 80034d0:	3b01      	subs	r3, #1
 80034d2:	4619      	mov	r1, r3
 80034d4:	f507 6300 	add.w	r3, r7, #2048	@ 0x800
 80034d8:	f5a3 63ff 	sub.w	r3, r3, #2040	@ 0x7f8
 80034dc:	68db      	ldr	r3, [r3, #12]
 80034de:	3b01      	subs	r3, #1
 80034e0:	061b      	lsls	r3, r3, #24
 80034e2:	4319      	orrs	r1, r3
 80034e4:	f507 6300 	add.w	r3, r7, #2048	@ 0x800
 80034e8:	f5a3 63ff 	sub.w	r3, r3, #2040	@ 0x7f8
 80034ec:	685b      	ldr	r3, [r3, #4]
 80034ee:	3b01      	subs	r3, #1
 80034f0:	041b      	lsls	r3, r3, #16
 80034f2:	4319      	orrs	r1, r3
 80034f4:	f507 6300 	add.w	r3, r7, #2048	@ 0x800
 80034f8:	f5a3 63ff 	sub.w	r3, r3, #2040	@ 0x7f8
 80034fc:	689b      	ldr	r3, [r3, #8]
 80034fe:	3b01      	subs	r3, #1
 8003500:	051b      	lsls	r3, r3, #20
 8003502:	430b      	orrs	r3, r1
 8003504:	4907      	ldr	r1, [pc, #28]	@ (8003524 <set_baudrate+0x250>)
 8003506:	4313      	orrs	r3, r2
 8003508:	61cb      	str	r3, [r1, #28]
    return RY_OK;//0x001e0003
 800350a:	2301      	movs	r3, #1
}
 800350c:	4618      	mov	r0, r3
 800350e:	f607 0704 	addw	r7, r7, #2052	@ 0x804
 8003512:	46bd      	mov	sp, r7
 8003514:	bd90      	pop	{r4, r7, pc}
 8003516:	bf00      	nop
 8003518:	42c80000 	.word	0x42c80000
 800351c:	428c0000 	.word	0x428c0000
 8003520:	42a00000 	.word	0x42a00000
 8003524:	40006400 	.word	0x40006400

08003528 <Gpio_init>:
void Gpio_init(){
 8003528:	b480      	push	{r7}
 800352a:	af00      	add	r7, sp, #0
    RCC->APB1ENR|=RCC_APB1ENR_CAN1EN;
 800352c:	4b19      	ldr	r3, [pc, #100]	@ (8003594 <Gpio_init+0x6c>)
 800352e:	69db      	ldr	r3, [r3, #28]
 8003530:	4a18      	ldr	r2, [pc, #96]	@ (8003594 <Gpio_init+0x6c>)
 8003532:	f043 7300 	orr.w	r3, r3, #33554432	@ 0x2000000
 8003536:	61d3      	str	r3, [r2, #28]
    RCC->APB2ENR|=RCC_APB2ENR_AFIOEN;
 8003538:	4b16      	ldr	r3, [pc, #88]	@ (8003594 <Gpio_init+0x6c>)
 800353a:	699b      	ldr	r3, [r3, #24]
 800353c:	4a15      	ldr	r2, [pc, #84]	@ (8003594 <Gpio_init+0x6c>)
 800353e:	f043 0301 	orr.w	r3, r3, #1
 8003542:	6193      	str	r3, [r2, #24]
    RCC->APB2ENR|=RCC_APB2ENR_IOPBEN;
 8003544:	4b13      	ldr	r3, [pc, #76]	@ (8003594 <Gpio_init+0x6c>)
 8003546:	699b      	ldr	r3, [r3, #24]
 8003548:	4a12      	ldr	r2, [pc, #72]	@ (8003594 <Gpio_init+0x6c>)
 800354a:	f043 0308 	orr.w	r3, r3, #8
 800354e:	6193      	str	r3, [r2, #24]
    GPIOB->CRH &= ~(0xF << 4); // Clear bits for PB9
 8003550:	4b11      	ldr	r3, [pc, #68]	@ (8003598 <Gpio_init+0x70>)
 8003552:	685b      	ldr	r3, [r3, #4]
 8003554:	4a10      	ldr	r2, [pc, #64]	@ (8003598 <Gpio_init+0x70>)
 8003556:	f023 03f0 	bic.w	r3, r3, #240	@ 0xf0
 800355a:	6053      	str	r3, [r2, #4]
    GPIOB->CRH &= ~(0xF << 0); // Clear bits for PB8
 800355c:	4b0e      	ldr	r3, [pc, #56]	@ (8003598 <Gpio_init+0x70>)
 800355e:	685b      	ldr	r3, [r3, #4]
 8003560:	4a0d      	ldr	r2, [pc, #52]	@ (8003598 <Gpio_init+0x70>)
 8003562:	f023 030f 	bic.w	r3, r3, #15
 8003566:	6053      	str	r3, [r2, #4]
    GPIOB->CRH|=(1<<2);
 8003568:	4b0b      	ldr	r3, [pc, #44]	@ (8003598 <Gpio_init+0x70>)
 800356a:	685b      	ldr	r3, [r3, #4]
 800356c:	4a0a      	ldr	r2, [pc, #40]	@ (8003598 <Gpio_init+0x70>)
 800356e:	f043 0304 	orr.w	r3, r3, #4
 8003572:	6053      	str	r3, [r2, #4]
    GPIOB->CRH|=(0Xb0);
 8003574:	4b08      	ldr	r3, [pc, #32]	@ (8003598 <Gpio_init+0x70>)
 8003576:	685b      	ldr	r3, [r3, #4]
 8003578:	4a07      	ldr	r2, [pc, #28]	@ (8003598 <Gpio_init+0x70>)
 800357a:	f043 03b0 	orr.w	r3, r3, #176	@ 0xb0
 800357e:	6053      	str	r3, [r2, #4]
    AFIO->MAPR|=AFIO_MAPR_CAN_REMAP_REMAP2;
 8003580:	4b06      	ldr	r3, [pc, #24]	@ (800359c <Gpio_init+0x74>)
 8003582:	685b      	ldr	r3, [r3, #4]
 8003584:	4a05      	ldr	r2, [pc, #20]	@ (800359c <Gpio_init+0x74>)
 8003586:	f443 4380 	orr.w	r3, r3, #16384	@ 0x4000
 800358a:	6053      	str	r3, [r2, #4]
}
 800358c:	bf00      	nop
 800358e:	46bd      	mov	sp, r7
 8003590:	bc80      	pop	{r7}
 8003592:	4770      	bx	lr
 8003594:	40021000 	.word	0x40021000
 8003598:	40010c00 	.word	0x40010c00
 800359c:	40010000 	.word	0x40010000

080035a0 <can_init>:
STATUS can_init(uint32_t Baud_Rate){
 80035a0:	b580      	push	{r7, lr}
 80035a2:	b082      	sub	sp, #8
 80035a4:	af00      	add	r7, sp, #0
 80035a6:	6078      	str	r0, [r7, #4]
	Gpio_init();
 80035a8:	f7ff ffbe 	bl	8003528 <Gpio_init>
	CAN1->MCR &= ~CAN_MCR_AWUM_Msk;
 80035ac:	4b2e      	ldr	r3, [pc, #184]	@ (8003668 <can_init+0xc8>)
 80035ae:	681b      	ldr	r3, [r3, #0]
 80035b0:	4a2d      	ldr	r2, [pc, #180]	@ (8003668 <can_init+0xc8>)
 80035b2:	f023 0320 	bic.w	r3, r3, #32
 80035b6:	6013      	str	r3, [r2, #0]
	CAN1->MCR &= ~CAN_MCR_SLEEP_Msk;
 80035b8:	4b2b      	ldr	r3, [pc, #172]	@ (8003668 <can_init+0xc8>)
 80035ba:	681b      	ldr	r3, [r3, #0]
 80035bc:	4a2a      	ldr	r2, [pc, #168]	@ (8003668 <can_init+0xc8>)
 80035be:	f023 0302 	bic.w	r3, r3, #2
 80035c2:	6013      	str	r3, [r2, #0]
	CAN1->MCR |= CAN_MCR_INRQ_Msk;
 80035c4:	4b28      	ldr	r3, [pc, #160]	@ (8003668 <can_init+0xc8>)
 80035c6:	681b      	ldr	r3, [r3, #0]
 80035c8:	4a27      	ldr	r2, [pc, #156]	@ (8003668 <can_init+0xc8>)
 80035ca:	f043 0301 	orr.w	r3, r3, #1
 80035ce:	6013      	str	r3, [r2, #0]
	while (!(CAN1->MSR & CAN_MSR_INAK_Msk));
 80035d0:	bf00      	nop
 80035d2:	4b25      	ldr	r3, [pc, #148]	@ (8003668 <can_init+0xc8>)
 80035d4:	685b      	ldr	r3, [r3, #4]
 80035d6:	f003 0301 	and.w	r3, r3, #1
 80035da:	2b00      	cmp	r3, #0
 80035dc:	d0f9      	beq.n	80035d2 <can_init+0x32>
	if(set_baudrate(Baud_Rate)==RY_NOT_OK)
 80035de:	6878      	ldr	r0, [r7, #4]
 80035e0:	f7ff fe78 	bl	80032d4 <set_baudrate>
	{
		RY_NOT_OK;
	}
	CAN1->MCR &= ~(1<<0);  // CLEAR INQR BIT TO LEAVE INTILAIZE MODE=
 80035e4:	4b20      	ldr	r3, [pc, #128]	@ (8003668 <can_init+0xc8>)
 80035e6:	681b      	ldr	r3, [r3, #0]
 80035e8:	4a1f      	ldr	r2, [pc, #124]	@ (8003668 <can_init+0xc8>)
 80035ea:	f023 0301 	bic.w	r3, r3, #1
 80035ee:	6013      	str	r3, [r2, #0]
	while (CAN1->MSR & CAN_MSR_INAK_Msk);  // Wait for Normal Mode
 80035f0:	bf00      	nop
 80035f2:	4b1d      	ldr	r3, [pc, #116]	@ (8003668 <can_init+0xc8>)
 80035f4:	685b      	ldr	r3, [r3, #4]
 80035f6:	f003 0301 	and.w	r3, r3, #1
 80035fa:	2b00      	cmp	r3, #0
 80035fc:	d1f9      	bne.n	80035f2 <can_init+0x52>
	CAN1->FMR |= CAN_FMR_FINIT;       // Enter filter init mode
 80035fe:	4b1a      	ldr	r3, [pc, #104]	@ (8003668 <can_init+0xc8>)
 8003600:	f8d3 3200 	ldr.w	r3, [r3, #512]	@ 0x200
 8003604:	4a18      	ldr	r2, [pc, #96]	@ (8003668 <can_init+0xc8>)
 8003606:	f043 0301 	orr.w	r3, r3, #1
 800360a:	f8c2 3200 	str.w	r3, [r2, #512]	@ 0x200

	CAN1->FA1R = 0;                   // Disable all filters
 800360e:	4b16      	ldr	r3, [pc, #88]	@ (8003668 <can_init+0xc8>)
 8003610:	2200      	movs	r2, #0
 8003612:	f8c3 221c 	str.w	r2, [r3, #540]	@ 0x21c
	CAN1->FM1R = 0;                   // Identifier Mask mode
 8003616:	4b14      	ldr	r3, [pc, #80]	@ (8003668 <can_init+0xc8>)
 8003618:	2200      	movs	r2, #0
 800361a:	f8c3 2204 	str.w	r2, [r3, #516]	@ 0x204
	CAN1->FS1R = 1;                   // 32-bit scale
 800361e:	4b12      	ldr	r3, [pc, #72]	@ (8003668 <can_init+0xc8>)
 8003620:	2201      	movs	r2, #1
 8003622:	f8c3 220c 	str.w	r2, [r3, #524]	@ 0x20c
	CAN1->FFA1R = 0;                  // Assign to FIFO0
 8003626:	4b10      	ldr	r3, [pc, #64]	@ (8003668 <can_init+0xc8>)
 8003628:	2200      	movs	r2, #0
 800362a:	f8c3 2214 	str.w	r2, [r3, #532]	@ 0x214

	CAN1->sFilterRegister[0].FR1 = 0x00000000;  // ID = 0
 800362e:	4b0e      	ldr	r3, [pc, #56]	@ (8003668 <can_init+0xc8>)
 8003630:	2200      	movs	r2, #0
 8003632:	f8c3 2240 	str.w	r2, [r3, #576]	@ 0x240
	CAN1->sFilterRegister[0].FR2 = 0x00000000;  // Mask = 0
 8003636:	4b0c      	ldr	r3, [pc, #48]	@ (8003668 <can_init+0xc8>)
 8003638:	2200      	movs	r2, #0
 800363a:	f8c3 2244 	str.w	r2, [r3, #580]	@ 0x244

	CAN1->FA1R |= 1;                  // Enable filter 0
 800363e:	4b0a      	ldr	r3, [pc, #40]	@ (8003668 <can_init+0xc8>)
 8003640:	f8d3 321c 	ldr.w	r3, [r3, #540]	@ 0x21c
 8003644:	4a08      	ldr	r2, [pc, #32]	@ (8003668 <can_init+0xc8>)
 8003646:	f043 0301 	orr.w	r3, r3, #1
 800364a:	f8c2 321c 	str.w	r3, [r2, #540]	@ 0x21c

	CAN1->FMR &= ~CAN_FMR_FINIT;
 800364e:	4b06      	ldr	r3, [pc, #24]	@ (8003668 <can_init+0xc8>)
 8003650:	f8d3 3200 	ldr.w	r3, [r3, #512]	@ 0x200
 8003654:	4a04      	ldr	r2, [pc, #16]	@ (8003668 <can_init+0xc8>)
 8003656:	f023 0301 	bic.w	r3, r3, #1
 800365a:	f8c2 3200 	str.w	r3, [r2, #512]	@ 0x200
	return RY_OK;
 800365e:	2301      	movs	r3, #1
}
 8003660:	4618      	mov	r0, r3
 8003662:	3708      	adds	r7, #8
 8003664:	46bd      	mov	sp, r7
 8003666:	bd80      	pop	{r7, pc}
 8003668:	40006400 	.word	0x40006400

0800366c <send_can_remote_frame>:
			 CAN1->sTxMailBox[mail_box].TDHR|=(frame.data[i]<<((i-4)*8));
		 }
	 }
	CAN1->sTxMailBox[mail_box].TIR |= (1<<0);
	}
void send_can_remote_frame(can_frame_t frame){
 800366c:	b490      	push	{r4, r7}
 800366e:	b086      	sub	sp, #24
 8003670:	af00      	add	r7, sp, #0
 8003672:	463c      	mov	r4, r7
 8003674:	e884 000f 	stmia.w	r4, {r0, r1, r2, r3}
	uint32_t tme_mask = CAN1->TSR & (CAN_TSR_TME0 | CAN_TSR_TME1 | CAN_TSR_TME2);
 8003678:	4b49      	ldr	r3, [pc, #292]	@ (80037a0 <send_can_remote_frame+0x134>)
 800367a:	689b      	ldr	r3, [r3, #8]
 800367c:	f003 53e0 	and.w	r3, r3, #469762048	@ 0x1c000000
 8003680:	613b      	str	r3, [r7, #16]
		int mail_box = 0;
 8003682:	2300      	movs	r3, #0
 8003684:	617b      	str	r3, [r7, #20]
	    if (tme_mask & CAN_TSR_TME0) {
 8003686:	693b      	ldr	r3, [r7, #16]
 8003688:	f003 6380 	and.w	r3, r3, #67108864	@ 0x4000000
 800368c:	2b00      	cmp	r3, #0
 800368e:	d002      	beq.n	8003696 <send_can_remote_frame+0x2a>
	        mail_box = 0;
 8003690:	2300      	movs	r3, #0
 8003692:	617b      	str	r3, [r7, #20]
 8003694:	e00e      	b.n	80036b4 <send_can_remote_frame+0x48>
	    } else if (tme_mask & CAN_TSR_TME1) {
 8003696:	693b      	ldr	r3, [r7, #16]
 8003698:	f003 6300 	and.w	r3, r3, #134217728	@ 0x8000000
 800369c:	2b00      	cmp	r3, #0
 800369e:	d002      	beq.n	80036a6 <send_can_remote_frame+0x3a>
	        mail_box = 1;
 80036a0:	2301      	movs	r3, #1
 80036a2:	617b      	str	r3, [r7, #20]
 80036a4:	e006      	b.n	80036b4 <send_can_remote_frame+0x48>
	    } else if (tme_mask & CAN_TSR_TME2) {
 80036a6:	693b      	ldr	r3, [r7, #16]
 80036a8:	f003 5380 	and.w	r3, r3, #268435456	@ 0x10000000
 80036ac:	2b00      	cmp	r3, #0
 80036ae:	d001      	beq.n	80036b4 <send_can_remote_frame+0x48>
	        mail_box = 2;
 80036b0:	2302      	movs	r3, #2
 80036b2:	617b      	str	r3, [r7, #20]
	    }
		CAN1->sTxMailBox[mail_box].TIR = 0x00000000;
 80036b4:	4a3a      	ldr	r2, [pc, #232]	@ (80037a0 <send_can_remote_frame+0x134>)
 80036b6:	697b      	ldr	r3, [r7, #20]
 80036b8:	3318      	adds	r3, #24
 80036ba:	011b      	lsls	r3, r3, #4
 80036bc:	4413      	add	r3, r2
 80036be:	2200      	movs	r2, #0
 80036c0:	601a      	str	r2, [r3, #0]
		if(frame.ide==0){
 80036c2:	793b      	ldrb	r3, [r7, #4]
 80036c4:	2b00      	cmp	r3, #0
 80036c6:	d10f      	bne.n	80036e8 <send_can_remote_frame+0x7c>
			CAN1->sTxMailBox[mail_box].TIR |= (frame.id<<21);
 80036c8:	4a35      	ldr	r2, [pc, #212]	@ (80037a0 <send_can_remote_frame+0x134>)
 80036ca:	697b      	ldr	r3, [r7, #20]
 80036cc:	3318      	adds	r3, #24
 80036ce:	011b      	lsls	r3, r3, #4
 80036d0:	4413      	add	r3, r2
 80036d2:	681a      	ldr	r2, [r3, #0]
 80036d4:	683b      	ldr	r3, [r7, #0]
 80036d6:	055b      	lsls	r3, r3, #21
 80036d8:	4931      	ldr	r1, [pc, #196]	@ (80037a0 <send_can_remote_frame+0x134>)
 80036da:	431a      	orrs	r2, r3
 80036dc:	697b      	ldr	r3, [r7, #20]
 80036de:	3318      	adds	r3, #24
 80036e0:	011b      	lsls	r3, r3, #4
 80036e2:	440b      	add	r3, r1
 80036e4:	601a      	str	r2, [r3, #0]
 80036e6:	e010      	b.n	800370a <send_can_remote_frame+0x9e>

		}else{
			CAN1->sTxMailBox[mail_box].TIR |= (frame.id<<3)|(1<<2);
 80036e8:	4a2d      	ldr	r2, [pc, #180]	@ (80037a0 <send_can_remote_frame+0x134>)
 80036ea:	697b      	ldr	r3, [r7, #20]
 80036ec:	3318      	adds	r3, #24
 80036ee:	011b      	lsls	r3, r3, #4
 80036f0:	4413      	add	r3, r2
 80036f2:	681a      	ldr	r2, [r3, #0]
 80036f4:	683b      	ldr	r3, [r7, #0]
 80036f6:	00db      	lsls	r3, r3, #3
 80036f8:	4313      	orrs	r3, r2
 80036fa:	4929      	ldr	r1, [pc, #164]	@ (80037a0 <send_can_remote_frame+0x134>)
 80036fc:	f043 0204 	orr.w	r2, r3, #4
 8003700:	697b      	ldr	r3, [r7, #20]
 8003702:	3318      	adds	r3, #24
 8003704:	011b      	lsls	r3, r3, #4
 8003706:	440b      	add	r3, r1
 8003708:	601a      	str	r2, [r3, #0]

		}
	    CAN1->sTxMailBox[mail_box].TDTR = (frame.dlc & 0x0F);
 800370a:	79bb      	ldrb	r3, [r7, #6]
 800370c:	4924      	ldr	r1, [pc, #144]	@ (80037a0 <send_can_remote_frame+0x134>)
 800370e:	f003 020f 	and.w	r2, r3, #15
 8003712:	697b      	ldr	r3, [r7, #20]
 8003714:	3318      	adds	r3, #24
 8003716:	011b      	lsls	r3, r3, #4
 8003718:	440b      	add	r3, r1
 800371a:	3304      	adds	r3, #4
 800371c:	601a      	str	r2, [r3, #0]
		CAN1->sTxMailBox[mail_box].TIR |= 1<<1;
 800371e:	4a20      	ldr	r2, [pc, #128]	@ (80037a0 <send_can_remote_frame+0x134>)
 8003720:	697b      	ldr	r3, [r7, #20]
 8003722:	3318      	adds	r3, #24
 8003724:	011b      	lsls	r3, r3, #4
 8003726:	4413      	add	r3, r2
 8003728:	681b      	ldr	r3, [r3, #0]
 800372a:	491d      	ldr	r1, [pc, #116]	@ (80037a0 <send_can_remote_frame+0x134>)
 800372c:	f043 0202 	orr.w	r2, r3, #2
 8003730:	697b      	ldr	r3, [r7, #20]
 8003732:	3318      	adds	r3, #24
 8003734:	011b      	lsls	r3, r3, #4
 8003736:	440b      	add	r3, r1
 8003738:	601a      	str	r2, [r3, #0]
		CAN1->sTxMailBox[mail_box].TDTR &= ~(0xF<<0);
 800373a:	4a19      	ldr	r2, [pc, #100]	@ (80037a0 <send_can_remote_frame+0x134>)
 800373c:	697b      	ldr	r3, [r7, #20]
 800373e:	3318      	adds	r3, #24
 8003740:	011b      	lsls	r3, r3, #4
 8003742:	4413      	add	r3, r2
 8003744:	3304      	adds	r3, #4
 8003746:	681b      	ldr	r3, [r3, #0]
 8003748:	4915      	ldr	r1, [pc, #84]	@ (80037a0 <send_can_remote_frame+0x134>)
 800374a:	f023 020f 	bic.w	r2, r3, #15
 800374e:	697b      	ldr	r3, [r7, #20]
 8003750:	3318      	adds	r3, #24
 8003752:	011b      	lsls	r3, r3, #4
 8003754:	440b      	add	r3, r1
 8003756:	3304      	adds	r3, #4
 8003758:	601a      	str	r2, [r3, #0]
		CAN1->sTxMailBox[mail_box].TDTR |= (frame.dlc<<0);
 800375a:	4a11      	ldr	r2, [pc, #68]	@ (80037a0 <send_can_remote_frame+0x134>)
 800375c:	697b      	ldr	r3, [r7, #20]
 800375e:	3318      	adds	r3, #24
 8003760:	011b      	lsls	r3, r3, #4
 8003762:	4413      	add	r3, r2
 8003764:	3304      	adds	r3, #4
 8003766:	681b      	ldr	r3, [r3, #0]
 8003768:	79ba      	ldrb	r2, [r7, #6]
 800376a:	490d      	ldr	r1, [pc, #52]	@ (80037a0 <send_can_remote_frame+0x134>)
 800376c:	431a      	orrs	r2, r3
 800376e:	697b      	ldr	r3, [r7, #20]
 8003770:	3318      	adds	r3, #24
 8003772:	011b      	lsls	r3, r3, #4
 8003774:	440b      	add	r3, r1
 8003776:	3304      	adds	r3, #4
 8003778:	601a      	str	r2, [r3, #0]
		CAN1->sTxMailBox[mail_box].TIR |= (1<<0);
 800377a:	4a09      	ldr	r2, [pc, #36]	@ (80037a0 <send_can_remote_frame+0x134>)
 800377c:	697b      	ldr	r3, [r7, #20]
 800377e:	3318      	adds	r3, #24
 8003780:	011b      	lsls	r3, r3, #4
 8003782:	4413      	add	r3, r2
 8003784:	681b      	ldr	r3, [r3, #0]
 8003786:	4906      	ldr	r1, [pc, #24]	@ (80037a0 <send_can_remote_frame+0x134>)
 8003788:	f043 0201 	orr.w	r2, r3, #1
 800378c:	697b      	ldr	r3, [r7, #20]
 800378e:	3318      	adds	r3, #24
 8003790:	011b      	lsls	r3, r3, #4
 8003792:	440b      	add	r3, r1
 8003794:	601a      	str	r2, [r3, #0]
}
 8003796:	bf00      	nop
 8003798:	3718      	adds	r7, #24
 800379a:	46bd      	mov	sp, r7
 800379c:	bc90      	pop	{r4, r7}
 800379e:	4770      	bx	lr
 80037a0:	40006400 	.word	0x40006400

080037a4 <configure_can_filters>:
void configure_can_filters(const uint32_t *std_ids, uint8_t std_cnt,const uint32_t *ext_ids, uint8_t ext_cnt) {
 80037a4:	b480      	push	{r7}
 80037a6:	b089      	sub	sp, #36	@ 0x24
 80037a8:	af00      	add	r7, sp, #0
 80037aa:	60f8      	str	r0, [r7, #12]
 80037ac:	607a      	str	r2, [r7, #4]
 80037ae:	461a      	mov	r2, r3
 80037b0:	460b      	mov	r3, r1
 80037b2:	72fb      	strb	r3, [r7, #11]
 80037b4:	4613      	mov	r3, r2
 80037b6:	72bb      	strb	r3, [r7, #10]
    uint8_t bank = 0; // filter bank index
 80037b8:	2300      	movs	r3, #0
 80037ba:	77fb      	strb	r3, [r7, #31]

    // Enter filter initialization mode
    CAN1->FMR |= CAN_FMR_FINIT;
 80037bc:	4b6e      	ldr	r3, [pc, #440]	@ (8003978 <configure_can_filters+0x1d4>)
 80037be:	f8d3 3200 	ldr.w	r3, [r3, #512]	@ 0x200
 80037c2:	4a6d      	ldr	r2, [pc, #436]	@ (8003978 <configure_can_filters+0x1d4>)
 80037c4:	f043 0301 	orr.w	r3, r3, #1
 80037c8:	f8c2 3200 	str.w	r3, [r2, #512]	@ 0x200

    // --- Configure standard IDs ---
    for (uint8_t i = 0; i < std_cnt; i += 2)
 80037cc:	2300      	movs	r3, #0
 80037ce:	77bb      	strb	r3, [r7, #30]
 80037d0:	e067      	b.n	80038a2 <configure_can_filters+0xfe>
    {
        if (bank >= 14) break; // no more filter banks available
 80037d2:	7ffb      	ldrb	r3, [r7, #31]
 80037d4:	2b0d      	cmp	r3, #13
 80037d6:	d869      	bhi.n	80038ac <configure_can_filters+0x108>

        // Set 16-bit scale configuration
        CAN1->FS1R &= ~(1 << bank); // 0 = 16-bit scale
 80037d8:	4b67      	ldr	r3, [pc, #412]	@ (8003978 <configure_can_filters+0x1d4>)
 80037da:	f8d3 320c 	ldr.w	r3, [r3, #524]	@ 0x20c
 80037de:	7ffa      	ldrb	r2, [r7, #31]
 80037e0:	2101      	movs	r1, #1
 80037e2:	fa01 f202 	lsl.w	r2, r1, r2
 80037e6:	43d2      	mvns	r2, r2
 80037e8:	4611      	mov	r1, r2
 80037ea:	4a63      	ldr	r2, [pc, #396]	@ (8003978 <configure_can_filters+0x1d4>)
 80037ec:	400b      	ands	r3, r1
 80037ee:	f8c2 320c 	str.w	r3, [r2, #524]	@ 0x20c

        // Set list mode (not mask mode)
        CAN1->FM1R |= (1 << bank);
 80037f2:	4b61      	ldr	r3, [pc, #388]	@ (8003978 <configure_can_filters+0x1d4>)
 80037f4:	f8d3 3204 	ldr.w	r3, [r3, #516]	@ 0x204
 80037f8:	7ffa      	ldrb	r2, [r7, #31]
 80037fa:	2101      	movs	r1, #1
 80037fc:	fa01 f202 	lsl.w	r2, r1, r2
 8003800:	4611      	mov	r1, r2
 8003802:	4a5d      	ldr	r2, [pc, #372]	@ (8003978 <configure_can_filters+0x1d4>)
 8003804:	430b      	orrs	r3, r1
 8003806:	f8c2 3204 	str.w	r3, [r2, #516]	@ 0x204

        // Assign to FIFO0
        CAN1->FFA1R &= ~(1 << bank);
 800380a:	4b5b      	ldr	r3, [pc, #364]	@ (8003978 <configure_can_filters+0x1d4>)
 800380c:	f8d3 3214 	ldr.w	r3, [r3, #532]	@ 0x214
 8003810:	7ffa      	ldrb	r2, [r7, #31]
 8003812:	2101      	movs	r1, #1
 8003814:	fa01 f202 	lsl.w	r2, r1, r2
 8003818:	43d2      	mvns	r2, r2
 800381a:	4611      	mov	r1, r2
 800381c:	4a56      	ldr	r2, [pc, #344]	@ (8003978 <configure_can_filters+0x1d4>)
 800381e:	400b      	ands	r3, r1
 8003820:	f8c2 3214 	str.w	r3, [r2, #532]	@ 0x214

        // Two IDs per bank (if available)
        uint16_t id1 = std_ids[i] & 0x7FF;
 8003824:	7fbb      	ldrb	r3, [r7, #30]
 8003826:	009b      	lsls	r3, r3, #2
 8003828:	68fa      	ldr	r2, [r7, #12]
 800382a:	4413      	add	r3, r2
 800382c:	681b      	ldr	r3, [r3, #0]
 800382e:	b29b      	uxth	r3, r3
 8003830:	f3c3 030a 	ubfx	r3, r3, #0, #11
 8003834:	837b      	strh	r3, [r7, #26]
        uint16_t id2 = (i + 1 < std_cnt) ? (std_ids[i+1] & 0x7FF) : 0;
 8003836:	7fbb      	ldrb	r3, [r7, #30]
 8003838:	1c5a      	adds	r2, r3, #1
 800383a:	7afb      	ldrb	r3, [r7, #11]
 800383c:	429a      	cmp	r2, r3
 800383e:	da0a      	bge.n	8003856 <configure_can_filters+0xb2>
 8003840:	7fbb      	ldrb	r3, [r7, #30]
 8003842:	3301      	adds	r3, #1
 8003844:	009b      	lsls	r3, r3, #2
 8003846:	68fa      	ldr	r2, [r7, #12]
 8003848:	4413      	add	r3, r2
 800384a:	681b      	ldr	r3, [r3, #0]
 800384c:	b29b      	uxth	r3, r3
 800384e:	f3c3 030a 	ubfx	r3, r3, #0, #11
 8003852:	b29b      	uxth	r3, r3
 8003854:	e000      	b.n	8003858 <configure_can_filters+0xb4>
 8003856:	2300      	movs	r3, #0
 8003858:	833b      	strh	r3, [r7, #24]

        // Put IDs into filter registers
        CAN1->sFilterRegister[bank].FR1 = (id1 << 5) | (id2 << 21);
 800385a:	8b7b      	ldrh	r3, [r7, #26]
 800385c:	015a      	lsls	r2, r3, #5
 800385e:	8b3b      	ldrh	r3, [r7, #24]
 8003860:	055b      	lsls	r3, r3, #21
 8003862:	ea42 0103 	orr.w	r1, r2, r3
 8003866:	4a44      	ldr	r2, [pc, #272]	@ (8003978 <configure_can_filters+0x1d4>)
 8003868:	7ffb      	ldrb	r3, [r7, #31]
 800386a:	3348      	adds	r3, #72	@ 0x48
 800386c:	f842 1033 	str.w	r1, [r2, r3, lsl #3]
        CAN1->sFilterRegister[bank].FR2 = 0; // not used in 16-bit mode
 8003870:	4a41      	ldr	r2, [pc, #260]	@ (8003978 <configure_can_filters+0x1d4>)
 8003872:	7ffb      	ldrb	r3, [r7, #31]
 8003874:	3348      	adds	r3, #72	@ 0x48
 8003876:	00db      	lsls	r3, r3, #3
 8003878:	4413      	add	r3, r2
 800387a:	2200      	movs	r2, #0
 800387c:	605a      	str	r2, [r3, #4]

        // Enable filter
        CAN1->FA1R |= (1 << bank);
 800387e:	4b3e      	ldr	r3, [pc, #248]	@ (8003978 <configure_can_filters+0x1d4>)
 8003880:	f8d3 321c 	ldr.w	r3, [r3, #540]	@ 0x21c
 8003884:	7ffa      	ldrb	r2, [r7, #31]
 8003886:	2101      	movs	r1, #1
 8003888:	fa01 f202 	lsl.w	r2, r1, r2
 800388c:	4611      	mov	r1, r2
 800388e:	4a3a      	ldr	r2, [pc, #232]	@ (8003978 <configure_can_filters+0x1d4>)
 8003890:	430b      	orrs	r3, r1
 8003892:	f8c2 321c 	str.w	r3, [r2, #540]	@ 0x21c

        bank++;
 8003896:	7ffb      	ldrb	r3, [r7, #31]
 8003898:	3301      	adds	r3, #1
 800389a:	77fb      	strb	r3, [r7, #31]
    for (uint8_t i = 0; i < std_cnt; i += 2)
 800389c:	7fbb      	ldrb	r3, [r7, #30]
 800389e:	3302      	adds	r3, #2
 80038a0:	77bb      	strb	r3, [r7, #30]
 80038a2:	7fba      	ldrb	r2, [r7, #30]
 80038a4:	7afb      	ldrb	r3, [r7, #11]
 80038a6:	429a      	cmp	r2, r3
 80038a8:	d393      	bcc.n	80037d2 <configure_can_filters+0x2e>
 80038aa:	e000      	b.n	80038ae <configure_can_filters+0x10a>
        if (bank >= 14) break; // no more filter banks available
 80038ac:	bf00      	nop
    }

    // --- Configure extended IDs ---
    for (uint8_t i = 0; i < ext_cnt; i++)
 80038ae:	2300      	movs	r3, #0
 80038b0:	777b      	strb	r3, [r7, #29]
 80038b2:	e04e      	b.n	8003952 <configure_can_filters+0x1ae>
    {
        if (bank >= 14) break; // no more filter banks available
 80038b4:	7ffb      	ldrb	r3, [r7, #31]
 80038b6:	2b0d      	cmp	r3, #13
 80038b8:	d850      	bhi.n	800395c <configure_can_filters+0x1b8>

        // Set 32-bit scale configuration
        CAN1->FS1R |= (1 << bank); // 1 = 32-bit scale
 80038ba:	4b2f      	ldr	r3, [pc, #188]	@ (8003978 <configure_can_filters+0x1d4>)
 80038bc:	f8d3 320c 	ldr.w	r3, [r3, #524]	@ 0x20c
 80038c0:	7ffa      	ldrb	r2, [r7, #31]
 80038c2:	2101      	movs	r1, #1
 80038c4:	fa01 f202 	lsl.w	r2, r1, r2
 80038c8:	4611      	mov	r1, r2
 80038ca:	4a2b      	ldr	r2, [pc, #172]	@ (8003978 <configure_can_filters+0x1d4>)
 80038cc:	430b      	orrs	r3, r1
 80038ce:	f8c2 320c 	str.w	r3, [r2, #524]	@ 0x20c

        // Set list mode
        CAN1->FM1R |= (1 << bank);
 80038d2:	4b29      	ldr	r3, [pc, #164]	@ (8003978 <configure_can_filters+0x1d4>)
 80038d4:	f8d3 3204 	ldr.w	r3, [r3, #516]	@ 0x204
 80038d8:	7ffa      	ldrb	r2, [r7, #31]
 80038da:	2101      	movs	r1, #1
 80038dc:	fa01 f202 	lsl.w	r2, r1, r2
 80038e0:	4611      	mov	r1, r2
 80038e2:	4a25      	ldr	r2, [pc, #148]	@ (8003978 <configure_can_filters+0x1d4>)
 80038e4:	430b      	orrs	r3, r1
 80038e6:	f8c2 3204 	str.w	r3, [r2, #516]	@ 0x204

        // Assign to FIFO1
        CAN1->FFA1R |= (1 << bank);
 80038ea:	4b23      	ldr	r3, [pc, #140]	@ (8003978 <configure_can_filters+0x1d4>)
 80038ec:	f8d3 3214 	ldr.w	r3, [r3, #532]	@ 0x214
 80038f0:	7ffa      	ldrb	r2, [r7, #31]
 80038f2:	2101      	movs	r1, #1
 80038f4:	fa01 f202 	lsl.w	r2, r1, r2
 80038f8:	4611      	mov	r1, r2
 80038fa:	4a1f      	ldr	r2, [pc, #124]	@ (8003978 <configure_can_filters+0x1d4>)
 80038fc:	430b      	orrs	r3, r1
 80038fe:	f8c2 3214 	str.w	r3, [r2, #532]	@ 0x214

        // Extended ID format: ID[28:0] << 3 + IDE bit
        uint32_t id = ((ext_ids[i] & 0x1FFFFFFF) << 3) | (1 << 2);
 8003902:	7f7b      	ldrb	r3, [r7, #29]
 8003904:	009b      	lsls	r3, r3, #2
 8003906:	687a      	ldr	r2, [r7, #4]
 8003908:	4413      	add	r3, r2
 800390a:	681b      	ldr	r3, [r3, #0]
 800390c:	00db      	lsls	r3, r3, #3
 800390e:	f043 0304 	orr.w	r3, r3, #4
 8003912:	617b      	str	r3, [r7, #20]

        // Put ID into filter
        CAN1->sFilterRegister[bank].FR1 = id;
 8003914:	4918      	ldr	r1, [pc, #96]	@ (8003978 <configure_can_filters+0x1d4>)
 8003916:	7ffb      	ldrb	r3, [r7, #31]
 8003918:	3348      	adds	r3, #72	@ 0x48
 800391a:	697a      	ldr	r2, [r7, #20]
 800391c:	f841 2033 	str.w	r2, [r1, r3, lsl #3]
        CAN1->sFilterRegister[bank].FR2 = 0;
 8003920:	4a15      	ldr	r2, [pc, #84]	@ (8003978 <configure_can_filters+0x1d4>)
 8003922:	7ffb      	ldrb	r3, [r7, #31]
 8003924:	3348      	adds	r3, #72	@ 0x48
 8003926:	00db      	lsls	r3, r3, #3
 8003928:	4413      	add	r3, r2
 800392a:	2200      	movs	r2, #0
 800392c:	605a      	str	r2, [r3, #4]

        // Enable filter
        CAN1->FA1R |= (1 << bank);
 800392e:	4b12      	ldr	r3, [pc, #72]	@ (8003978 <configure_can_filters+0x1d4>)
 8003930:	f8d3 321c 	ldr.w	r3, [r3, #540]	@ 0x21c
 8003934:	7ffa      	ldrb	r2, [r7, #31]
 8003936:	2101      	movs	r1, #1
 8003938:	fa01 f202 	lsl.w	r2, r1, r2
 800393c:	4611      	mov	r1, r2
 800393e:	4a0e      	ldr	r2, [pc, #56]	@ (8003978 <configure_can_filters+0x1d4>)
 8003940:	430b      	orrs	r3, r1
 8003942:	f8c2 321c 	str.w	r3, [r2, #540]	@ 0x21c

        bank++;
 8003946:	7ffb      	ldrb	r3, [r7, #31]
 8003948:	3301      	adds	r3, #1
 800394a:	77fb      	strb	r3, [r7, #31]
    for (uint8_t i = 0; i < ext_cnt; i++)
 800394c:	7f7b      	ldrb	r3, [r7, #29]
 800394e:	3301      	adds	r3, #1
 8003950:	777b      	strb	r3, [r7, #29]
 8003952:	7f7a      	ldrb	r2, [r7, #29]
 8003954:	7abb      	ldrb	r3, [r7, #10]
 8003956:	429a      	cmp	r2, r3
 8003958:	d3ac      	bcc.n	80038b4 <configure_can_filters+0x110>
 800395a:	e000      	b.n	800395e <configure_can_filters+0x1ba>
        if (bank >= 14) break; // no more filter banks available
 800395c:	bf00      	nop
    }

    // Exit filter initialization mode
    CAN1->FMR &= ~CAN_FMR_FINIT;
 800395e:	4b06      	ldr	r3, [pc, #24]	@ (8003978 <configure_can_filters+0x1d4>)
 8003960:	f8d3 3200 	ldr.w	r3, [r3, #512]	@ 0x200
 8003964:	4a04      	ldr	r2, [pc, #16]	@ (8003978 <configure_can_filters+0x1d4>)
 8003966:	f023 0301 	bic.w	r3, r3, #1
 800396a:	f8c2 3200 	str.w	r3, [r2, #512]	@ 0x200
        bank++;
    }

    // Leave filter init mode
    CAN1->FMR &= ~CAN_FMR_FINIT;*/
}
 800396e:	bf00      	nop
 8003970:	3724      	adds	r7, #36	@ 0x24
 8003972:	46bd      	mov	sp, r7
 8003974:	bc80      	pop	{r7}
 8003976:	4770      	bx	lr
 8003978:	40006400 	.word	0x40006400

0800397c <CAN_MessagePending>:
 * @param fifo_number The FIFO to check (0 for FIFO0, 1 for FIFO1).
 * @param rx_message A pointer to the CanRxMsg structure to store the received data.
 * @return 1 if a message was successfully received, 0 otherwise.
 */
uint8_t CAN_MessagePending(uint8_t fifo)
{
 800397c:	b480      	push	{r7}
 800397e:	b083      	sub	sp, #12
 8003980:	af00      	add	r7, sp, #0
 8003982:	4603      	mov	r3, r0
 8003984:	71fb      	strb	r3, [r7, #7]
    if (fifo == 0)
 8003986:	79fb      	ldrb	r3, [r7, #7]
 8003988:	2b00      	cmp	r3, #0
 800398a:	d109      	bne.n	80039a0 <CAN_MessagePending+0x24>
        return (CAN1->RF0R & CAN_RF0R_FMP0_Msk) ? 1 : 0;
 800398c:	4b0b      	ldr	r3, [pc, #44]	@ (80039bc <CAN_MessagePending+0x40>)
 800398e:	68db      	ldr	r3, [r3, #12]
 8003990:	f003 0303 	and.w	r3, r3, #3
 8003994:	2b00      	cmp	r3, #0
 8003996:	bf14      	ite	ne
 8003998:	2301      	movne	r3, #1
 800399a:	2300      	moveq	r3, #0
 800399c:	b2db      	uxtb	r3, r3
 800399e:	e008      	b.n	80039b2 <CAN_MessagePending+0x36>
    else
        return (CAN1->RF1R & CAN_RF1R_FMP1_Msk) ? 1 : 0;
 80039a0:	4b06      	ldr	r3, [pc, #24]	@ (80039bc <CAN_MessagePending+0x40>)
 80039a2:	691b      	ldr	r3, [r3, #16]
 80039a4:	f003 0303 	and.w	r3, r3, #3
 80039a8:	2b00      	cmp	r3, #0
 80039aa:	bf14      	ite	ne
 80039ac:	2301      	movne	r3, #1
 80039ae:	2300      	moveq	r3, #0
 80039b0:	b2db      	uxtb	r3, r3
}
 80039b2:	4618      	mov	r0, r3
 80039b4:	370c      	adds	r7, #12
 80039b6:	46bd      	mov	sp, r7
 80039b8:	bc80      	pop	{r7}
 80039ba:	4770      	bx	lr
 80039bc:	40006400 	.word	0x40006400

080039c0 <can_rx>:

uint8_t can_rx(can_frame_t *RxMessage,uint8_t fifo_number){
 80039c0:	b480      	push	{r7}
 80039c2:	b085      	sub	sp, #20
 80039c4:	af00      	add	r7, sp, #0
 80039c6:	6078      	str	r0, [r7, #4]
 80039c8:	460b      	mov	r3, r1
 80039ca:	70fb      	strb	r3, [r7, #3]
	  RxMessage->ide = (uint8_t)0x04 & CAN1->sFIFOMailBox[fifo_number].RIR;
 80039cc:	4a44      	ldr	r2, [pc, #272]	@ (8003ae0 <can_rx+0x120>)
 80039ce:	78fb      	ldrb	r3, [r7, #3]
 80039d0:	331b      	adds	r3, #27
 80039d2:	011b      	lsls	r3, r3, #4
 80039d4:	4413      	add	r3, r2
 80039d6:	681b      	ldr	r3, [r3, #0]
 80039d8:	b2db      	uxtb	r3, r3
 80039da:	f003 0304 	and.w	r3, r3, #4
 80039de:	b2da      	uxtb	r2, r3
 80039e0:	687b      	ldr	r3, [r7, #4]
 80039e2:	711a      	strb	r2, [r3, #4]
	  if (RxMessage->ide == 0)
 80039e4:	687b      	ldr	r3, [r7, #4]
 80039e6:	791b      	ldrb	r3, [r3, #4]
 80039e8:	2b00      	cmp	r3, #0
 80039ea:	d10b      	bne.n	8003a04 <can_rx+0x44>
	  {
	    RxMessage->id = (uint32_t)0x000007FF & (CAN1->sFIFOMailBox[fifo_number].RIR >> 21);
 80039ec:	4a3c      	ldr	r2, [pc, #240]	@ (8003ae0 <can_rx+0x120>)
 80039ee:	78fb      	ldrb	r3, [r7, #3]
 80039f0:	331b      	adds	r3, #27
 80039f2:	011b      	lsls	r3, r3, #4
 80039f4:	4413      	add	r3, r2
 80039f6:	681b      	ldr	r3, [r3, #0]
 80039f8:	0d5b      	lsrs	r3, r3, #21
 80039fa:	f3c3 020a 	ubfx	r2, r3, #0, #11
 80039fe:	687b      	ldr	r3, [r7, #4]
 8003a00:	601a      	str	r2, [r3, #0]
 8003a02:	e00a      	b.n	8003a1a <can_rx+0x5a>
	  }
	  else
	  {
	    RxMessage->id = (uint32_t)0x1FFFFFFF & (CAN1->sFIFOMailBox[fifo_number].RIR >> 3);
 8003a04:	4a36      	ldr	r2, [pc, #216]	@ (8003ae0 <can_rx+0x120>)
 8003a06:	78fb      	ldrb	r3, [r7, #3]
 8003a08:	331b      	adds	r3, #27
 8003a0a:	011b      	lsls	r3, r3, #4
 8003a0c:	4413      	add	r3, r2
 8003a0e:	681b      	ldr	r3, [r3, #0]
 8003a10:	08db      	lsrs	r3, r3, #3
 8003a12:	f023 4260 	bic.w	r2, r3, #3758096384	@ 0xe0000000
 8003a16:	687b      	ldr	r3, [r7, #4]
 8003a18:	601a      	str	r2, [r3, #0]
	  }

	  RxMessage->rtr = (uint8_t)0x02 & CAN1->sFIFOMailBox[fifo_number].RIR;
 8003a1a:	4a31      	ldr	r2, [pc, #196]	@ (8003ae0 <can_rx+0x120>)
 8003a1c:	78fb      	ldrb	r3, [r7, #3]
 8003a1e:	331b      	adds	r3, #27
 8003a20:	011b      	lsls	r3, r3, #4
 8003a22:	4413      	add	r3, r2
 8003a24:	681b      	ldr	r3, [r3, #0]
 8003a26:	b2db      	uxtb	r3, r3
 8003a28:	f003 0302 	and.w	r3, r3, #2
 8003a2c:	b2da      	uxtb	r2, r3
 8003a2e:	687b      	ldr	r3, [r7, #4]
 8003a30:	715a      	strb	r2, [r3, #5]
	  /* Get the DLC */
	  RxMessage->dlc = (uint8_t)0x0F & CAN1->sFIFOMailBox[fifo_number].RDTR;
 8003a32:	4a2b      	ldr	r2, [pc, #172]	@ (8003ae0 <can_rx+0x120>)
 8003a34:	78fb      	ldrb	r3, [r7, #3]
 8003a36:	331b      	adds	r3, #27
 8003a38:	011b      	lsls	r3, r3, #4
 8003a3a:	4413      	add	r3, r2
 8003a3c:	3304      	adds	r3, #4
 8003a3e:	681b      	ldr	r3, [r3, #0]
 8003a40:	b2db      	uxtb	r3, r3
 8003a42:	f003 030f 	and.w	r3, r3, #15
 8003a46:	b2da      	uxtb	r2, r3
 8003a48:	687b      	ldr	r3, [r7, #4]
 8003a4a:	719a      	strb	r2, [r3, #6]
	  /* Get the data field */
	  for(uint8_t i=0;i< RxMessage->dlc;i++){
 8003a4c:	2300      	movs	r3, #0
 8003a4e:	73fb      	strb	r3, [r7, #15]
 8003a50:	e027      	b.n	8003aa2 <can_rx+0xe2>
		  if(i<4){
 8003a52:	7bfb      	ldrb	r3, [r7, #15]
 8003a54:	2b03      	cmp	r3, #3
 8003a56:	d810      	bhi.n	8003a7a <can_rx+0xba>
			  RxMessage->data[i] = (CAN1->sFIFOMailBox[fifo_number].RDLR>>(i*8));
 8003a58:	4a21      	ldr	r2, [pc, #132]	@ (8003ae0 <can_rx+0x120>)
 8003a5a:	78fb      	ldrb	r3, [r7, #3]
 8003a5c:	011b      	lsls	r3, r3, #4
 8003a5e:	4413      	add	r3, r2
 8003a60:	f503 73dc 	add.w	r3, r3, #440	@ 0x1b8
 8003a64:	681a      	ldr	r2, [r3, #0]
 8003a66:	7bfb      	ldrb	r3, [r7, #15]
 8003a68:	00db      	lsls	r3, r3, #3
 8003a6a:	40da      	lsrs	r2, r3
 8003a6c:	7bfb      	ldrb	r3, [r7, #15]
 8003a6e:	b2d1      	uxtb	r1, r2
 8003a70:	687a      	ldr	r2, [r7, #4]
 8003a72:	4413      	add	r3, r2
 8003a74:	460a      	mov	r2, r1
 8003a76:	71da      	strb	r2, [r3, #7]
 8003a78:	e010      	b.n	8003a9c <can_rx+0xdc>
		  }else{
			  RxMessage->data[i] = (CAN1->sFIFOMailBox[fifo_number].RDHR>>(((i-4)*8)));
 8003a7a:	4a19      	ldr	r2, [pc, #100]	@ (8003ae0 <can_rx+0x120>)
 8003a7c:	78fb      	ldrb	r3, [r7, #3]
 8003a7e:	011b      	lsls	r3, r3, #4
 8003a80:	4413      	add	r3, r2
 8003a82:	f503 73de 	add.w	r3, r3, #444	@ 0x1bc
 8003a86:	681a      	ldr	r2, [r3, #0]
 8003a88:	7bfb      	ldrb	r3, [r7, #15]
 8003a8a:	3b04      	subs	r3, #4
 8003a8c:	00db      	lsls	r3, r3, #3
 8003a8e:	40da      	lsrs	r2, r3
 8003a90:	7bfb      	ldrb	r3, [r7, #15]
 8003a92:	b2d1      	uxtb	r1, r2
 8003a94:	687a      	ldr	r2, [r7, #4]
 8003a96:	4413      	add	r3, r2
 8003a98:	460a      	mov	r2, r1
 8003a9a:	71da      	strb	r2, [r3, #7]
	  for(uint8_t i=0;i< RxMessage->dlc;i++){
 8003a9c:	7bfb      	ldrb	r3, [r7, #15]
 8003a9e:	3301      	adds	r3, #1
 8003aa0:	73fb      	strb	r3, [r7, #15]
 8003aa2:	687b      	ldr	r3, [r7, #4]
 8003aa4:	799b      	ldrb	r3, [r3, #6]
 8003aa6:	7bfa      	ldrb	r2, [r7, #15]
 8003aa8:	429a      	cmp	r2, r3
 8003aaa:	d3d2      	bcc.n	8003a52 <can_rx+0x92>

		  }
	  }
//	  send_full_frame_over_uart(&RxMessage);
	  if (fifo_number == 0)
 8003aac:	78fb      	ldrb	r3, [r7, #3]
 8003aae:	2b00      	cmp	r3, #0
 8003ab0:	d106      	bne.n	8003ac0 <can_rx+0x100>
	  {
		  CAN1->RF0R |= CAN_RF0R_RFOM0;
 8003ab2:	4b0b      	ldr	r3, [pc, #44]	@ (8003ae0 <can_rx+0x120>)
 8003ab4:	68db      	ldr	r3, [r3, #12]
 8003ab6:	4a0a      	ldr	r2, [pc, #40]	@ (8003ae0 <can_rx+0x120>)
 8003ab8:	f043 0320 	orr.w	r3, r3, #32
 8003abc:	60d3      	str	r3, [r2, #12]
 8003abe:	e008      	b.n	8003ad2 <can_rx+0x112>
	  }
	  else if (fifo_number == 1)
 8003ac0:	78fb      	ldrb	r3, [r7, #3]
 8003ac2:	2b01      	cmp	r3, #1
 8003ac4:	d105      	bne.n	8003ad2 <can_rx+0x112>
	  {
		  CAN1->RF1R |= CAN_RF1R_RFOM1;
 8003ac6:	4b06      	ldr	r3, [pc, #24]	@ (8003ae0 <can_rx+0x120>)
 8003ac8:	691b      	ldr	r3, [r3, #16]
 8003aca:	4a05      	ldr	r2, [pc, #20]	@ (8003ae0 <can_rx+0x120>)
 8003acc:	f043 0320 	orr.w	r3, r3, #32
 8003ad0:	6113      	str	r3, [r2, #16]
	  }
	  return 1;
 8003ad2:	2301      	movs	r3, #1
}
 8003ad4:	4618      	mov	r0, r3
 8003ad6:	3714      	adds	r7, #20
 8003ad8:	46bd      	mov	sp, r7
 8003ada:	bc80      	pop	{r7}
 8003adc:	4770      	bx	lr
 8003ade:	bf00      	nop
 8003ae0:	40006400 	.word	0x40006400

08003ae4 <Condensor_Relay_Pins_Init>:

#include"extern_file_declarations.h"

#define PB15_CONDENSOR   15

void Condensor_Relay_Pins_Init(){
 8003ae4:	b480      	push	{r7}
 8003ae6:	af00      	add	r7, sp, #0
    RCC->APB2ENR |= RCC_APB2ENR_IOPBEN;
 8003ae8:	4b0d      	ldr	r3, [pc, #52]	@ (8003b20 <Condensor_Relay_Pins_Init+0x3c>)
 8003aea:	699b      	ldr	r3, [r3, #24]
 8003aec:	4a0c      	ldr	r2, [pc, #48]	@ (8003b20 <Condensor_Relay_Pins_Init+0x3c>)
 8003aee:	f043 0308 	orr.w	r3, r3, #8
 8003af2:	6193      	str	r3, [r2, #24]
    GPIOB->CRH&=~((0xF<<28));
 8003af4:	4b0b      	ldr	r3, [pc, #44]	@ (8003b24 <Condensor_Relay_Pins_Init+0x40>)
 8003af6:	685b      	ldr	r3, [r3, #4]
 8003af8:	4a0a      	ldr	r2, [pc, #40]	@ (8003b24 <Condensor_Relay_Pins_Init+0x40>)
 8003afa:	f023 4370 	bic.w	r3, r3, #4026531840	@ 0xf0000000
 8003afe:	6053      	str	r3, [r2, #4]
    GPIOB->CRH|=((0x3<<28));
 8003b00:	4b08      	ldr	r3, [pc, #32]	@ (8003b24 <Condensor_Relay_Pins_Init+0x40>)
 8003b02:	685b      	ldr	r3, [r3, #4]
 8003b04:	4a07      	ldr	r2, [pc, #28]	@ (8003b24 <Condensor_Relay_Pins_Init+0x40>)
 8003b06:	f043 5340 	orr.w	r3, r3, #805306368	@ 0x30000000
 8003b0a:	6053      	str	r3, [r2, #4]
    GPIOB->ODR|=((1<<PB15_CONDENSOR));
 8003b0c:	4b05      	ldr	r3, [pc, #20]	@ (8003b24 <Condensor_Relay_Pins_Init+0x40>)
 8003b0e:	68db      	ldr	r3, [r3, #12]
 8003b10:	4a04      	ldr	r2, [pc, #16]	@ (8003b24 <Condensor_Relay_Pins_Init+0x40>)
 8003b12:	f443 4300 	orr.w	r3, r3, #32768	@ 0x8000
 8003b16:	60d3      	str	r3, [r2, #12]
}
 8003b18:	bf00      	nop
 8003b1a:	46bd      	mov	sp, r7
 8003b1c:	bc80      	pop	{r7}
 8003b1e:	4770      	bx	lr
 8003b20:	40021000 	.word	0x40021000
 8003b24:	40010c00 	.word	0x40010c00

08003b28 <clock_print_status>:
#include"Drive_Selector_Switch.h"
#include"JBD_BMS.h"
#include"JBD_BMS_MESSAGES.h"
extern void matel_mcu_process_can_frame(can_frame_t *);
I2C_HandleTypeDef hi2c1;
void clock_print_status(){
 8003b28:	b580      	push	{r7, lr}
 8003b2a:	af00      	add	r7, sp, #0
    uart_printf("\r\n=====================================\r\n");
 8003b2c:	4817      	ldr	r0, [pc, #92]	@ (8003b8c <clock_print_status+0x64>)
 8003b2e:	f000 ff51 	bl	80049d4 <uart_printf>
    uart_printf("EVA DRIVE_MODE_SELECTOR & HVAC \r\n");
 8003b32:	4817      	ldr	r0, [pc, #92]	@ (8003b90 <clock_print_status+0x68>)
 8003b34:	f000 ff4e 	bl	80049d4 <uart_printf>
    uart_printf("=====================================\r\n");
 8003b38:	4816      	ldr	r0, [pc, #88]	@ (8003b94 <clock_print_status+0x6c>)
 8003b3a:	f000 ff4b 	bl	80049d4 <uart_printf>
    uart_printf("System Clock: %lu MHz\r\n", get_SYSCLK_freq() / 1000000);
 8003b3e:	f000 fb3b 	bl	80041b8 <get_SYSCLK_freq>
 8003b42:	4603      	mov	r3, r0
 8003b44:	4a14      	ldr	r2, [pc, #80]	@ (8003b98 <clock_print_status+0x70>)
 8003b46:	fba2 2303 	umull	r2, r3, r2, r3
 8003b4a:	0c9b      	lsrs	r3, r3, #18
 8003b4c:	4619      	mov	r1, r3
 8003b4e:	4813      	ldr	r0, [pc, #76]	@ (8003b9c <clock_print_status+0x74>)
 8003b50:	f000 ff40 	bl	80049d4 <uart_printf>
    uart_printf("APB1 Clock: %lu MHz\r\n", get_APB1_freq() / 1000000);
 8003b54:	f000 fbae 	bl	80042b4 <get_APB1_freq>
 8003b58:	4603      	mov	r3, r0
 8003b5a:	4a0f      	ldr	r2, [pc, #60]	@ (8003b98 <clock_print_status+0x70>)
 8003b5c:	fba2 2303 	umull	r2, r3, r2, r3
 8003b60:	0c9b      	lsrs	r3, r3, #18
 8003b62:	4619      	mov	r1, r3
 8003b64:	480e      	ldr	r0, [pc, #56]	@ (8003ba0 <clock_print_status+0x78>)
 8003b66:	f000 ff35 	bl	80049d4 <uart_printf>
    uart_printf("APB2 Clock: %lu MHz\r\n", get_APB2_freq() / 1000000);
 8003b6a:	f000 fbc9 	bl	8004300 <get_APB2_freq>
 8003b6e:	4603      	mov	r3, r0
 8003b70:	4a09      	ldr	r2, [pc, #36]	@ (8003b98 <clock_print_status+0x70>)
 8003b72:	fba2 2303 	umull	r2, r3, r2, r3
 8003b76:	0c9b      	lsrs	r3, r3, #18
 8003b78:	4619      	mov	r1, r3
 8003b7a:	480a      	ldr	r0, [pc, #40]	@ (8003ba4 <clock_print_status+0x7c>)
 8003b7c:	f000 ff2a 	bl	80049d4 <uart_printf>
    uart_printf("=====================================\r\n");
 8003b80:	4804      	ldr	r0, [pc, #16]	@ (8003b94 <clock_print_status+0x6c>)
 8003b82:	f000 ff27 	bl	80049d4 <uart_printf>
}
 8003b86:	bf00      	nop
 8003b88:	bd80      	pop	{r7, pc}
 8003b8a:	bf00      	nop
 8003b8c:	08008100 	.word	0x08008100
 8003b90:	0800812c 	.word	0x0800812c
 8003b94:	08008150 	.word	0x08008150
 8003b98:	431bde83 	.word	0x431bde83
 8003b9c:	08008178 	.word	0x08008178
 8003ba0:	08008190 	.word	0x08008190
 8003ba4:	080081a8 	.word	0x080081a8

08003ba8 <can_ids_filter_configure>:
void can_ids_filter_configure(){
 8003ba8:	b5b0      	push	{r4, r5, r7, lr}
 8003baa:	b090      	sub	sp, #64	@ 0x40
 8003bac:	af00      	add	r7, sp, #0
    uint32_t standard_rx_ids[] = {
 8003bae:	4b0f      	ldr	r3, [pc, #60]	@ (8003bec <can_ids_filter_configure+0x44>)
 8003bb0:	f107 0410 	add.w	r4, r7, #16
 8003bb4:	461d      	mov	r5, r3
 8003bb6:	cd0f      	ldmia	r5!, {r0, r1, r2, r3}
 8003bb8:	c40f      	stmia	r4!, {r0, r1, r2, r3}
 8003bba:	cd0f      	ldmia	r5!, {r0, r1, r2, r3}
 8003bbc:	c40f      	stmia	r4!, {r0, r1, r2, r3}
 8003bbe:	e895 000f 	ldmia.w	r5, {r0, r1, r2, r3}
 8003bc2:	e884 000f 	stmia.w	r4, {r0, r1, r2, r3}
			Matel_MCU_FAULT_one_CAN_STD_ID_AE,
			Matel_MCU_FAULT_two_CAN_STD_ID_AF,
			Matel_MCU_Fault_Code_CAN_STD_ID_B3,
    };

    uint32_t extended_rx_ids[] = {
 8003bc6:	4a0a      	ldr	r2, [pc, #40]	@ (8003bf0 <can_ids_filter_configure+0x48>)
 8003bc8:	1d3b      	adds	r3, r7, #4
 8003bca:	ca07      	ldmia	r2, {r0, r1, r2}
 8003bcc:	e883 0007 	stmia.w	r3, {r0, r1, r2}
    		Matel_MCU_Stat_One_CAN_EXTD_ID_18265040,
			Matel_MCU_Stat_Two_CAN_EXTD_ID_18275040,
			Matel_VECTOR__INDEPENDENT_SIG_MSG_0xC0000000
    };
    configure_can_filters(standard_rx_ids,sizeof(standard_rx_ids)/sizeof(standard_rx_ids[0]),extended_rx_ids,sizeof(extended_rx_ids)/sizeof(extended_rx_ids[0]));
 8003bd0:	1d3a      	adds	r2, r7, #4
 8003bd2:	f107 0010 	add.w	r0, r7, #16
 8003bd6:	2303      	movs	r3, #3
 8003bd8:	210c      	movs	r1, #12
 8003bda:	f7ff fde3 	bl	80037a4 <configure_can_filters>
    uart_printf("[INFO] Configuring CAN filters for CT4 MCU messages...\r\n");
 8003bde:	4805      	ldr	r0, [pc, #20]	@ (8003bf4 <can_ids_filter_configure+0x4c>)
 8003be0:	f000 fef8 	bl	80049d4 <uart_printf>
}
 8003be4:	bf00      	nop
 8003be6:	3740      	adds	r7, #64	@ 0x40
 8003be8:	46bd      	mov	sp, r7
 8003bea:	bdb0      	pop	{r4, r5, r7, pc}
 8003bec:	080081fc 	.word	0x080081fc
 8003bf0:	0800822c 	.word	0x0800822c
 8003bf4:	080081c0 	.word	0x080081c0

08003bf8 <main>:
    uart_send((uint8_t*)f, sizeof(can_frame_t));
}
#define PB0_REVERSE 0
#define PB1_NEUTRAL 1
#define PB3_DRIVE 3
int main(){
 8003bf8:	b580      	push	{r7, lr}
 8003bfa:	b082      	sub	sp, #8
 8003bfc:	af02      	add	r7, sp, #8
	HAL_Init();
 8003bfe:	f000 ff45 	bl	8004a8c <HAL_Init>
	system_clock_init_to_72MHZ();
 8003c02:	f000 fa83 	bl	800410c <system_clock_init_to_72MHZ>
	if(uart3_Init(115200)==RY_NOT_OK){
 8003c06:	f44f 30e1 	mov.w	r0, #115200	@ 0x1c200
 8003c0a:	f000 fd03 	bl	8004614 <uart3_Init>
 8003c0e:	4603      	mov	r3, r0
 8003c10:	2b00      	cmp	r3, #0
 8003c12:	d101      	bne.n	8003c18 <main+0x20>
	  Error_Handler();
 8003c14:	f000 f8b8 	bl	8003d88 <Error_Handler>
	}
    uart_printf("UART3 initialization is ok ,baud_baudrate in kbps %d:\r\n", 115200);
 8003c18:	f44f 31e1 	mov.w	r1, #115200	@ 0x1c200
 8003c1c:	484a      	ldr	r0, [pc, #296]	@ (8003d48 <main+0x150>)
 8003c1e:	f000 fed9 	bl	80049d4 <uart_printf>
    uart_printf("=========================================================\r\n");
 8003c22:	484a      	ldr	r0, [pc, #296]	@ (8003d4c <main+0x154>)
 8003c24:	f000 fed6 	bl	80049d4 <uart_printf>
	if(uart_init(115200)==RY_NOT_OK){
 8003c28:	f44f 30e1 	mov.w	r0, #115200	@ 0x1c200
 8003c2c:	f000 fc9c 	bl	8004568 <uart_init>
 8003c30:	4603      	mov	r3, r0
 8003c32:	2b00      	cmp	r3, #0
 8003c34:	d101      	bne.n	8003c3a <main+0x42>
	  Error_Handler();
 8003c36:	f000 f8a7 	bl	8003d88 <Error_Handler>
	}
	clock_print_status();
 8003c3a:	f7ff ff75 	bl	8003b28 <clock_print_status>
    uart_printf("UART1 initialization is ok ,baud_baudrate in kbps %d:\r\n", 115200);
 8003c3e:	f44f 31e1 	mov.w	r1, #115200	@ 0x1c200
 8003c42:	4843      	ldr	r0, [pc, #268]	@ (8003d50 <main+0x158>)
 8003c44:	f000 fec6 	bl	80049d4 <uart_printf>
    uart_printf("=========================================================\r\n");
 8003c48:	4840      	ldr	r0, [pc, #256]	@ (8003d4c <main+0x154>)
 8003c4a:	f000 fec3 	bl	80049d4 <uart_printf>
    systick_init(1000);
 8003c4e:	f44f 707a 	mov.w	r0, #1000	@ 0x3e8
 8003c52:	f000 fa0b 	bl	800406c <systick_init>
    uart_printf("systick clock initialized for milli second ");
 8003c56:	483f      	ldr	r0, [pc, #252]	@ (8003d54 <main+0x15c>)
 8003c58:	f000 febc 	bl	80049d4 <uart_printf>
    uart_printf("=========================================================\r\n");
 8003c5c:	483b      	ldr	r0, [pc, #236]	@ (8003d4c <main+0x154>)
 8003c5e:	f000 feb9 	bl	80049d4 <uart_printf>
	if(can_init(500000)==RY_NOT_OK){
 8003c62:	483d      	ldr	r0, [pc, #244]	@ (8003d58 <main+0x160>)
 8003c64:	f7ff fc9c 	bl	80035a0 <can_init>
 8003c68:	4603      	mov	r3, r0
 8003c6a:	2b00      	cmp	r3, #0
 8003c6c:	d107      	bne.n	8003c7e <main+0x86>
      uart_printf("CAN initialization is NOT oK\r\n");
 8003c6e:	483b      	ldr	r0, [pc, #236]	@ (8003d5c <main+0x164>)
 8003c70:	f000 feb0 	bl	80049d4 <uart_printf>
	  uart_printf("======================================================\r\n");
 8003c74:	483a      	ldr	r0, [pc, #232]	@ (8003d60 <main+0x168>)
 8003c76:	f000 fead 	bl	80049d4 <uart_printf>
	  Error_Handler();
 8003c7a:	f000 f885 	bl	8003d88 <Error_Handler>
	}
	can_ids_filter_configure();
 8003c7e:	f7ff ff93 	bl	8003ba8 <can_ids_filter_configure>
    uart_printf("CAN initialization is ok ,baud_baudrate in %d kbps:\r\n", 500);
 8003c82:	f44f 71fa 	mov.w	r1, #500	@ 0x1f4
 8003c86:	4837      	ldr	r0, [pc, #220]	@ (8003d64 <main+0x16c>)
 8003c88:	f000 fea4 	bl	80049d4 <uart_printf>
    uart_printf("=========================================================\r\n");
 8003c8c:	482f      	ldr	r0, [pc, #188]	@ (8003d4c <main+0x154>)
 8003c8e:	f000 fea1 	bl	80049d4 <uart_printf>
    Init_tasks();
 8003c92:	f000 fb61 	bl	8004358 <Init_tasks>
    uart_printf("Task schedular is initialized\r\n");
 8003c96:	4834      	ldr	r0, [pc, #208]	@ (8003d68 <main+0x170>)
 8003c98:	f000 fe9c 	bl	80049d4 <uart_printf>
    uart_printf("=========================================================\r\n");
 8003c9c:	482b      	ldr	r0, [pc, #172]	@ (8003d4c <main+0x154>)
 8003c9e:	f000 fe99 	bl	80049d4 <uart_printf>
    Blower_Relay_Pins_Init();
 8003ca2:	f7fd fae7 	bl	8001274 <Blower_Relay_Pins_Init>
    uart_printf("Blower pins are initialized PIN12=%d PIN13=%d PIN14=%d\r\n",(GPIOB->IDR>>12&1),(GPIOB->IDR>>13&1),(GPIOB->IDR>>14&1));
 8003ca6:	4b31      	ldr	r3, [pc, #196]	@ (8003d6c <main+0x174>)
 8003ca8:	689b      	ldr	r3, [r3, #8]
 8003caa:	0b1b      	lsrs	r3, r3, #12
 8003cac:	f003 0101 	and.w	r1, r3, #1
 8003cb0:	4b2e      	ldr	r3, [pc, #184]	@ (8003d6c <main+0x174>)
 8003cb2:	689b      	ldr	r3, [r3, #8]
 8003cb4:	0b5b      	lsrs	r3, r3, #13
 8003cb6:	f003 0201 	and.w	r2, r3, #1
 8003cba:	4b2c      	ldr	r3, [pc, #176]	@ (8003d6c <main+0x174>)
 8003cbc:	689b      	ldr	r3, [r3, #8]
 8003cbe:	0b9b      	lsrs	r3, r3, #14
 8003cc0:	f003 0301 	and.w	r3, r3, #1
 8003cc4:	482a      	ldr	r0, [pc, #168]	@ (8003d70 <main+0x178>)
 8003cc6:	f000 fe85 	bl	80049d4 <uart_printf>
    uart_printf("=========================================================\r\n");
 8003cca:	4820      	ldr	r0, [pc, #128]	@ (8003d4c <main+0x154>)
 8003ccc:	f000 fe82 	bl	80049d4 <uart_printf>
    Condensor_Relay_Pins_Init();
 8003cd0:	f7ff ff08 	bl	8003ae4 <Condensor_Relay_Pins_Init>
    uart_printf("Condensor pins are initialized PIN15=%d \r\n",(GPIOB->IDR>>15&1));
 8003cd4:	4b25      	ldr	r3, [pc, #148]	@ (8003d6c <main+0x174>)
 8003cd6:	689b      	ldr	r3, [r3, #8]
 8003cd8:	0bdb      	lsrs	r3, r3, #15
 8003cda:	f003 0301 	and.w	r3, r3, #1
 8003cde:	4619      	mov	r1, r3
 8003ce0:	4824      	ldr	r0, [pc, #144]	@ (8003d74 <main+0x17c>)
 8003ce2:	f000 fe77 	bl	80049d4 <uart_printf>
    uart_printf("=========================================================\r\n");
 8003ce6:	4819      	ldr	r0, [pc, #100]	@ (8003d4c <main+0x154>)
 8003ce8:	f000 fe74 	bl	80049d4 <uart_printf>
    Motor_control_pins_init();
 8003cec:	f7ff fac6 	bl	800327c <Motor_control_pins_init>
    uart_printf("Motor_control pins are initialized PIN0=%d PIN1=%d  PIN3=%d PIN5=%d\r\n",(GPIOB->IDR>>0&1),(GPIOB->IDR>>1&1),(GPIOB->IDR>>3&1),(GPIOB->IDR>>5&1));
 8003cf0:	4b1e      	ldr	r3, [pc, #120]	@ (8003d6c <main+0x174>)
 8003cf2:	689b      	ldr	r3, [r3, #8]
 8003cf4:	f003 0101 	and.w	r1, r3, #1
 8003cf8:	4b1c      	ldr	r3, [pc, #112]	@ (8003d6c <main+0x174>)
 8003cfa:	689b      	ldr	r3, [r3, #8]
 8003cfc:	085b      	lsrs	r3, r3, #1
 8003cfe:	f003 0201 	and.w	r2, r3, #1
 8003d02:	4b1a      	ldr	r3, [pc, #104]	@ (8003d6c <main+0x174>)
 8003d04:	689b      	ldr	r3, [r3, #8]
 8003d06:	08db      	lsrs	r3, r3, #3
 8003d08:	f003 0001 	and.w	r0, r3, #1
 8003d0c:	4b17      	ldr	r3, [pc, #92]	@ (8003d6c <main+0x174>)
 8003d0e:	689b      	ldr	r3, [r3, #8]
 8003d10:	095b      	lsrs	r3, r3, #5
 8003d12:	f003 0301 	and.w	r3, r3, #1
 8003d16:	9300      	str	r3, [sp, #0]
 8003d18:	4603      	mov	r3, r0
 8003d1a:	4817      	ldr	r0, [pc, #92]	@ (8003d78 <main+0x180>)
 8003d1c:	f000 fe5a 	bl	80049d4 <uart_printf>
    uart_printf("=========================================================\r\n");
 8003d20:	480a      	ldr	r0, [pc, #40]	@ (8003d4c <main+0x154>)
 8003d22:	f000 fe57 	bl	80049d4 <uart_printf>
    Switch_Pins_int();
 8003d26:	f7fd facb 	bl	80012c0 <Switch_Pins_int>
//    MX_I2C1_Init();
//    Register_task(50,Drive_mode_state);
    Register_task(50,process_switch_status);
 8003d2a:	4914      	ldr	r1, [pc, #80]	@ (8003d7c <main+0x184>)
 8003d2c:	2032      	movs	r0, #50	@ 0x32
 8003d2e:	f000 fb49 	bl	80043c4 <Register_task>
    Register_task(2,Request_Msgs_to_BMS);
 8003d32:	4913      	ldr	r1, [pc, #76]	@ (8003d80 <main+0x188>)
 8003d34:	2002      	movs	r0, #2
 8003d36:	f000 fb45 	bl	80043c4 <Register_task>
    Register_task(20,process_can_messages);
 8003d3a:	4912      	ldr	r1, [pc, #72]	@ (8003d84 <main+0x18c>)
 8003d3c:	2014      	movs	r0, #20
 8003d3e:	f000 fb41 	bl	80043c4 <Register_task>


    while(1){

    Run_all_tasks();
 8003d42:	f000 fb8d 	bl	8004460 <Run_all_tasks>
 8003d46:	e7fc      	b.n	8003d42 <main+0x14a>
 8003d48:	08008238 	.word	0x08008238
 8003d4c:	08008270 	.word	0x08008270
 8003d50:	080082ac 	.word	0x080082ac
 8003d54:	080082e4 	.word	0x080082e4
 8003d58:	0007a120 	.word	0x0007a120
 8003d5c:	08008310 	.word	0x08008310
 8003d60:	08008330 	.word	0x08008330
 8003d64:	0800836c 	.word	0x0800836c
 8003d68:	080083a4 	.word	0x080083a4
 8003d6c:	40010c00 	.word	0x40010c00
 8003d70:	080083c4 	.word	0x080083c4
 8003d74:	08008400 	.word	0x08008400
 8003d78:	0800842c 	.word	0x0800842c
 8003d7c:	08003e05 	.word	0x08003e05
 8003d80:	08003e85 	.word	0x08003e85
 8003d84:	08003d95 	.word	0x08003d95

08003d88 <Error_Handler>:
    }
}


void Error_Handler(void)
{
 8003d88:	b480      	push	{r7}
 8003d8a:	af00      	add	r7, sp, #0
}
 8003d8c:	bf00      	nop
 8003d8e:	46bd      	mov	sp, r7
 8003d90:	bc80      	pop	{r7}
 8003d92:	4770      	bx	lr

08003d94 <process_can_messages>:
	    }
		}
	}
}
void process_can_messages(void)
{
 8003d94:	b580      	push	{r7, lr}
 8003d96:	b084      	sub	sp, #16
 8003d98:	af00      	add	r7, sp, #0
   can_frame_t rx_frame;
   while(CAN_MessagePending(0)){
 8003d9a:	e010      	b.n	8003dbe <process_can_messages+0x2a>
	   can_rx(&rx_frame,0);
 8003d9c:	463b      	mov	r3, r7
 8003d9e:	2100      	movs	r1, #0
 8003da0:	4618      	mov	r0, r3
 8003da2:	f7ff fe0d 	bl	80039c0 <can_rx>
	   Process_Jbd_Bms_Messages(&rx_frame);
 8003da6:	463b      	mov	r3, r7
 8003da8:	4618      	mov	r0, r3
 8003daa:	f7fd fb9d 	bl	80014e8 <Process_Jbd_Bms_Messages>
	   matel_mcu_process_can_frame(&rx_frame);
 8003dae:	463b      	mov	r3, r7
 8003db0:	4618      	mov	r0, r3
 8003db2:	f7fe f98d 	bl	80020d0 <matel_mcu_process_can_frame>
	   send_id_data_only_over_uart(&rx_frame);
 8003db6:	463b      	mov	r3, r7
 8003db8:	4618      	mov	r0, r3
 8003dba:	f000 fdd3 	bl	8004964 <send_id_data_only_over_uart>
   while(CAN_MessagePending(0)){
 8003dbe:	2000      	movs	r0, #0
 8003dc0:	f7ff fddc 	bl	800397c <CAN_MessagePending>
 8003dc4:	4603      	mov	r3, r0
 8003dc6:	2b00      	cmp	r3, #0
 8003dc8:	d1e8      	bne.n	8003d9c <process_can_messages+0x8>
   }
   while(CAN_MessagePending(1)){
 8003dca:	e010      	b.n	8003dee <process_can_messages+0x5a>
	   can_rx(&rx_frame,1);
 8003dcc:	463b      	mov	r3, r7
 8003dce:	2101      	movs	r1, #1
 8003dd0:	4618      	mov	r0, r3
 8003dd2:	f7ff fdf5 	bl	80039c0 <can_rx>
	   Process_Jbd_Bms_Messages(&rx_frame);
 8003dd6:	463b      	mov	r3, r7
 8003dd8:	4618      	mov	r0, r3
 8003dda:	f7fd fb85 	bl	80014e8 <Process_Jbd_Bms_Messages>
	   matel_mcu_process_can_frame(&rx_frame);
 8003dde:	463b      	mov	r3, r7
 8003de0:	4618      	mov	r0, r3
 8003de2:	f7fe f975 	bl	80020d0 <matel_mcu_process_can_frame>
	   send_id_data_only_over_uart(&rx_frame);
 8003de6:	463b      	mov	r3, r7
 8003de8:	4618      	mov	r0, r3
 8003dea:	f000 fdbb 	bl	8004964 <send_id_data_only_over_uart>
   while(CAN_MessagePending(1)){
 8003dee:	2001      	movs	r0, #1
 8003df0:	f7ff fdc4 	bl	800397c <CAN_MessagePending>
 8003df4:	4603      	mov	r3, r0
 8003df6:	2b00      	cmp	r3, #0
 8003df8:	d1e8      	bne.n	8003dcc <process_can_messages+0x38>
   }

}
 8003dfa:	bf00      	nop
 8003dfc:	bf00      	nop
 8003dfe:	3710      	adds	r7, #16
 8003e00:	46bd      	mov	sp, r7
 8003e02:	bd80      	pop	{r7, pc}

08003e04 <process_switch_status>:
void process_switch_status(){
 8003e04:	b580      	push	{r7, lr}
 8003e06:	af00      	add	r7, sp, #0
		cur_state=Switch_update();
 8003e08:	f7fd fac6 	bl	8001398 <Switch_update>
 8003e0c:	4603      	mov	r3, r0
 8003e0e:	461a      	mov	r2, r3
 8003e10:	4b19      	ldr	r3, [pc, #100]	@ (8003e78 <process_switch_status+0x74>)
 8003e12:	701a      	strb	r2, [r3, #0]
		if(cur_state!=last_state){
 8003e14:	4b18      	ldr	r3, [pc, #96]	@ (8003e78 <process_switch_status+0x74>)
 8003e16:	781a      	ldrb	r2, [r3, #0]
 8003e18:	4b18      	ldr	r3, [pc, #96]	@ (8003e7c <process_switch_status+0x78>)
 8003e1a:	781b      	ldrb	r3, [r3, #0]
 8003e1c:	429a      	cmp	r2, r3
 8003e1e:	d029      	beq.n	8003e74 <process_switch_status+0x70>
			last_state=cur_state;
 8003e20:	4b15      	ldr	r3, [pc, #84]	@ (8003e78 <process_switch_status+0x74>)
 8003e22:	781a      	ldrb	r2, [r3, #0]
 8003e24:	4b15      	ldr	r3, [pc, #84]	@ (8003e7c <process_switch_status+0x78>)
 8003e26:	701a      	strb	r2, [r3, #0]
			GPIOB->ODR |= ((1<<PB0_REVERSE) | (1<<PB1_NEUTRAL) | (1<<PB3_DRIVE));
 8003e28:	4b15      	ldr	r3, [pc, #84]	@ (8003e80 <process_switch_status+0x7c>)
 8003e2a:	68db      	ldr	r3, [r3, #12]
 8003e2c:	4a14      	ldr	r2, [pc, #80]	@ (8003e80 <process_switch_status+0x7c>)
 8003e2e:	f043 030b 	orr.w	r3, r3, #11
 8003e32:	60d3      	str	r3, [r2, #12]
			switch (cur_state) {
 8003e34:	4b10      	ldr	r3, [pc, #64]	@ (8003e78 <process_switch_status+0x74>)
 8003e36:	781b      	ldrb	r3, [r3, #0]
 8003e38:	2b02      	cmp	r3, #2
 8003e3a:	d006      	beq.n	8003e4a <process_switch_status+0x46>
 8003e3c:	2b02      	cmp	r3, #2
 8003e3e:	dc19      	bgt.n	8003e74 <process_switch_status+0x70>
 8003e40:	2b00      	cmp	r3, #0
 8003e42:	d009      	beq.n	8003e58 <process_switch_status+0x54>
 8003e44:	2b01      	cmp	r3, #1
 8003e46:	d00e      	beq.n	8003e66 <process_switch_status+0x62>
				case 2: GPIOB->ODR &=~ (1<<PB0_REVERSE); break;
				case 0: GPIOB->ODR &=~ (1<<PB1_NEUTRAL); break;
				case 1: GPIOB->ODR &=~ (1<<PB3_DRIVE);   break;
			}
		}
}
 8003e48:	e014      	b.n	8003e74 <process_switch_status+0x70>
				case 2: GPIOB->ODR &=~ (1<<PB0_REVERSE); break;
 8003e4a:	4b0d      	ldr	r3, [pc, #52]	@ (8003e80 <process_switch_status+0x7c>)
 8003e4c:	68db      	ldr	r3, [r3, #12]
 8003e4e:	4a0c      	ldr	r2, [pc, #48]	@ (8003e80 <process_switch_status+0x7c>)
 8003e50:	f023 0301 	bic.w	r3, r3, #1
 8003e54:	60d3      	str	r3, [r2, #12]
 8003e56:	e00d      	b.n	8003e74 <process_switch_status+0x70>
				case 0: GPIOB->ODR &=~ (1<<PB1_NEUTRAL); break;
 8003e58:	4b09      	ldr	r3, [pc, #36]	@ (8003e80 <process_switch_status+0x7c>)
 8003e5a:	68db      	ldr	r3, [r3, #12]
 8003e5c:	4a08      	ldr	r2, [pc, #32]	@ (8003e80 <process_switch_status+0x7c>)
 8003e5e:	f023 0302 	bic.w	r3, r3, #2
 8003e62:	60d3      	str	r3, [r2, #12]
 8003e64:	e006      	b.n	8003e74 <process_switch_status+0x70>
				case 1: GPIOB->ODR &=~ (1<<PB3_DRIVE);   break;
 8003e66:	4b06      	ldr	r3, [pc, #24]	@ (8003e80 <process_switch_status+0x7c>)
 8003e68:	68db      	ldr	r3, [r3, #12]
 8003e6a:	4a05      	ldr	r2, [pc, #20]	@ (8003e80 <process_switch_status+0x7c>)
 8003e6c:	f023 0308 	bic.w	r3, r3, #8
 8003e70:	60d3      	str	r3, [r2, #12]
 8003e72:	bf00      	nop
}
 8003e74:	bf00      	nop
 8003e76:	bd80      	pop	{r7, pc}
 8003e78:	200003d5 	.word	0x200003d5
 8003e7c:	200003d4 	.word	0x200003d4
 8003e80:	40010c00 	.word	0x40010c00

08003e84 <Request_Msgs_to_BMS>:
void Request_Msgs_to_BMS(){
 8003e84:	b580      	push	{r7, lr}
 8003e86:	b084      	sub	sp, #16
 8003e88:	af00      	add	r7, sp, #0
	   can_frame_t rx_frame;
	   static uint8_t i=0;
	   rx_frame.id=id[i];
 8003e8a:	4b11      	ldr	r3, [pc, #68]	@ (8003ed0 <Request_Msgs_to_BMS+0x4c>)
 8003e8c:	781b      	ldrb	r3, [r3, #0]
 8003e8e:	461a      	mov	r2, r3
 8003e90:	4b10      	ldr	r3, [pc, #64]	@ (8003ed4 <Request_Msgs_to_BMS+0x50>)
 8003e92:	f833 3012 	ldrh.w	r3, [r3, r2, lsl #1]
 8003e96:	603b      	str	r3, [r7, #0]
	   rx_frame.ide=0;
 8003e98:	2300      	movs	r3, #0
 8003e9a:	713b      	strb	r3, [r7, #4]
	   rx_frame.dlc=8;
 8003e9c:	2308      	movs	r3, #8
 8003e9e:	71bb      	strb	r3, [r7, #6]
	   send_can_remote_frame(rx_frame);
 8003ea0:	463b      	mov	r3, r7
 8003ea2:	cb0f      	ldmia	r3, {r0, r1, r2, r3}
 8003ea4:	f7ff fbe2 	bl	800366c <send_can_remote_frame>
	   i++;
 8003ea8:	4b09      	ldr	r3, [pc, #36]	@ (8003ed0 <Request_Msgs_to_BMS+0x4c>)
 8003eaa:	781b      	ldrb	r3, [r3, #0]
 8003eac:	3301      	adds	r3, #1
 8003eae:	b2da      	uxtb	r2, r3
 8003eb0:	4b07      	ldr	r3, [pc, #28]	@ (8003ed0 <Request_Msgs_to_BMS+0x4c>)
 8003eb2:	701a      	strb	r2, [r3, #0]
	   if(i>=id_size){
 8003eb4:	4b06      	ldr	r3, [pc, #24]	@ (8003ed0 <Request_Msgs_to_BMS+0x4c>)
 8003eb6:	781a      	ldrb	r2, [r3, #0]
 8003eb8:	4b07      	ldr	r3, [pc, #28]	@ (8003ed8 <Request_Msgs_to_BMS+0x54>)
 8003eba:	781b      	ldrb	r3, [r3, #0]
 8003ebc:	429a      	cmp	r2, r3
 8003ebe:	d302      	bcc.n	8003ec6 <Request_Msgs_to_BMS+0x42>
		   i=0;
 8003ec0:	4b03      	ldr	r3, [pc, #12]	@ (8003ed0 <Request_Msgs_to_BMS+0x4c>)
 8003ec2:	2200      	movs	r2, #0
 8003ec4:	701a      	strb	r2, [r3, #0]
//		   rx_frame.dlc=8;
//		   send_can_remote_frame(rx_frame);
////		   uart_printf("%f \n\r",start-HAL_GetTick());
//	   }

}
 8003ec6:	bf00      	nop
 8003ec8:	3710      	adds	r7, #16
 8003eca:	46bd      	mov	sp, r7
 8003ecc:	bd80      	pop	{r7, pc}
 8003ece:	bf00      	nop
 8003ed0:	200003d6 	.word	0x200003d6
 8003ed4:	20000004 	.word	0x20000004
 8003ed8:	2000001e 	.word	0x2000001e

08003edc <HAL_MspInit>:
/* USER CODE END 0 */
/**
  * Initializes the Global MSP.
  */
void HAL_MspInit(void)
{
 8003edc:	b480      	push	{r7}
 8003ede:	b085      	sub	sp, #20
 8003ee0:	af00      	add	r7, sp, #0

  /* USER CODE BEGIN MspInit 0 */

  /* USER CODE END MspInit 0 */

  __HAL_RCC_AFIO_CLK_ENABLE();
 8003ee2:	4b15      	ldr	r3, [pc, #84]	@ (8003f38 <HAL_MspInit+0x5c>)
 8003ee4:	699b      	ldr	r3, [r3, #24]
 8003ee6:	4a14      	ldr	r2, [pc, #80]	@ (8003f38 <HAL_MspInit+0x5c>)
 8003ee8:	f043 0301 	orr.w	r3, r3, #1
 8003eec:	6193      	str	r3, [r2, #24]
 8003eee:	4b12      	ldr	r3, [pc, #72]	@ (8003f38 <HAL_MspInit+0x5c>)
 8003ef0:	699b      	ldr	r3, [r3, #24]
 8003ef2:	f003 0301 	and.w	r3, r3, #1
 8003ef6:	60bb      	str	r3, [r7, #8]
 8003ef8:	68bb      	ldr	r3, [r7, #8]
  __HAL_RCC_PWR_CLK_ENABLE();
 8003efa:	4b0f      	ldr	r3, [pc, #60]	@ (8003f38 <HAL_MspInit+0x5c>)
 8003efc:	69db      	ldr	r3, [r3, #28]
 8003efe:	4a0e      	ldr	r2, [pc, #56]	@ (8003f38 <HAL_MspInit+0x5c>)
 8003f00:	f043 5380 	orr.w	r3, r3, #268435456	@ 0x10000000
 8003f04:	61d3      	str	r3, [r2, #28]
 8003f06:	4b0c      	ldr	r3, [pc, #48]	@ (8003f38 <HAL_MspInit+0x5c>)
 8003f08:	69db      	ldr	r3, [r3, #28]
 8003f0a:	f003 5380 	and.w	r3, r3, #268435456	@ 0x10000000
 8003f0e:	607b      	str	r3, [r7, #4]
 8003f10:	687b      	ldr	r3, [r7, #4]

  /* System interrupt init*/

  /** DISABLE: JTAG-DP Disabled and SW-DP Disabled
  */
  __HAL_AFIO_REMAP_SWJ_DISABLE();
 8003f12:	4b0a      	ldr	r3, [pc, #40]	@ (8003f3c <HAL_MspInit+0x60>)
 8003f14:	685b      	ldr	r3, [r3, #4]
 8003f16:	60fb      	str	r3, [r7, #12]
 8003f18:	68fb      	ldr	r3, [r7, #12]
 8003f1a:	f023 63e0 	bic.w	r3, r3, #117440512	@ 0x7000000
 8003f1e:	60fb      	str	r3, [r7, #12]
 8003f20:	68fb      	ldr	r3, [r7, #12]
 8003f22:	f043 6380 	orr.w	r3, r3, #67108864	@ 0x4000000
 8003f26:	60fb      	str	r3, [r7, #12]
 8003f28:	4a04      	ldr	r2, [pc, #16]	@ (8003f3c <HAL_MspInit+0x60>)
 8003f2a:	68fb      	ldr	r3, [r7, #12]
 8003f2c:	6053      	str	r3, [r2, #4]

  /* USER CODE BEGIN MspInit 1 */

  /* USER CODE END MspInit 1 */
}
 8003f2e:	bf00      	nop
 8003f30:	3714      	adds	r7, #20
 8003f32:	46bd      	mov	sp, r7
 8003f34:	bc80      	pop	{r7}
 8003f36:	4770      	bx	lr
 8003f38:	40021000 	.word	0x40021000
 8003f3c:	40010000 	.word	0x40010000

08003f40 <HAL_I2C_MspInit>:
  * This function configures the hardware resources used in this example
  * @param hi2c: I2C handle pointer
  * @retval None
  */
void HAL_I2C_MspInit(I2C_HandleTypeDef* hi2c)
{
 8003f40:	b580      	push	{r7, lr}
 8003f42:	b088      	sub	sp, #32
 8003f44:	af00      	add	r7, sp, #0
 8003f46:	6078      	str	r0, [r7, #4]
  GPIO_InitTypeDef GPIO_InitStruct = {0};
 8003f48:	f107 0310 	add.w	r3, r7, #16
 8003f4c:	2200      	movs	r2, #0
 8003f4e:	601a      	str	r2, [r3, #0]
 8003f50:	605a      	str	r2, [r3, #4]
 8003f52:	609a      	str	r2, [r3, #8]
 8003f54:	60da      	str	r2, [r3, #12]
  if(hi2c->Instance==I2C1)
 8003f56:	687b      	ldr	r3, [r7, #4]
 8003f58:	681b      	ldr	r3, [r3, #0]
 8003f5a:	4a1d      	ldr	r2, [pc, #116]	@ (8003fd0 <HAL_I2C_MspInit+0x90>)
 8003f5c:	4293      	cmp	r3, r2
 8003f5e:	d133      	bne.n	8003fc8 <HAL_I2C_MspInit+0x88>
  {
    /* USER CODE BEGIN I2C1_MspInit 0 */

    /* USER CODE END I2C1_MspInit 0 */

    __HAL_RCC_GPIOB_CLK_ENABLE();
 8003f60:	4b1c      	ldr	r3, [pc, #112]	@ (8003fd4 <HAL_I2C_MspInit+0x94>)
 8003f62:	699b      	ldr	r3, [r3, #24]
 8003f64:	4a1b      	ldr	r2, [pc, #108]	@ (8003fd4 <HAL_I2C_MspInit+0x94>)
 8003f66:	f043 0308 	orr.w	r3, r3, #8
 8003f6a:	6193      	str	r3, [r2, #24]
 8003f6c:	4b19      	ldr	r3, [pc, #100]	@ (8003fd4 <HAL_I2C_MspInit+0x94>)
 8003f6e:	699b      	ldr	r3, [r3, #24]
 8003f70:	f003 0308 	and.w	r3, r3, #8
 8003f74:	60fb      	str	r3, [r7, #12]
 8003f76:	68fb      	ldr	r3, [r7, #12]
    /**I2C1 GPIO Configuration
    PB6     ------> I2C1_SCL
    PB7     ------> I2C1_SDA
    */
    GPIO_InitStruct.Pin = GPIO_PIN_6|GPIO_PIN_7;
 8003f78:	23c0      	movs	r3, #192	@ 0xc0
 8003f7a:	613b      	str	r3, [r7, #16]
    GPIO_InitStruct.Mode = GPIO_MODE_AF_OD;
 8003f7c:	2312      	movs	r3, #18
 8003f7e:	617b      	str	r3, [r7, #20]
    GPIO_InitStruct.Speed = GPIO_SPEED_FREQ_HIGH;
 8003f80:	2303      	movs	r3, #3
 8003f82:	61fb      	str	r3, [r7, #28]
    HAL_GPIO_Init(GPIOB, &GPIO_InitStruct);
 8003f84:	f107 0310 	add.w	r3, r7, #16
 8003f88:	4619      	mov	r1, r3
 8003f8a:	4813      	ldr	r0, [pc, #76]	@ (8003fd8 <HAL_I2C_MspInit+0x98>)
 8003f8c:	f000 ff6a 	bl	8004e64 <HAL_GPIO_Init>

    /* Peripheral clock enable */
    __HAL_RCC_I2C1_CLK_ENABLE();
 8003f90:	4b10      	ldr	r3, [pc, #64]	@ (8003fd4 <HAL_I2C_MspInit+0x94>)
 8003f92:	69db      	ldr	r3, [r3, #28]
 8003f94:	4a0f      	ldr	r2, [pc, #60]	@ (8003fd4 <HAL_I2C_MspInit+0x94>)
 8003f96:	f443 1300 	orr.w	r3, r3, #2097152	@ 0x200000
 8003f9a:	61d3      	str	r3, [r2, #28]
 8003f9c:	4b0d      	ldr	r3, [pc, #52]	@ (8003fd4 <HAL_I2C_MspInit+0x94>)
 8003f9e:	69db      	ldr	r3, [r3, #28]
 8003fa0:	f403 1300 	and.w	r3, r3, #2097152	@ 0x200000
 8003fa4:	60bb      	str	r3, [r7, #8]
 8003fa6:	68bb      	ldr	r3, [r7, #8]
    /* I2C1 interrupt Init */
    HAL_NVIC_SetPriority(I2C1_EV_IRQn, 0, 0);
 8003fa8:	2200      	movs	r2, #0
 8003faa:	2100      	movs	r1, #0
 8003fac:	201f      	movs	r0, #31
 8003fae:	f000 fe9c 	bl	8004cea <HAL_NVIC_SetPriority>
    HAL_NVIC_EnableIRQ(I2C1_EV_IRQn);
 8003fb2:	201f      	movs	r0, #31
 8003fb4:	f000 feb5 	bl	8004d22 <HAL_NVIC_EnableIRQ>
    HAL_NVIC_SetPriority(I2C1_ER_IRQn, 0, 0);
 8003fb8:	2200      	movs	r2, #0
 8003fba:	2100      	movs	r1, #0
 8003fbc:	2020      	movs	r0, #32
 8003fbe:	f000 fe94 	bl	8004cea <HAL_NVIC_SetPriority>
    HAL_NVIC_EnableIRQ(I2C1_ER_IRQn);
 8003fc2:	2020      	movs	r0, #32
 8003fc4:	f000 fead 	bl	8004d22 <HAL_NVIC_EnableIRQ>

    /* USER CODE END I2C1_MspInit 1 */

  }

}
 8003fc8:	bf00      	nop
 8003fca:	3720      	adds	r7, #32
 8003fcc:	46bd      	mov	sp, r7
 8003fce:	bd80      	pop	{r7, pc}
 8003fd0:	40005400 	.word	0x40005400
 8003fd4:	40021000 	.word	0x40021000
 8003fd8:	40010c00 	.word	0x40010c00

08003fdc <NMI_Handler>:
/******************************************************************************/
/**
  * @brief This function handles Non maskable interrupt.
  */
void NMI_Handler(void)
{
 8003fdc:	b480      	push	{r7}
 8003fde:	af00      	add	r7, sp, #0
  /* USER CODE BEGIN NonMaskableInt_IRQn 0 */

  /* USER CODE END NonMaskableInt_IRQn 0 */
  /* USER CODE BEGIN NonMaskableInt_IRQn 1 */
   while (1)
 8003fe0:	bf00      	nop
 8003fe2:	e7fd      	b.n	8003fe0 <NMI_Handler+0x4>

08003fe4 <HardFault_Handler>:

/**
  * @brief This function handles Hard fault interrupt.
  */
void HardFault_Handler(void)
{
 8003fe4:	b480      	push	{r7}
 8003fe6:	af00      	add	r7, sp, #0
  /* USER CODE BEGIN HardFault_IRQn 0 */

  /* USER CODE END HardFault_IRQn 0 */
  while (1)
 8003fe8:	bf00      	nop
 8003fea:	e7fd      	b.n	8003fe8 <HardFault_Handler+0x4>

08003fec <MemManage_Handler>:

/**
  * @brief This function handles Memory management fault.
  */
void MemManage_Handler(void)
{
 8003fec:	b480      	push	{r7}
 8003fee:	af00      	add	r7, sp, #0
  /* USER CODE BEGIN MemoryManagement_IRQn 0 */

  /* USER CODE END MemoryManagement_IRQn 0 */
  while (1)
 8003ff0:	bf00      	nop
 8003ff2:	e7fd      	b.n	8003ff0 <MemManage_Handler+0x4>

08003ff4 <BusFault_Handler>:

/**
  * @brief This function handles Prefetch fault, memory access fault.
  */
void BusFault_Handler(void)
{
 8003ff4:	b480      	push	{r7}
 8003ff6:	af00      	add	r7, sp, #0
  /* USER CODE BEGIN BusFault_IRQn 0 */

  /* USER CODE END BusFault_IRQn 0 */
  while (1)
 8003ff8:	bf00      	nop
 8003ffa:	e7fd      	b.n	8003ff8 <BusFault_Handler+0x4>

08003ffc <UsageFault_Handler>:

/**
  * @brief This function handles Undefined instruction or illegal state.
  */
void UsageFault_Handler(void)
{
 8003ffc:	b480      	push	{r7}
 8003ffe:	af00      	add	r7, sp, #0
  /* USER CODE BEGIN UsageFault_IRQn 0 */

  /* USER CODE END UsageFault_IRQn 0 */
  while (1)
 8004000:	bf00      	nop
 8004002:	e7fd      	b.n	8004000 <UsageFault_Handler+0x4>

08004004 <SVC_Handler>:

/**
  * @brief This function handles System service call via SWI instruction.
  */
void SVC_Handler(void)
{
 8004004:	b480      	push	{r7}
 8004006:	af00      	add	r7, sp, #0

  /* USER CODE END SVCall_IRQn 0 */
  /* USER CODE BEGIN SVCall_IRQn 1 */

  /* USER CODE END SVCall_IRQn 1 */
}
 8004008:	bf00      	nop
 800400a:	46bd      	mov	sp, r7
 800400c:	bc80      	pop	{r7}
 800400e:	4770      	bx	lr

08004010 <DebugMon_Handler>:

/**
  * @brief This function handles Debug monitor.
  */
void DebugMon_Handler(void)
{
 8004010:	b480      	push	{r7}
 8004012:	af00      	add	r7, sp, #0

  /* USER CODE END DebugMonitor_IRQn 0 */
  /* USER CODE BEGIN DebugMonitor_IRQn 1 */

  /* USER CODE END DebugMonitor_IRQn 1 */
}
 8004014:	bf00      	nop
 8004016:	46bd      	mov	sp, r7
 8004018:	bc80      	pop	{r7}
 800401a:	4770      	bx	lr

0800401c <PendSV_Handler>:

/**
  * @brief This function handles Pendable request for system service.
  */
void PendSV_Handler(void)
{
 800401c:	b480      	push	{r7}
 800401e:	af00      	add	r7, sp, #0

  /* USER CODE END PendSV_IRQn 0 */
  /* USER CODE BEGIN PendSV_IRQn 1 */

  /* USER CODE END PendSV_IRQn 1 */
}
 8004020:	bf00      	nop
 8004022:	46bd      	mov	sp, r7
 8004024:	bc80      	pop	{r7}
 8004026:	4770      	bx	lr

08004028 <SysTick_Handler>:

/**
  * @brief This function handles System tick timer.
  */
void SysTick_Handler(void)
{
 8004028:	b580      	push	{r7, lr}
 800402a:	af00      	add	r7, sp, #0
  /* USER CODE BEGIN SysTick_IRQn 0 */

  /* USER CODE END SysTick_IRQn 0 */
  HAL_IncTick();
 800402c:	f000 fd74 	bl	8004b18 <HAL_IncTick>
  /* USER CODE BEGIN SysTick_IRQn 1 */
  milli_sec_tick++;
 8004030:	4b03      	ldr	r3, [pc, #12]	@ (8004040 <SysTick_Handler+0x18>)
 8004032:	681b      	ldr	r3, [r3, #0]
 8004034:	3301      	adds	r3, #1
 8004036:	4a02      	ldr	r2, [pc, #8]	@ (8004040 <SysTick_Handler+0x18>)
 8004038:	6013      	str	r3, [r2, #0]
  /* USER CODE END SysTick_IRQn 1 */
}
 800403a:	bf00      	nop
 800403c:	bd80      	pop	{r7, pc}
 800403e:	bf00      	nop
 8004040:	200003d8 	.word	0x200003d8

08004044 <I2C1_EV_IRQHandler>:

/**
  * @brief This function handles I2C1 event interrupt.
  */
void I2C1_EV_IRQHandler(void)
{
 8004044:	b580      	push	{r7, lr}
 8004046:	af00      	add	r7, sp, #0
  /* USER CODE BEGIN I2C1_EV_IRQn 0 */

  /* USER CODE END I2C1_EV_IRQn 0 */
  HAL_I2C_EV_IRQHandler(&hi2c1);
 8004048:	4802      	ldr	r0, [pc, #8]	@ (8004054 <I2C1_EV_IRQHandler+0x10>)
 800404a:	f001 fa55 	bl	80054f8 <HAL_I2C_EV_IRQHandler>
  /* USER CODE BEGIN I2C1_EV_IRQn 1 */

  /* USER CODE END I2C1_EV_IRQn 1 */
}
 800404e:	bf00      	nop
 8004050:	bd80      	pop	{r7, pc}
 8004052:	bf00      	nop
 8004054:	20000380 	.word	0x20000380

08004058 <I2C1_ER_IRQHandler>:

/**
  * @brief This function handles I2C1 error interrupt.
  */
void I2C1_ER_IRQHandler(void)
{
 8004058:	b580      	push	{r7, lr}
 800405a:	af00      	add	r7, sp, #0
  /* USER CODE BEGIN I2C1_ER_IRQn 0 */

  /* USER CODE END I2C1_ER_IRQn 0 */
  HAL_I2C_ER_IRQHandler(&hi2c1);
 800405c:	4802      	ldr	r0, [pc, #8]	@ (8004068 <I2C1_ER_IRQHandler+0x10>)
 800405e:	f001 fbbc 	bl	80057da <HAL_I2C_ER_IRQHandler>
  /* USER CODE BEGIN I2C1_ER_IRQn 1 */

  /* USER CODE END I2C1_ER_IRQn 1 */
}
 8004062:	bf00      	nop
 8004064:	bd80      	pop	{r7, pc}
 8004066:	bf00      	nop
 8004068:	20000380 	.word	0x20000380

0800406c <systick_init>:
 *  Created on: Sep 3, 2025
 *      Author: MadaYaswanth
 */

#include"extern_file_declarations.h"
void systick_init(uint32_t ticks_per_sec){
 800406c:	b580      	push	{r7, lr}
 800406e:	b082      	sub	sp, #8
 8004070:	af00      	add	r7, sp, #0
 8004072:	6078      	str	r0, [r7, #4]
    // Reload value = (SystemCoreClock / ticks_per_sec) - 1
    SysTick->LOAD = (get_SYSCLK_freq() / ticks_per_sec) - 1;
 8004074:	f000 f8a0 	bl	80041b8 <get_SYSCLK_freq>
 8004078:	4602      	mov	r2, r0
 800407a:	687b      	ldr	r3, [r7, #4]
 800407c:	fbb2 f3f3 	udiv	r3, r2, r3
 8004080:	4a06      	ldr	r2, [pc, #24]	@ (800409c <systick_init+0x30>)
 8004082:	3b01      	subs	r3, #1
 8004084:	6053      	str	r3, [r2, #4]

    SysTick->VAL = 0;             // Clear current value
 8004086:	4b05      	ldr	r3, [pc, #20]	@ (800409c <systick_init+0x30>)
 8004088:	2200      	movs	r2, #0
 800408a:	609a      	str	r2, [r3, #8]
    SysTick->CTRL = (1 << 2) |    // CLKSOURCE = processor clock (AHB)
 800408c:	4b03      	ldr	r3, [pc, #12]	@ (800409c <systick_init+0x30>)
 800408e:	2207      	movs	r2, #7
 8004090:	601a      	str	r2, [r3, #0]
                    (1 << 1) |    // TICKINT = enable SysTick interrupt
                    (1 << 0);     // ENABLE counter
}
 8004092:	bf00      	nop
 8004094:	3708      	adds	r7, #8
 8004096:	46bd      	mov	sp, r7
 8004098:	bd80      	pop	{r7, pc}
 800409a:	bf00      	nop
 800409c:	e000e010 	.word	0xe000e010

080040a0 <_sbrk>:
 *
 * @param incr Memory size
 * @return Pointer to allocated memory
 */
void *_sbrk(ptrdiff_t incr)
{
 80040a0:	b580      	push	{r7, lr}
 80040a2:	b086      	sub	sp, #24
 80040a4:	af00      	add	r7, sp, #0
 80040a6:	6078      	str	r0, [r7, #4]
  extern uint8_t _end; /* Symbol defined in the linker script */
  extern uint8_t _estack; /* Symbol defined in the linker script */
  extern uint32_t _Min_Stack_Size; /* Symbol defined in the linker script */
  const uint32_t stack_limit = (uint32_t)&_estack - (uint32_t)&_Min_Stack_Size;
 80040a8:	4a14      	ldr	r2, [pc, #80]	@ (80040fc <_sbrk+0x5c>)
 80040aa:	4b15      	ldr	r3, [pc, #84]	@ (8004100 <_sbrk+0x60>)
 80040ac:	1ad3      	subs	r3, r2, r3
 80040ae:	617b      	str	r3, [r7, #20]
  const uint8_t *max_heap = (uint8_t *)stack_limit;
 80040b0:	697b      	ldr	r3, [r7, #20]
 80040b2:	613b      	str	r3, [r7, #16]
  uint8_t *prev_heap_end;

  /* Initialize heap end at first call */
  if (NULL == __sbrk_heap_end)
 80040b4:	4b13      	ldr	r3, [pc, #76]	@ (8004104 <_sbrk+0x64>)
 80040b6:	681b      	ldr	r3, [r3, #0]
 80040b8:	2b00      	cmp	r3, #0
 80040ba:	d102      	bne.n	80040c2 <_sbrk+0x22>
  {
    __sbrk_heap_end = &_end;
 80040bc:	4b11      	ldr	r3, [pc, #68]	@ (8004104 <_sbrk+0x64>)
 80040be:	4a12      	ldr	r2, [pc, #72]	@ (8004108 <_sbrk+0x68>)
 80040c0:	601a      	str	r2, [r3, #0]
  }

  /* Protect heap from growing into the reserved MSP stack */
  if (__sbrk_heap_end + incr > max_heap)
 80040c2:	4b10      	ldr	r3, [pc, #64]	@ (8004104 <_sbrk+0x64>)
 80040c4:	681a      	ldr	r2, [r3, #0]
 80040c6:	687b      	ldr	r3, [r7, #4]
 80040c8:	4413      	add	r3, r2
 80040ca:	693a      	ldr	r2, [r7, #16]
 80040cc:	429a      	cmp	r2, r3
 80040ce:	d207      	bcs.n	80040e0 <_sbrk+0x40>
  {
    errno = ENOMEM;
 80040d0:	f002 ff54 	bl	8006f7c <__errno>
 80040d4:	4603      	mov	r3, r0
 80040d6:	220c      	movs	r2, #12
 80040d8:	601a      	str	r2, [r3, #0]
    return (void *)-1;
 80040da:	f04f 33ff 	mov.w	r3, #4294967295
 80040de:	e009      	b.n	80040f4 <_sbrk+0x54>
  }

  prev_heap_end = __sbrk_heap_end;
 80040e0:	4b08      	ldr	r3, [pc, #32]	@ (8004104 <_sbrk+0x64>)
 80040e2:	681b      	ldr	r3, [r3, #0]
 80040e4:	60fb      	str	r3, [r7, #12]
  __sbrk_heap_end += incr;
 80040e6:	4b07      	ldr	r3, [pc, #28]	@ (8004104 <_sbrk+0x64>)
 80040e8:	681a      	ldr	r2, [r3, #0]
 80040ea:	687b      	ldr	r3, [r7, #4]
 80040ec:	4413      	add	r3, r2
 80040ee:	4a05      	ldr	r2, [pc, #20]	@ (8004104 <_sbrk+0x64>)
 80040f0:	6013      	str	r3, [r2, #0]

  return (void *)prev_heap_end;
 80040f2:	68fb      	ldr	r3, [r7, #12]
}
 80040f4:	4618      	mov	r0, r3
 80040f6:	3718      	adds	r7, #24
 80040f8:	46bd      	mov	sp, r7
 80040fa:	bd80      	pop	{r7, pc}
 80040fc:	20005000 	.word	0x20005000
 8004100:	00000400 	.word	0x00000400
 8004104:	200003dc 	.word	0x200003dc
 8004108:	200005d0 	.word	0x200005d0

0800410c <system_clock_init_to_72MHZ>:
 *
 *  Created on: Sep 2, 2025
 *      Author: MadaYaswanth
 */
#include"main.h"
STATUS system_clock_init_to_72MHZ(){
 800410c:	b480      	push	{r7}
 800410e:	af00      	add	r7, sp, #0
	    // 1. Enable HSE (external crystal, e.g., 8MHz)
	    RCC->CR |= RCC_CR_HSEON;       // Turn on HSE
 8004110:	4b27      	ldr	r3, [pc, #156]	@ (80041b0 <system_clock_init_to_72MHZ+0xa4>)
 8004112:	681b      	ldr	r3, [r3, #0]
 8004114:	4a26      	ldr	r2, [pc, #152]	@ (80041b0 <system_clock_init_to_72MHZ+0xa4>)
 8004116:	f443 3380 	orr.w	r3, r3, #65536	@ 0x10000
 800411a:	6013      	str	r3, [r2, #0]
	    while (!(RCC->CR & RCC_CR_HSERDY)); // Wait until HSE is ready
 800411c:	bf00      	nop
 800411e:	4b24      	ldr	r3, [pc, #144]	@ (80041b0 <system_clock_init_to_72MHZ+0xa4>)
 8004120:	681b      	ldr	r3, [r3, #0]
 8004122:	f403 3300 	and.w	r3, r3, #131072	@ 0x20000
 8004126:	2b00      	cmp	r3, #0
 8004128:	d0f9      	beq.n	800411e <system_clock_init_to_72MHZ+0x12>
	    FLASH->ACR |= FLASH_ACR_LATENCY_2;  // 2 wait states
 800412a:	4b22      	ldr	r3, [pc, #136]	@ (80041b4 <system_clock_init_to_72MHZ+0xa8>)
 800412c:	681b      	ldr	r3, [r3, #0]
 800412e:	4a21      	ldr	r2, [pc, #132]	@ (80041b4 <system_clock_init_to_72MHZ+0xa8>)
 8004130:	f043 0304 	orr.w	r3, r3, #4
 8004134:	6013      	str	r3, [r2, #0]
	    FLASH->ACR |= FLASH_ACR_PRFTBE;     // Enable prefetch
 8004136:	4b1f      	ldr	r3, [pc, #124]	@ (80041b4 <system_clock_init_to_72MHZ+0xa8>)
 8004138:	681b      	ldr	r3, [r3, #0]
 800413a:	4a1e      	ldr	r2, [pc, #120]	@ (80041b4 <system_clock_init_to_72MHZ+0xa8>)
 800413c:	f043 0310 	orr.w	r3, r3, #16
 8004140:	6013      	str	r3, [r2, #0]
	    // 2. Configure PLL to multiply HSE to 72 MHz
	    //    PLLMUL = 9 (8MHz * 9 = 72MHz)
	    RCC->CFGR |= RCC_CFGR_PLLMULL9; // PLL multiplier = 9
 8004142:	4b1b      	ldr	r3, [pc, #108]	@ (80041b0 <system_clock_init_to_72MHZ+0xa4>)
 8004144:	685b      	ldr	r3, [r3, #4]
 8004146:	4a1a      	ldr	r2, [pc, #104]	@ (80041b0 <system_clock_init_to_72MHZ+0xa4>)
 8004148:	f443 13e0 	orr.w	r3, r3, #1835008	@ 0x1c0000
 800414c:	6053      	str	r3, [r2, #4]
	    // 3. Select HSE as PLL source
	    RCC->CFGR |= RCC_CFGR_PLLSRC;   // PLL source = HSE
 800414e:	4b18      	ldr	r3, [pc, #96]	@ (80041b0 <system_clock_init_to_72MHZ+0xa4>)
 8004150:	685b      	ldr	r3, [r3, #4]
 8004152:	4a17      	ldr	r2, [pc, #92]	@ (80041b0 <system_clock_init_to_72MHZ+0xa4>)
 8004154:	f443 3380 	orr.w	r3, r3, #65536	@ 0x10000
 8004158:	6053      	str	r3, [r2, #4]
	    // 4. Set APB1 Prescaler to 2 (PCLK1 = 72MHz / 2 = 36MHz)
	    RCC->CFGR |= RCC_CFGR_PPRE1_2;  // APB1 prescaler = 2 (36MHz)
 800415a:	4b15      	ldr	r3, [pc, #84]	@ (80041b0 <system_clock_init_to_72MHZ+0xa4>)
 800415c:	685b      	ldr	r3, [r3, #4]
 800415e:	4a14      	ldr	r2, [pc, #80]	@ (80041b0 <system_clock_init_to_72MHZ+0xa4>)
 8004160:	f443 6380 	orr.w	r3, r3, #1024	@ 0x400
 8004164:	6053      	str	r3, [r2, #4]
	    // 5. Set APB2 Prescaler to 1 (PCLK2 = 72MHz, no division)
	    RCC->CFGR &= ~RCC_CFGR_PPRE2;   // APB2 prescaler = 1 (72MHz)
 8004166:	4b12      	ldr	r3, [pc, #72]	@ (80041b0 <system_clock_init_to_72MHZ+0xa4>)
 8004168:	685b      	ldr	r3, [r3, #4]
 800416a:	4a11      	ldr	r2, [pc, #68]	@ (80041b0 <system_clock_init_to_72MHZ+0xa4>)
 800416c:	f423 5360 	bic.w	r3, r3, #14336	@ 0x3800
 8004170:	6053      	str	r3, [r2, #4]
	    // 6. Enable PLL and wait until ready
	    RCC->CR |= RCC_CR_PLLON;
 8004172:	4b0f      	ldr	r3, [pc, #60]	@ (80041b0 <system_clock_init_to_72MHZ+0xa4>)
 8004174:	681b      	ldr	r3, [r3, #0]
 8004176:	4a0e      	ldr	r2, [pc, #56]	@ (80041b0 <system_clock_init_to_72MHZ+0xa4>)
 8004178:	f043 7380 	orr.w	r3, r3, #16777216	@ 0x1000000
 800417c:	6013      	str	r3, [r2, #0]
	    while (!(RCC->CR & RCC_CR_PLLRDY));
 800417e:	bf00      	nop
 8004180:	4b0b      	ldr	r3, [pc, #44]	@ (80041b0 <system_clock_init_to_72MHZ+0xa4>)
 8004182:	681b      	ldr	r3, [r3, #0]
 8004184:	f003 7300 	and.w	r3, r3, #33554432	@ 0x2000000
 8004188:	2b00      	cmp	r3, #0
 800418a:	d0f9      	beq.n	8004180 <system_clock_init_to_72MHZ+0x74>
	     // 7. Switch SYSCLK to PLL
	    RCC->CFGR |= RCC_CFGR_SW_PLL;
 800418c:	4b08      	ldr	r3, [pc, #32]	@ (80041b0 <system_clock_init_to_72MHZ+0xa4>)
 800418e:	685b      	ldr	r3, [r3, #4]
 8004190:	4a07      	ldr	r2, [pc, #28]	@ (80041b0 <system_clock_init_to_72MHZ+0xa4>)
 8004192:	f043 0302 	orr.w	r3, r3, #2
 8004196:	6053      	str	r3, [r2, #4]
	    while ((RCC->CFGR & RCC_CFGR_SWS) != RCC_CFGR_SWS_PLL);
 8004198:	bf00      	nop
 800419a:	4b05      	ldr	r3, [pc, #20]	@ (80041b0 <system_clock_init_to_72MHZ+0xa4>)
 800419c:	685b      	ldr	r3, [r3, #4]
 800419e:	f003 030c 	and.w	r3, r3, #12
 80041a2:	2b08      	cmp	r3, #8
 80041a4:	d1f9      	bne.n	800419a <system_clock_init_to_72MHZ+0x8e>
}
 80041a6:	bf00      	nop
 80041a8:	4618      	mov	r0, r3
 80041aa:	46bd      	mov	sp, r7
 80041ac:	bc80      	pop	{r7}
 80041ae:	4770      	bx	lr
 80041b0:	40021000 	.word	0x40021000
 80041b4:	40022000 	.word	0x40022000

080041b8 <get_SYSCLK_freq>:
uint32_t get_SYSCLK_freq(void) {
 80041b8:	b480      	push	{r7}
 80041ba:	b087      	sub	sp, #28
 80041bc:	af00      	add	r7, sp, #0
    uint32_t sysclk_source, pllmul, prediv, pllclk;
    uint32_t HSE_Value = 8000000; // External crystal (adjust if different)
 80041be:	4b26      	ldr	r3, [pc, #152]	@ (8004258 <get_SYSCLK_freq+0xa0>)
 80041c0:	60bb      	str	r3, [r7, #8]
    uint32_t HSI_Value = 8000000; // Internal RC
 80041c2:	4b25      	ldr	r3, [pc, #148]	@ (8004258 <get_SYSCLK_freq+0xa0>)
 80041c4:	607b      	str	r3, [r7, #4]
    sysclk_source = (RCC->CFGR >> 2) & 0x3;  // SWS bits
 80041c6:	4b25      	ldr	r3, [pc, #148]	@ (800425c <get_SYSCLK_freq+0xa4>)
 80041c8:	685b      	ldr	r3, [r3, #4]
 80041ca:	089b      	lsrs	r3, r3, #2
 80041cc:	f003 0303 	and.w	r3, r3, #3
 80041d0:	603b      	str	r3, [r7, #0]
    switch (sysclk_source) {
 80041d2:	683b      	ldr	r3, [r7, #0]
 80041d4:	2b02      	cmp	r3, #2
 80041d6:	d00d      	beq.n	80041f4 <get_SYSCLK_freq+0x3c>
 80041d8:	683b      	ldr	r3, [r7, #0]
 80041da:	2b02      	cmp	r3, #2
 80041dc:	d835      	bhi.n	800424a <get_SYSCLK_freq+0x92>
 80041de:	683b      	ldr	r3, [r7, #0]
 80041e0:	2b00      	cmp	r3, #0
 80041e2:	d003      	beq.n	80041ec <get_SYSCLK_freq+0x34>
 80041e4:	683b      	ldr	r3, [r7, #0]
 80041e6:	2b01      	cmp	r3, #1
 80041e8:	d002      	beq.n	80041f0 <get_SYSCLK_freq+0x38>
 80041ea:	e02e      	b.n	800424a <get_SYSCLK_freq+0x92>
        case 0x00: // HSI
            return HSI_Value;
 80041ec:	687b      	ldr	r3, [r7, #4]
 80041ee:	e02d      	b.n	800424c <get_SYSCLK_freq+0x94>
        case 0x01: // HSE
            return HSE_Value;
 80041f0:	68bb      	ldr	r3, [r7, #8]
 80041f2:	e02b      	b.n	800424c <get_SYSCLK_freq+0x94>
        case 0x02: // PLL
            // PLL source
            if (RCC->CFGR & (1 << 16)) {
 80041f4:	4b19      	ldr	r3, [pc, #100]	@ (800425c <get_SYSCLK_freq+0xa4>)
 80041f6:	685b      	ldr	r3, [r3, #4]
 80041f8:	f403 3380 	and.w	r3, r3, #65536	@ 0x10000
 80041fc:	2b00      	cmp	r3, #0
 80041fe:	d010      	beq.n	8004222 <get_SYSCLK_freq+0x6a>
                // HSE as PLL source
                if (RCC->CFGR & (1 << 17))
 8004200:	4b16      	ldr	r3, [pc, #88]	@ (800425c <get_SYSCLK_freq+0xa4>)
 8004202:	685b      	ldr	r3, [r3, #4]
 8004204:	f403 3300 	and.w	r3, r3, #131072	@ 0x20000
 8004208:	2b00      	cmp	r3, #0
 800420a:	d002      	beq.n	8004212 <get_SYSCLK_freq+0x5a>
                    prediv = 2;   // HSE/2
 800420c:	2302      	movs	r3, #2
 800420e:	613b      	str	r3, [r7, #16]
 8004210:	e001      	b.n	8004216 <get_SYSCLK_freq+0x5e>
                else
                    prediv = 1;   // HSE
 8004212:	2301      	movs	r3, #1
 8004214:	613b      	str	r3, [r7, #16]
                pllclk = HSE_Value / prediv;
 8004216:	68ba      	ldr	r2, [r7, #8]
 8004218:	693b      	ldr	r3, [r7, #16]
 800421a:	fbb2 f3f3 	udiv	r3, r2, r3
 800421e:	60fb      	str	r3, [r7, #12]
 8004220:	e002      	b.n	8004228 <get_SYSCLK_freq+0x70>
            } else {
                // HSI/2 as PLL source
                pllclk = HSI_Value / 2; // 4 MHz
 8004222:	687b      	ldr	r3, [r7, #4]
 8004224:	085b      	lsrs	r3, r3, #1
 8004226:	60fb      	str	r3, [r7, #12]
            }

            // PLL multiplier
            pllmul = ((RCC->CFGR >> 18) & 0xF) + 2;
 8004228:	4b0c      	ldr	r3, [pc, #48]	@ (800425c <get_SYSCLK_freq+0xa4>)
 800422a:	685b      	ldr	r3, [r3, #4]
 800422c:	0c9b      	lsrs	r3, r3, #18
 800422e:	f003 030f 	and.w	r3, r3, #15
 8004232:	3302      	adds	r3, #2
 8004234:	617b      	str	r3, [r7, #20]
            // Note: value 0b1101 = x13, 0b1110 = x14, 0b1111 = x16
            if (pllmul == 15) pllmul = 16; // adjust for 0b1111 special case
 8004236:	697b      	ldr	r3, [r7, #20]
 8004238:	2b0f      	cmp	r3, #15
 800423a:	d101      	bne.n	8004240 <get_SYSCLK_freq+0x88>
 800423c:	2310      	movs	r3, #16
 800423e:	617b      	str	r3, [r7, #20]

            return pllclk * pllmul;
 8004240:	68fb      	ldr	r3, [r7, #12]
 8004242:	697a      	ldr	r2, [r7, #20]
 8004244:	fb02 f303 	mul.w	r3, r2, r3
 8004248:	e000      	b.n	800424c <get_SYSCLK_freq+0x94>
        default:
            return HSI_Value; // fallback
 800424a:	687b      	ldr	r3, [r7, #4]
    }
}
 800424c:	4618      	mov	r0, r3
 800424e:	371c      	adds	r7, #28
 8004250:	46bd      	mov	sp, r7
 8004252:	bc80      	pop	{r7}
 8004254:	4770      	bx	lr
 8004256:	bf00      	nop
 8004258:	007a1200 	.word	0x007a1200
 800425c:	40021000 	.word	0x40021000

08004260 <get_AHB_freq>:
uint32_t get_AHB_freq(void) {
 8004260:	b5b0      	push	{r4, r5, r7, lr}
 8004262:	b092      	sub	sp, #72	@ 0x48
 8004264:	af00      	add	r7, sp, #0
    uint32_t presc_table[16] = {1,1,1,1,1,1,1,1,2,4,8,16,64,128,256,512};
 8004266:	4b11      	ldr	r3, [pc, #68]	@ (80042ac <get_AHB_freq+0x4c>)
 8004268:	1d3c      	adds	r4, r7, #4
 800426a:	461d      	mov	r5, r3
 800426c:	cd0f      	ldmia	r5!, {r0, r1, r2, r3}
 800426e:	c40f      	stmia	r4!, {r0, r1, r2, r3}
 8004270:	cd0f      	ldmia	r5!, {r0, r1, r2, r3}
 8004272:	c40f      	stmia	r4!, {r0, r1, r2, r3}
 8004274:	cd0f      	ldmia	r5!, {r0, r1, r2, r3}
 8004276:	c40f      	stmia	r4!, {r0, r1, r2, r3}
 8004278:	e895 000f 	ldmia.w	r5, {r0, r1, r2, r3}
 800427c:	e884 000f 	stmia.w	r4, {r0, r1, r2, r3}
    uint32_t hpre = (RCC->CFGR >> 4) & 0xF;
 8004280:	4b0b      	ldr	r3, [pc, #44]	@ (80042b0 <get_AHB_freq+0x50>)
 8004282:	685b      	ldr	r3, [r3, #4]
 8004284:	091b      	lsrs	r3, r3, #4
 8004286:	f003 030f 	and.w	r3, r3, #15
 800428a:	647b      	str	r3, [r7, #68]	@ 0x44
    return get_SYSCLK_freq() / presc_table[hpre];
 800428c:	f7ff ff94 	bl	80041b8 <get_SYSCLK_freq>
 8004290:	4602      	mov	r2, r0
 8004292:	6c7b      	ldr	r3, [r7, #68]	@ 0x44
 8004294:	009b      	lsls	r3, r3, #2
 8004296:	3348      	adds	r3, #72	@ 0x48
 8004298:	443b      	add	r3, r7
 800429a:	f853 3c44 	ldr.w	r3, [r3, #-68]
 800429e:	fbb2 f3f3 	udiv	r3, r2, r3
}
 80042a2:	4618      	mov	r0, r3
 80042a4:	3748      	adds	r7, #72	@ 0x48
 80042a6:	46bd      	mov	sp, r7
 80042a8:	bdb0      	pop	{r4, r5, r7, pc}
 80042aa:	bf00      	nop
 80042ac:	08008474 	.word	0x08008474
 80042b0:	40021000 	.word	0x40021000

080042b4 <get_APB1_freq>:

uint32_t get_APB1_freq(void) {
 80042b4:	b5b0      	push	{r4, r5, r7, lr}
 80042b6:	b08a      	sub	sp, #40	@ 0x28
 80042b8:	af00      	add	r7, sp, #0
    uint32_t presc_table[8] = {1,1,1,1,2,4,8,16};
 80042ba:	4b0f      	ldr	r3, [pc, #60]	@ (80042f8 <get_APB1_freq+0x44>)
 80042bc:	1d3c      	adds	r4, r7, #4
 80042be:	461d      	mov	r5, r3
 80042c0:	cd0f      	ldmia	r5!, {r0, r1, r2, r3}
 80042c2:	c40f      	stmia	r4!, {r0, r1, r2, r3}
 80042c4:	e895 000f 	ldmia.w	r5, {r0, r1, r2, r3}
 80042c8:	e884 000f 	stmia.w	r4, {r0, r1, r2, r3}
    uint32_t ppre1 = (RCC->CFGR >> 8) & 0x7;
 80042cc:	4b0b      	ldr	r3, [pc, #44]	@ (80042fc <get_APB1_freq+0x48>)
 80042ce:	685b      	ldr	r3, [r3, #4]
 80042d0:	0a1b      	lsrs	r3, r3, #8
 80042d2:	f003 0307 	and.w	r3, r3, #7
 80042d6:	627b      	str	r3, [r7, #36]	@ 0x24
    return get_AHB_freq() / presc_table[ppre1];
 80042d8:	f7ff ffc2 	bl	8004260 <get_AHB_freq>
 80042dc:	4602      	mov	r2, r0
 80042de:	6a7b      	ldr	r3, [r7, #36]	@ 0x24
 80042e0:	009b      	lsls	r3, r3, #2
 80042e2:	3328      	adds	r3, #40	@ 0x28
 80042e4:	443b      	add	r3, r7
 80042e6:	f853 3c24 	ldr.w	r3, [r3, #-36]
 80042ea:	fbb2 f3f3 	udiv	r3, r2, r3
}
 80042ee:	4618      	mov	r0, r3
 80042f0:	3728      	adds	r7, #40	@ 0x28
 80042f2:	46bd      	mov	sp, r7
 80042f4:	bdb0      	pop	{r4, r5, r7, pc}
 80042f6:	bf00      	nop
 80042f8:	080084b4 	.word	0x080084b4
 80042fc:	40021000 	.word	0x40021000

08004300 <get_APB2_freq>:

uint32_t get_APB2_freq(void) {
 8004300:	b5b0      	push	{r4, r5, r7, lr}
 8004302:	b08a      	sub	sp, #40	@ 0x28
 8004304:	af00      	add	r7, sp, #0
    uint32_t presc_table[8] = {1,1,1,1,2,4,8,16};
 8004306:	4b0f      	ldr	r3, [pc, #60]	@ (8004344 <get_APB2_freq+0x44>)
 8004308:	1d3c      	adds	r4, r7, #4
 800430a:	461d      	mov	r5, r3
 800430c:	cd0f      	ldmia	r5!, {r0, r1, r2, r3}
 800430e:	c40f      	stmia	r4!, {r0, r1, r2, r3}
 8004310:	e895 000f 	ldmia.w	r5, {r0, r1, r2, r3}
 8004314:	e884 000f 	stmia.w	r4, {r0, r1, r2, r3}
    uint32_t ppre2 = (RCC->CFGR >> 11) & 0x7;
 8004318:	4b0b      	ldr	r3, [pc, #44]	@ (8004348 <get_APB2_freq+0x48>)
 800431a:	685b      	ldr	r3, [r3, #4]
 800431c:	0adb      	lsrs	r3, r3, #11
 800431e:	f003 0307 	and.w	r3, r3, #7
 8004322:	627b      	str	r3, [r7, #36]	@ 0x24
    return get_AHB_freq() / presc_table[ppre2];
 8004324:	f7ff ff9c 	bl	8004260 <get_AHB_freq>
 8004328:	4602      	mov	r2, r0
 800432a:	6a7b      	ldr	r3, [r7, #36]	@ 0x24
 800432c:	009b      	lsls	r3, r3, #2
 800432e:	3328      	adds	r3, #40	@ 0x28
 8004330:	443b      	add	r3, r7
 8004332:	f853 3c24 	ldr.w	r3, [r3, #-36]
 8004336:	fbb2 f3f3 	udiv	r3, r2, r3
}
 800433a:	4618      	mov	r0, r3
 800433c:	3728      	adds	r7, #40	@ 0x28
 800433e:	46bd      	mov	sp, r7
 8004340:	bdb0      	pop	{r4, r5, r7, pc}
 8004342:	bf00      	nop
 8004344:	080084b4 	.word	0x080084b4
 8004348:	40021000 	.word	0x40021000

0800434c <SystemInit>:
  * @note   This function should be used only after reset.
  * @param  None
  * @retval None
  */
void SystemInit (void)
{
 800434c:	b480      	push	{r7}
 800434e:	af00      	add	r7, sp, #0

  /* Configure the Vector Table location -------------------------------------*/
#if defined(USER_VECT_TAB_ADDRESS)
  SCB->VTOR = VECT_TAB_BASE_ADDRESS | VECT_TAB_OFFSET; /* Vector Table Relocation in Internal SRAM. */
#endif /* USER_VECT_TAB_ADDRESS */
}
 8004350:	bf00      	nop
 8004352:	46bd      	mov	sp, r7
 8004354:	bc80      	pop	{r7}
 8004356:	4770      	bx	lr

08004358 <Init_tasks>:

#include"extern_file_declarations.h"
#define max_tasks 10
task_timer timer[max_tasks];

void Init_tasks(void){
 8004358:	b480      	push	{r7}
 800435a:	b083      	sub	sp, #12
 800435c:	af00      	add	r7, sp, #0
	for(int i=0; i<max_tasks; i++){
 800435e:	2300      	movs	r3, #0
 8004360:	607b      	str	r3, [r7, #4]
 8004362:	e024      	b.n	80043ae <Init_tasks+0x56>
		timer[i].period_ms = 0;
 8004364:	4a16      	ldr	r2, [pc, #88]	@ (80043c0 <Init_tasks+0x68>)
 8004366:	687b      	ldr	r3, [r7, #4]
 8004368:	011b      	lsls	r3, r3, #4
 800436a:	4413      	add	r3, r2
 800436c:	2200      	movs	r2, #0
 800436e:	601a      	str	r2, [r3, #0]
		timer[i].last_time_ms = 0;
 8004370:	4a13      	ldr	r2, [pc, #76]	@ (80043c0 <Init_tasks+0x68>)
 8004372:	687b      	ldr	r3, [r7, #4]
 8004374:	011b      	lsls	r3, r3, #4
 8004376:	4413      	add	r3, r2
 8004378:	3304      	adds	r3, #4
 800437a:	2200      	movs	r2, #0
 800437c:	601a      	str	r2, [r3, #0]
		timer[i].enable = 0;
 800437e:	4a10      	ldr	r2, [pc, #64]	@ (80043c0 <Init_tasks+0x68>)
 8004380:	687b      	ldr	r3, [r7, #4]
 8004382:	011b      	lsls	r3, r3, #4
 8004384:	4413      	add	r3, r2
 8004386:	330c      	adds	r3, #12
 8004388:	2200      	movs	r2, #0
 800438a:	701a      	strb	r2, [r3, #0]
		timer[i].task_fn = 0;
 800438c:	4a0c      	ldr	r2, [pc, #48]	@ (80043c0 <Init_tasks+0x68>)
 800438e:	687b      	ldr	r3, [r7, #4]
 8004390:	011b      	lsls	r3, r3, #4
 8004392:	4413      	add	r3, r2
 8004394:	3308      	adds	r3, #8
 8004396:	2200      	movs	r2, #0
 8004398:	601a      	str	r2, [r3, #0]
		timer[i].one_time_execute = 0;
 800439a:	4a09      	ldr	r2, [pc, #36]	@ (80043c0 <Init_tasks+0x68>)
 800439c:	687b      	ldr	r3, [r7, #4]
 800439e:	011b      	lsls	r3, r3, #4
 80043a0:	4413      	add	r3, r2
 80043a2:	330d      	adds	r3, #13
 80043a4:	2200      	movs	r2, #0
 80043a6:	701a      	strb	r2, [r3, #0]
	for(int i=0; i<max_tasks; i++){
 80043a8:	687b      	ldr	r3, [r7, #4]
 80043aa:	3301      	adds	r3, #1
 80043ac:	607b      	str	r3, [r7, #4]
 80043ae:	687b      	ldr	r3, [r7, #4]
 80043b0:	2b09      	cmp	r3, #9
 80043b2:	ddd7      	ble.n	8004364 <Init_tasks+0xc>
	}
}
 80043b4:	bf00      	nop
 80043b6:	bf00      	nop
 80043b8:	370c      	adds	r7, #12
 80043ba:	46bd      	mov	sp, r7
 80043bc:	bc80      	pop	{r7}
 80043be:	4770      	bx	lr
 80043c0:	200003e0 	.word	0x200003e0

080043c4 <Register_task>:

int Register_task(uint32_t period_ms, TaskFunction task_fn){
 80043c4:	b480      	push	{r7}
 80043c6:	b085      	sub	sp, #20
 80043c8:	af00      	add	r7, sp, #0
 80043ca:	6078      	str	r0, [r7, #4]
 80043cc:	6039      	str	r1, [r7, #0]
	for(int i=0; i<max_tasks; i++){
 80043ce:	2300      	movs	r3, #0
 80043d0:	60fb      	str	r3, [r7, #12]
 80043d2:	e037      	b.n	8004444 <Register_task+0x80>
		if(!timer[i].enable && timer[i].task_fn == 0){
 80043d4:	4a20      	ldr	r2, [pc, #128]	@ (8004458 <Register_task+0x94>)
 80043d6:	68fb      	ldr	r3, [r7, #12]
 80043d8:	011b      	lsls	r3, r3, #4
 80043da:	4413      	add	r3, r2
 80043dc:	330c      	adds	r3, #12
 80043de:	781b      	ldrb	r3, [r3, #0]
 80043e0:	2b00      	cmp	r3, #0
 80043e2:	d12c      	bne.n	800443e <Register_task+0x7a>
 80043e4:	4a1c      	ldr	r2, [pc, #112]	@ (8004458 <Register_task+0x94>)
 80043e6:	68fb      	ldr	r3, [r7, #12]
 80043e8:	011b      	lsls	r3, r3, #4
 80043ea:	4413      	add	r3, r2
 80043ec:	3308      	adds	r3, #8
 80043ee:	681b      	ldr	r3, [r3, #0]
 80043f0:	2b00      	cmp	r3, #0
 80043f2:	d124      	bne.n	800443e <Register_task+0x7a>
			timer[i].enable =1;
 80043f4:	4a18      	ldr	r2, [pc, #96]	@ (8004458 <Register_task+0x94>)
 80043f6:	68fb      	ldr	r3, [r7, #12]
 80043f8:	011b      	lsls	r3, r3, #4
 80043fa:	4413      	add	r3, r2
 80043fc:	330c      	adds	r3, #12
 80043fe:	2201      	movs	r2, #1
 8004400:	701a      	strb	r2, [r3, #0]
			timer[i].last_time_ms = milli_sec_tick;
 8004402:	4b16      	ldr	r3, [pc, #88]	@ (800445c <Register_task+0x98>)
 8004404:	681a      	ldr	r2, [r3, #0]
 8004406:	4914      	ldr	r1, [pc, #80]	@ (8004458 <Register_task+0x94>)
 8004408:	68fb      	ldr	r3, [r7, #12]
 800440a:	011b      	lsls	r3, r3, #4
 800440c:	440b      	add	r3, r1
 800440e:	3304      	adds	r3, #4
 8004410:	601a      	str	r2, [r3, #0]
			timer[i].one_time_execute = 0;
 8004412:	4a11      	ldr	r2, [pc, #68]	@ (8004458 <Register_task+0x94>)
 8004414:	68fb      	ldr	r3, [r7, #12]
 8004416:	011b      	lsls	r3, r3, #4
 8004418:	4413      	add	r3, r2
 800441a:	330d      	adds	r3, #13
 800441c:	2200      	movs	r2, #0
 800441e:	701a      	strb	r2, [r3, #0]
			timer[i].period_ms = period_ms;
 8004420:	4a0d      	ldr	r2, [pc, #52]	@ (8004458 <Register_task+0x94>)
 8004422:	68fb      	ldr	r3, [r7, #12]
 8004424:	011b      	lsls	r3, r3, #4
 8004426:	4413      	add	r3, r2
 8004428:	687a      	ldr	r2, [r7, #4]
 800442a:	601a      	str	r2, [r3, #0]
			timer[i].task_fn = task_fn;
 800442c:	4a0a      	ldr	r2, [pc, #40]	@ (8004458 <Register_task+0x94>)
 800442e:	68fb      	ldr	r3, [r7, #12]
 8004430:	011b      	lsls	r3, r3, #4
 8004432:	4413      	add	r3, r2
 8004434:	3308      	adds	r3, #8
 8004436:	683a      	ldr	r2, [r7, #0]
 8004438:	601a      	str	r2, [r3, #0]
			return i;
 800443a:	68fb      	ldr	r3, [r7, #12]
 800443c:	e007      	b.n	800444e <Register_task+0x8a>
	for(int i=0; i<max_tasks; i++){
 800443e:	68fb      	ldr	r3, [r7, #12]
 8004440:	3301      	adds	r3, #1
 8004442:	60fb      	str	r3, [r7, #12]
 8004444:	68fb      	ldr	r3, [r7, #12]
 8004446:	2b09      	cmp	r3, #9
 8004448:	ddc4      	ble.n	80043d4 <Register_task+0x10>
		}
	}
	return -1;
 800444a:	f04f 33ff 	mov.w	r3, #4294967295
}
 800444e:	4618      	mov	r0, r3
 8004450:	3714      	adds	r7, #20
 8004452:	46bd      	mov	sp, r7
 8004454:	bc80      	pop	{r7}
 8004456:	4770      	bx	lr
 8004458:	200003e0 	.word	0x200003e0
 800445c:	200003d8 	.word	0x200003d8

08004460 <Run_all_tasks>:
		}
	}
	return -1;
}

void Run_all_tasks(void){
 8004460:	b580      	push	{r7, lr}
 8004462:	b082      	sub	sp, #8
 8004464:	af00      	add	r7, sp, #0
	for(int i=0; i<max_tasks; i++){
 8004466:	2300      	movs	r3, #0
 8004468:	607b      	str	r3, [r7, #4]
 800446a:	e03c      	b.n	80044e6 <Run_all_tasks+0x86>
		if(timer[i].enable && timer[i].task_fn != 0){
 800446c:	4a22      	ldr	r2, [pc, #136]	@ (80044f8 <Run_all_tasks+0x98>)
 800446e:	687b      	ldr	r3, [r7, #4]
 8004470:	011b      	lsls	r3, r3, #4
 8004472:	4413      	add	r3, r2
 8004474:	330c      	adds	r3, #12
 8004476:	781b      	ldrb	r3, [r3, #0]
 8004478:	2b00      	cmp	r3, #0
 800447a:	d031      	beq.n	80044e0 <Run_all_tasks+0x80>
 800447c:	4a1e      	ldr	r2, [pc, #120]	@ (80044f8 <Run_all_tasks+0x98>)
 800447e:	687b      	ldr	r3, [r7, #4]
 8004480:	011b      	lsls	r3, r3, #4
 8004482:	4413      	add	r3, r2
 8004484:	3308      	adds	r3, #8
 8004486:	681b      	ldr	r3, [r3, #0]
 8004488:	2b00      	cmp	r3, #0
 800448a:	d029      	beq.n	80044e0 <Run_all_tasks+0x80>
			if(milli_sec_tick - timer[i].last_time_ms > timer[i].period_ms){
 800448c:	4b1b      	ldr	r3, [pc, #108]	@ (80044fc <Run_all_tasks+0x9c>)
 800448e:	681a      	ldr	r2, [r3, #0]
 8004490:	4919      	ldr	r1, [pc, #100]	@ (80044f8 <Run_all_tasks+0x98>)
 8004492:	687b      	ldr	r3, [r7, #4]
 8004494:	011b      	lsls	r3, r3, #4
 8004496:	440b      	add	r3, r1
 8004498:	3304      	adds	r3, #4
 800449a:	681b      	ldr	r3, [r3, #0]
 800449c:	1ad2      	subs	r2, r2, r3
 800449e:	4916      	ldr	r1, [pc, #88]	@ (80044f8 <Run_all_tasks+0x98>)
 80044a0:	687b      	ldr	r3, [r7, #4]
 80044a2:	011b      	lsls	r3, r3, #4
 80044a4:	440b      	add	r3, r1
 80044a6:	681b      	ldr	r3, [r3, #0]
 80044a8:	429a      	cmp	r2, r3
 80044aa:	d919      	bls.n	80044e0 <Run_all_tasks+0x80>
				timer[i].last_time_ms = milli_sec_tick;
 80044ac:	4b13      	ldr	r3, [pc, #76]	@ (80044fc <Run_all_tasks+0x9c>)
 80044ae:	681a      	ldr	r2, [r3, #0]
 80044b0:	4911      	ldr	r1, [pc, #68]	@ (80044f8 <Run_all_tasks+0x98>)
 80044b2:	687b      	ldr	r3, [r7, #4]
 80044b4:	011b      	lsls	r3, r3, #4
 80044b6:	440b      	add	r3, r1
 80044b8:	3304      	adds	r3, #4
 80044ba:	601a      	str	r2, [r3, #0]
				timer[i].task_fn();
 80044bc:	4a0e      	ldr	r2, [pc, #56]	@ (80044f8 <Run_all_tasks+0x98>)
 80044be:	687b      	ldr	r3, [r7, #4]
 80044c0:	011b      	lsls	r3, r3, #4
 80044c2:	4413      	add	r3, r2
 80044c4:	3308      	adds	r3, #8
 80044c6:	681b      	ldr	r3, [r3, #0]
 80044c8:	4798      	blx	r3
				if(timer[i].one_time_execute==1){
 80044ca:	4a0b      	ldr	r2, [pc, #44]	@ (80044f8 <Run_all_tasks+0x98>)
 80044cc:	687b      	ldr	r3, [r7, #4]
 80044ce:	011b      	lsls	r3, r3, #4
 80044d0:	4413      	add	r3, r2
 80044d2:	330d      	adds	r3, #13
 80044d4:	781b      	ldrb	r3, [r3, #0]
 80044d6:	2b01      	cmp	r3, #1
 80044d8:	d102      	bne.n	80044e0 <Run_all_tasks+0x80>
					Remove_task(i);
 80044da:	6878      	ldr	r0, [r7, #4]
 80044dc:	f000 f810 	bl	8004500 <Remove_task>
	for(int i=0; i<max_tasks; i++){
 80044e0:	687b      	ldr	r3, [r7, #4]
 80044e2:	3301      	adds	r3, #1
 80044e4:	607b      	str	r3, [r7, #4]
 80044e6:	687b      	ldr	r3, [r7, #4]
 80044e8:	2b09      	cmp	r3, #9
 80044ea:	ddbf      	ble.n	800446c <Run_all_tasks+0xc>
				}
			}
		}
	}
}
 80044ec:	bf00      	nop
 80044ee:	bf00      	nop
 80044f0:	3708      	adds	r7, #8
 80044f2:	46bd      	mov	sp, r7
 80044f4:	bd80      	pop	{r7, pc}
 80044f6:	bf00      	nop
 80044f8:	200003e0 	.word	0x200003e0
 80044fc:	200003d8 	.word	0x200003d8

08004500 <Remove_task>:

void Remove_task(int task_id){
 8004500:	b480      	push	{r7}
 8004502:	b083      	sub	sp, #12
 8004504:	af00      	add	r7, sp, #0
 8004506:	6078      	str	r0, [r7, #4]
	if(task_id>=0 && task_id<max_tasks){
 8004508:	687b      	ldr	r3, [r7, #4]
 800450a:	2b00      	cmp	r3, #0
 800450c:	db24      	blt.n	8004558 <Remove_task+0x58>
 800450e:	687b      	ldr	r3, [r7, #4]
 8004510:	2b09      	cmp	r3, #9
 8004512:	dc21      	bgt.n	8004558 <Remove_task+0x58>
		timer[task_id].enable = 0;
 8004514:	4a13      	ldr	r2, [pc, #76]	@ (8004564 <Remove_task+0x64>)
 8004516:	687b      	ldr	r3, [r7, #4]
 8004518:	011b      	lsls	r3, r3, #4
 800451a:	4413      	add	r3, r2
 800451c:	330c      	adds	r3, #12
 800451e:	2200      	movs	r2, #0
 8004520:	701a      	strb	r2, [r3, #0]
		timer[task_id].last_time_ms = 0;
 8004522:	4a10      	ldr	r2, [pc, #64]	@ (8004564 <Remove_task+0x64>)
 8004524:	687b      	ldr	r3, [r7, #4]
 8004526:	011b      	lsls	r3, r3, #4
 8004528:	4413      	add	r3, r2
 800452a:	3304      	adds	r3, #4
 800452c:	2200      	movs	r2, #0
 800452e:	601a      	str	r2, [r3, #0]
		timer[task_id].one_time_execute = 0;
 8004530:	4a0c      	ldr	r2, [pc, #48]	@ (8004564 <Remove_task+0x64>)
 8004532:	687b      	ldr	r3, [r7, #4]
 8004534:	011b      	lsls	r3, r3, #4
 8004536:	4413      	add	r3, r2
 8004538:	330d      	adds	r3, #13
 800453a:	2200      	movs	r2, #0
 800453c:	701a      	strb	r2, [r3, #0]
		timer[task_id].period_ms = 0;
 800453e:	4a09      	ldr	r2, [pc, #36]	@ (8004564 <Remove_task+0x64>)
 8004540:	687b      	ldr	r3, [r7, #4]
 8004542:	011b      	lsls	r3, r3, #4
 8004544:	4413      	add	r3, r2
 8004546:	2200      	movs	r2, #0
 8004548:	601a      	str	r2, [r3, #0]
		timer[task_id].task_fn = 0;
 800454a:	4a06      	ldr	r2, [pc, #24]	@ (8004564 <Remove_task+0x64>)
 800454c:	687b      	ldr	r3, [r7, #4]
 800454e:	011b      	lsls	r3, r3, #4
 8004550:	4413      	add	r3, r2
 8004552:	3308      	adds	r3, #8
 8004554:	2200      	movs	r2, #0
 8004556:	601a      	str	r2, [r3, #0]
	}
}
 8004558:	bf00      	nop
 800455a:	370c      	adds	r7, #12
 800455c:	46bd      	mov	sp, r7
 800455e:	bc80      	pop	{r7}
 8004560:	4770      	bx	lr
 8004562:	bf00      	nop
 8004564:	200003e0 	.word	0x200003e0

08004568 <uart_init>:
#include <stdarg.h>
#include"extern_file_declarations.h"
#include"can.h"
#define UART_PRINTF_BUFFER_SIZE 100
extern uint32_t get_APB1_freq(void) ;
STATUS uart_init(uint32_t Baud_Rate){
 8004568:	b580      	push	{r7, lr}
 800456a:	b084      	sub	sp, #16
 800456c:	af00      	add	r7, sp, #0
 800456e:	6078      	str	r0, [r7, #4]
	 // Enable clocks
	    RCC->APB2ENR |= RCC_APB2ENR_IOPAEN;   // GPIOA
 8004570:	4b25      	ldr	r3, [pc, #148]	@ (8004608 <uart_init+0xa0>)
 8004572:	699b      	ldr	r3, [r3, #24]
 8004574:	4a24      	ldr	r2, [pc, #144]	@ (8004608 <uart_init+0xa0>)
 8004576:	f043 0304 	orr.w	r3, r3, #4
 800457a:	6193      	str	r3, [r2, #24]
	    RCC->APB2ENR |= RCC_APB2ENR_USART1EN; // USART1
 800457c:	4b22      	ldr	r3, [pc, #136]	@ (8004608 <uart_init+0xa0>)
 800457e:	699b      	ldr	r3, [r3, #24]
 8004580:	4a21      	ldr	r2, [pc, #132]	@ (8004608 <uart_init+0xa0>)
 8004582:	f443 4380 	orr.w	r3, r3, #16384	@ 0x4000
 8004586:	6193      	str	r3, [r2, #24]
	    // PA9 = TX (AF push-pull), PA10 = RX (input floating)
	    GPIOA->CRH &= ~((0xF << (4 * 1)) | (0xF << (4 * 2))); // clear CNF/MODE for PA9, PA10
 8004588:	4b20      	ldr	r3, [pc, #128]	@ (800460c <uart_init+0xa4>)
 800458a:	685b      	ldr	r3, [r3, #4]
 800458c:	4a1f      	ldr	r2, [pc, #124]	@ (800460c <uart_init+0xa4>)
 800458e:	f423 637f 	bic.w	r3, r3, #4080	@ 0xff0
 8004592:	6053      	str	r3, [r2, #4]
	    GPIOA->CRH |=  (0xB << (4 * 1)); // PA9 = AF PP, 50 MHz
 8004594:	4b1d      	ldr	r3, [pc, #116]	@ (800460c <uart_init+0xa4>)
 8004596:	685b      	ldr	r3, [r3, #4]
 8004598:	4a1c      	ldr	r2, [pc, #112]	@ (800460c <uart_init+0xa4>)
 800459a:	f043 03b0 	orr.w	r3, r3, #176	@ 0xb0
 800459e:	6053      	str	r3, [r2, #4]
	    GPIOA->CRH |=  (0x4 << (4 * 2)); // PA10 = input floating
 80045a0:	4b1a      	ldr	r3, [pc, #104]	@ (800460c <uart_init+0xa4>)
 80045a2:	685b      	ldr	r3, [r3, #4]
 80045a4:	4a19      	ldr	r2, [pc, #100]	@ (800460c <uart_init+0xa4>)
 80045a6:	f443 6380 	orr.w	r3, r3, #1024	@ 0x400
 80045aa:	6053      	str	r3, [r2, #4]
	    // Reset USART1
	    USART1->CR1 = 0;
 80045ac:	4b18      	ldr	r3, [pc, #96]	@ (8004610 <uart_init+0xa8>)
 80045ae:	2200      	movs	r2, #0
 80045b0:	60da      	str	r2, [r3, #12]
	    // Calculate baudrate divisor
	    uint32_t pclk2 = get_APB2_freq();
 80045b2:	f7ff fea5 	bl	8004300 <get_APB2_freq>
 80045b6:	60f8      	str	r0, [r7, #12]
	    if (pclk2 == 0 || Baud_Rate == 0) {
 80045b8:	68fb      	ldr	r3, [r7, #12]
 80045ba:	2b00      	cmp	r3, #0
 80045bc:	d002      	beq.n	80045c4 <uart_init+0x5c>
 80045be:	687b      	ldr	r3, [r7, #4]
 80045c0:	2b00      	cmp	r3, #0
 80045c2:	d101      	bne.n	80045c8 <uart_init+0x60>
	        return RY_NOT_OK;
 80045c4:	2300      	movs	r3, #0
 80045c6:	e01b      	b.n	8004600 <uart_init+0x98>
	    }
	    uint32_t usartdiv = (pclk2 + (Baud_Rate/2)) / Baud_Rate; // nearest
 80045c8:	687b      	ldr	r3, [r7, #4]
 80045ca:	085a      	lsrs	r2, r3, #1
 80045cc:	68fb      	ldr	r3, [r7, #12]
 80045ce:	441a      	add	r2, r3
 80045d0:	687b      	ldr	r3, [r7, #4]
 80045d2:	fbb2 f3f3 	udiv	r3, r2, r3
 80045d6:	60bb      	str	r3, [r7, #8]
	    USART1->BRR = usartdiv;
 80045d8:	4a0d      	ldr	r2, [pc, #52]	@ (8004610 <uart_init+0xa8>)
 80045da:	68bb      	ldr	r3, [r7, #8]
 80045dc:	6093      	str	r3, [r2, #8]
	    // Enable USART, TX, RX
	    USART1->CR1 |= USART_CR1_UE | USART_CR1_TE | USART_CR1_RE;
 80045de:	4b0c      	ldr	r3, [pc, #48]	@ (8004610 <uart_init+0xa8>)
 80045e0:	68db      	ldr	r3, [r3, #12]
 80045e2:	4a0b      	ldr	r2, [pc, #44]	@ (8004610 <uart_init+0xa8>)
 80045e4:	f443 5300 	orr.w	r3, r3, #8192	@ 0x2000
 80045e8:	f043 030c 	orr.w	r3, r3, #12
 80045ec:	60d3      	str	r3, [r2, #12]

	    // Verify configuration
	    if (!(USART1->CR1 & USART_CR1_UE)) {
 80045ee:	4b08      	ldr	r3, [pc, #32]	@ (8004610 <uart_init+0xa8>)
 80045f0:	68db      	ldr	r3, [r3, #12]
 80045f2:	f403 5300 	and.w	r3, r3, #8192	@ 0x2000
 80045f6:	2b00      	cmp	r3, #0
 80045f8:	d101      	bne.n	80045fe <uart_init+0x96>
	        return RY_NOT_OK;
 80045fa:	2300      	movs	r3, #0
 80045fc:	e000      	b.n	8004600 <uart_init+0x98>
	    }
	    return RY_OK;
 80045fe:	2301      	movs	r3, #1
}
 8004600:	4618      	mov	r0, r3
 8004602:	3710      	adds	r7, #16
 8004604:	46bd      	mov	sp, r7
 8004606:	bd80      	pop	{r7, pc}
 8004608:	40021000 	.word	0x40021000
 800460c:	40010800 	.word	0x40010800
 8004610:	40013800 	.word	0x40013800

08004614 <uart3_Init>:
STATUS uart3_Init(uint32_t baudrate) {
 8004614:	b480      	push	{r7}
 8004616:	b085      	sub	sp, #20
 8004618:	af00      	add	r7, sp, #0
 800461a:	6078      	str	r0, [r7, #4]
    // 1. Enable clocks for GPIOB and USART3
    RCC->APB2ENR |= RCC_APB2ENR_IOPBEN;   // Enable GPIOB clock
 800461c:	4b23      	ldr	r3, [pc, #140]	@ (80046ac <uart3_Init+0x98>)
 800461e:	699b      	ldr	r3, [r3, #24]
 8004620:	4a22      	ldr	r2, [pc, #136]	@ (80046ac <uart3_Init+0x98>)
 8004622:	f043 0308 	orr.w	r3, r3, #8
 8004626:	6193      	str	r3, [r2, #24]
    RCC->APB1ENR |= RCC_APB1ENR_USART3EN; // Enable USART3 clock
 8004628:	4b20      	ldr	r3, [pc, #128]	@ (80046ac <uart3_Init+0x98>)
 800462a:	69db      	ldr	r3, [r3, #28]
 800462c:	4a1f      	ldr	r2, [pc, #124]	@ (80046ac <uart3_Init+0x98>)
 800462e:	f443 2380 	orr.w	r3, r3, #262144	@ 0x40000
 8004632:	61d3      	str	r3, [r2, #28]

    // 2. Configure PB10 as Alternate Function Push-Pull (TX), 50 MHz
    GPIOB->CRH &= ~(GPIO_CRH_MODE10 | GPIO_CRH_CNF10);
 8004634:	4b1e      	ldr	r3, [pc, #120]	@ (80046b0 <uart3_Init+0x9c>)
 8004636:	685b      	ldr	r3, [r3, #4]
 8004638:	4a1d      	ldr	r2, [pc, #116]	@ (80046b0 <uart3_Init+0x9c>)
 800463a:	f423 6370 	bic.w	r3, r3, #3840	@ 0xf00
 800463e:	6053      	str	r3, [r2, #4]
    GPIOB->CRH |= (0x03 << GPIO_CRH_MODE10_Pos); // Output mode, max speed 50 MHz
 8004640:	4b1b      	ldr	r3, [pc, #108]	@ (80046b0 <uart3_Init+0x9c>)
 8004642:	685b      	ldr	r3, [r3, #4]
 8004644:	4a1a      	ldr	r2, [pc, #104]	@ (80046b0 <uart3_Init+0x9c>)
 8004646:	f443 7340 	orr.w	r3, r3, #768	@ 0x300
 800464a:	6053      	str	r3, [r2, #4]
    GPIOB->CRH |= (0x02 << GPIO_CRH_CNF10_Pos);  // AF push-pull
 800464c:	4b18      	ldr	r3, [pc, #96]	@ (80046b0 <uart3_Init+0x9c>)
 800464e:	685b      	ldr	r3, [r3, #4]
 8004650:	4a17      	ldr	r2, [pc, #92]	@ (80046b0 <uart3_Init+0x9c>)
 8004652:	f443 6300 	orr.w	r3, r3, #2048	@ 0x800
 8004656:	6053      	str	r3, [r2, #4]

    // 3. Configure PB11 as Input Floating (RX)
    GPIOB->CRH &= ~(GPIO_CRH_MODE11 | GPIO_CRH_CNF11);
 8004658:	4b15      	ldr	r3, [pc, #84]	@ (80046b0 <uart3_Init+0x9c>)
 800465a:	685b      	ldr	r3, [r3, #4]
 800465c:	4a14      	ldr	r2, [pc, #80]	@ (80046b0 <uart3_Init+0x9c>)
 800465e:	f423 4370 	bic.w	r3, r3, #61440	@ 0xf000
 8004662:	6053      	str	r3, [r2, #4]
    GPIOB->CRH |= (0x01 << GPIO_CRH_CNF11_Pos);  // Floating input
 8004664:	4b12      	ldr	r3, [pc, #72]	@ (80046b0 <uart3_Init+0x9c>)
 8004666:	685b      	ldr	r3, [r3, #4]
 8004668:	4a11      	ldr	r2, [pc, #68]	@ (80046b0 <uart3_Init+0x9c>)
 800466a:	f443 4380 	orr.w	r3, r3, #16384	@ 0x4000
 800466e:	6053      	str	r3, [r2, #4]

    // 4. USART configuration
    USART3->CR1 = 0;  // Reset control register
 8004670:	4b10      	ldr	r3, [pc, #64]	@ (80046b4 <uart3_Init+0xa0>)
 8004672:	2200      	movs	r2, #0
 8004674:	60da      	str	r2, [r3, #12]

    // Baud rate = Fclk / (16 * USARTDIV)
    // Example: PCLK1 = 36 MHz, baud = 115200
    // USARTDIV = 36MHz / (16 * 115200) ≈ 19.53
    // DIV_Mantissa = 19, DIV_Fraction = 0.53*16 ≈ 8
    uint32_t pclk = 36000000; // APB1 clock is 36 MHz (default with 72 MHz SYSCLK)
 8004676:	4b10      	ldr	r3, [pc, #64]	@ (80046b8 <uart3_Init+0xa4>)
 8004678:	60fb      	str	r3, [r7, #12]
    uint32_t usartdiv = (pclk + (baudrate/2)) / baudrate; // scaled
 800467a:	687b      	ldr	r3, [r7, #4]
 800467c:	085a      	lsrs	r2, r3, #1
 800467e:	68fb      	ldr	r3, [r7, #12]
 8004680:	441a      	add	r2, r3
 8004682:	687b      	ldr	r3, [r7, #4]
 8004684:	fbb2 f3f3 	udiv	r3, r2, r3
 8004688:	60bb      	str	r3, [r7, #8]
    USART3->BRR = usartdiv;
 800468a:	4a0a      	ldr	r2, [pc, #40]	@ (80046b4 <uart3_Init+0xa0>)
 800468c:	68bb      	ldr	r3, [r7, #8]
 800468e:	6093      	str	r3, [r2, #8]

    // Enable USART, TX, RX
    USART3->CR1 |= USART_CR1_TE | USART_CR1_RE | USART_CR1_UE;
 8004690:	4b08      	ldr	r3, [pc, #32]	@ (80046b4 <uart3_Init+0xa0>)
 8004692:	68db      	ldr	r3, [r3, #12]
 8004694:	4a07      	ldr	r2, [pc, #28]	@ (80046b4 <uart3_Init+0xa0>)
 8004696:	f443 5300 	orr.w	r3, r3, #8192	@ 0x2000
 800469a:	f043 030c 	orr.w	r3, r3, #12
 800469e:	60d3      	str	r3, [r2, #12]
    return RY_OK;
 80046a0:	2301      	movs	r3, #1
}
 80046a2:	4618      	mov	r0, r3
 80046a4:	3714      	adds	r7, #20
 80046a6:	46bd      	mov	sp, r7
 80046a8:	bc80      	pop	{r7}
 80046aa:	4770      	bx	lr
 80046ac:	40021000 	.word	0x40021000
 80046b0:	40010c00 	.word	0x40010c00
 80046b4:	40004800 	.word	0x40004800
 80046b8:	02255100 	.word	0x02255100

080046bc <uart_print>:
void uart_print(uint8_t data)
{
 80046bc:	b480      	push	{r7}
 80046be:	b083      	sub	sp, #12
 80046c0:	af00      	add	r7, sp, #0
 80046c2:	4603      	mov	r3, r0
 80046c4:	71fb      	strb	r3, [r7, #7]
    // Wait until TXE (Transmit Data Register Empty)
    while (!(USART3->SR & USART_SR_TXE)) {  }
 80046c6:	bf00      	nop
 80046c8:	4b0a      	ldr	r3, [pc, #40]	@ (80046f4 <uart_print+0x38>)
 80046ca:	681b      	ldr	r3, [r3, #0]
 80046cc:	f003 0380 	and.w	r3, r3, #128	@ 0x80
 80046d0:	2b00      	cmp	r3, #0
 80046d2:	d0f9      	beq.n	80046c8 <uart_print+0xc>
    USART3->DR = data;
 80046d4:	4a07      	ldr	r2, [pc, #28]	@ (80046f4 <uart_print+0x38>)
 80046d6:	79fb      	ldrb	r3, [r7, #7]
 80046d8:	6053      	str	r3, [r2, #4]
    while (!(USART3->SR & USART_SR_TC)) {  }
 80046da:	bf00      	nop
 80046dc:	4b05      	ldr	r3, [pc, #20]	@ (80046f4 <uart_print+0x38>)
 80046de:	681b      	ldr	r3, [r3, #0]
 80046e0:	f003 0340 	and.w	r3, r3, #64	@ 0x40
 80046e4:	2b00      	cmp	r3, #0
 80046e6:	d0f9      	beq.n	80046dc <uart_print+0x20>
}
 80046e8:	bf00      	nop
 80046ea:	bf00      	nop
 80046ec:	370c      	adds	r7, #12
 80046ee:	46bd      	mov	sp, r7
 80046f0:	bc80      	pop	{r7}
 80046f2:	4770      	bx	lr
 80046f4:	40004800 	.word	0x40004800

080046f8 <uart_print_str>:
void uart_print_str(const char *str)
{
 80046f8:	b580      	push	{r7, lr}
 80046fa:	b082      	sub	sp, #8
 80046fc:	af00      	add	r7, sp, #0
 80046fe:	6078      	str	r0, [r7, #4]
    while (*str) {
 8004700:	e006      	b.n	8004710 <uart_print_str+0x18>
    	uart_print(*str++);
 8004702:	687b      	ldr	r3, [r7, #4]
 8004704:	1c5a      	adds	r2, r3, #1
 8004706:	607a      	str	r2, [r7, #4]
 8004708:	781b      	ldrb	r3, [r3, #0]
 800470a:	4618      	mov	r0, r3
 800470c:	f7ff ffd6 	bl	80046bc <uart_print>
    while (*str) {
 8004710:	687b      	ldr	r3, [r7, #4]
 8004712:	781b      	ldrb	r3, [r3, #0]
 8004714:	2b00      	cmp	r3, #0
 8004716:	d1f4      	bne.n	8004702 <uart_print_str+0xa>
    }
}
 8004718:	bf00      	nop
 800471a:	bf00      	nop
 800471c:	3708      	adds	r7, #8
 800471e:	46bd      	mov	sp, r7
 8004720:	bd80      	pop	{r7, pc}
	...

08004724 <uart_send_double>:
void uart_send_double(double value, uint8_t decimal_places)
{
 8004724:	b5b0      	push	{r4, r5, r7, lr}
 8004726:	b09c      	sub	sp, #112	@ 0x70
 8004728:	af00      	add	r7, sp, #0
 800472a:	e9c7 0102 	strd	r0, r1, [r7, #8]
 800472e:	4613      	mov	r3, r2
 8004730:	71fb      	strb	r3, [r7, #7]
    char buf[32]; // Larger buffer for double
    int i = 0;
 8004732:	2300      	movs	r3, #0
 8004734:	66fb      	str	r3, [r7, #108]	@ 0x6c

    // Handle negative
    if (value < 0) {
 8004736:	f04f 0200 	mov.w	r2, #0
 800473a:	f04f 0300 	mov.w	r3, #0
 800473e:	e9d7 0102 	ldrd	r0, r1, [r7, #8]
 8004742:	f7fc f84b 	bl	80007dc <__aeabi_dcmplt>
 8004746:	4603      	mov	r3, r0
 8004748:	2b00      	cmp	r3, #0
 800474a:	d00d      	beq.n	8004768 <uart_send_double+0x44>
        buf[i++] = '-';
 800474c:	6efb      	ldr	r3, [r7, #108]	@ 0x6c
 800474e:	1c5a      	adds	r2, r3, #1
 8004750:	66fa      	str	r2, [r7, #108]	@ 0x6c
 8004752:	3370      	adds	r3, #112	@ 0x70
 8004754:	443b      	add	r3, r7
 8004756:	222d      	movs	r2, #45	@ 0x2d
 8004758:	f803 2c4c 	strb.w	r2, [r3, #-76]
        value = -value;
 800475c:	68bc      	ldr	r4, [r7, #8]
 800475e:	68fb      	ldr	r3, [r7, #12]
 8004760:	f083 4500 	eor.w	r5, r3, #2147483648	@ 0x80000000
 8004764:	e9c7 4502 	strd	r4, r5, [r7, #8]
    }

    // Integer part
    long long int_part = (long long)value;
 8004768:	e9d7 0102 	ldrd	r0, r1, [r7, #8]
 800476c:	f7fc fbaa 	bl	8000ec4 <__aeabi_d2lz>
 8004770:	4602      	mov	r2, r0
 8004772:	460b      	mov	r3, r1
 8004774:	e9c7 2318 	strd	r2, r3, [r7, #96]	@ 0x60
    double frac = value - (double)int_part;
 8004778:	e9d7 0118 	ldrd	r0, r1, [r7, #96]	@ 0x60
 800477c:	f7fb ffa0 	bl	80006c0 <__aeabi_l2d>
 8004780:	4602      	mov	r2, r0
 8004782:	460b      	mov	r3, r1
 8004784:	e9d7 0102 	ldrd	r0, r1, [r7, #8]
 8004788:	f7fb fe10 	bl	80003ac <__aeabi_dsub>
 800478c:	4602      	mov	r2, r0
 800478e:	460b      	mov	r3, r1
 8004790:	e9c7 2316 	strd	r2, r3, [r7, #88]	@ 0x58

    // Convert integer part to string
    char int_buf[20];
    int j = 0;
 8004794:	2300      	movs	r3, #0
 8004796:	657b      	str	r3, [r7, #84]	@ 0x54
    do {
        int_buf[j++] = '0' + (int_part % 10);
 8004798:	e9d7 0118 	ldrd	r0, r1, [r7, #96]	@ 0x60
 800479c:	f04f 020a 	mov.w	r2, #10
 80047a0:	f04f 0300 	mov.w	r3, #0
 80047a4:	f7fc fb3e 	bl	8000e24 <__aeabi_ldivmod>
 80047a8:	b2d2      	uxtb	r2, r2
 80047aa:	6d7b      	ldr	r3, [r7, #84]	@ 0x54
 80047ac:	1c59      	adds	r1, r3, #1
 80047ae:	6579      	str	r1, [r7, #84]	@ 0x54
 80047b0:	3230      	adds	r2, #48	@ 0x30
 80047b2:	b2d2      	uxtb	r2, r2
 80047b4:	3370      	adds	r3, #112	@ 0x70
 80047b6:	443b      	add	r3, r7
 80047b8:	f803 2c60 	strb.w	r2, [r3, #-96]
        int_part /= 10;
 80047bc:	e9d7 0118 	ldrd	r0, r1, [r7, #96]	@ 0x60
 80047c0:	f04f 020a 	mov.w	r2, #10
 80047c4:	f04f 0300 	mov.w	r3, #0
 80047c8:	f7fc fb2c 	bl	8000e24 <__aeabi_ldivmod>
 80047cc:	4602      	mov	r2, r0
 80047ce:	460b      	mov	r3, r1
 80047d0:	e9c7 2318 	strd	r2, r3, [r7, #96]	@ 0x60
    } while (int_part > 0);
 80047d4:	e9d7 2318 	ldrd	r2, r3, [r7, #96]	@ 0x60
 80047d8:	2a01      	cmp	r2, #1
 80047da:	f173 0300 	sbcs.w	r3, r3, #0
 80047de:	dadb      	bge.n	8004798 <uart_send_double+0x74>

    // Reverse digits into buf
    for (int k = j - 1; k >= 0; k--) {
 80047e0:	6d7b      	ldr	r3, [r7, #84]	@ 0x54
 80047e2:	3b01      	subs	r3, #1
 80047e4:	653b      	str	r3, [r7, #80]	@ 0x50
 80047e6:	e00e      	b.n	8004806 <uart_send_double+0xe2>
        buf[i++] = int_buf[k];
 80047e8:	6efb      	ldr	r3, [r7, #108]	@ 0x6c
 80047ea:	1c5a      	adds	r2, r3, #1
 80047ec:	66fa      	str	r2, [r7, #108]	@ 0x6c
 80047ee:	f107 0110 	add.w	r1, r7, #16
 80047f2:	6d3a      	ldr	r2, [r7, #80]	@ 0x50
 80047f4:	440a      	add	r2, r1
 80047f6:	7812      	ldrb	r2, [r2, #0]
 80047f8:	3370      	adds	r3, #112	@ 0x70
 80047fa:	443b      	add	r3, r7
 80047fc:	f803 2c4c 	strb.w	r2, [r3, #-76]
    for (int k = j - 1; k >= 0; k--) {
 8004800:	6d3b      	ldr	r3, [r7, #80]	@ 0x50
 8004802:	3b01      	subs	r3, #1
 8004804:	653b      	str	r3, [r7, #80]	@ 0x50
 8004806:	6d3b      	ldr	r3, [r7, #80]	@ 0x50
 8004808:	2b00      	cmp	r3, #0
 800480a:	daed      	bge.n	80047e8 <uart_send_double+0xc4>
    }

    buf[i++] = '.'; // decimal point
 800480c:	6efb      	ldr	r3, [r7, #108]	@ 0x6c
 800480e:	1c5a      	adds	r2, r3, #1
 8004810:	66fa      	str	r2, [r7, #108]	@ 0x6c
 8004812:	3370      	adds	r3, #112	@ 0x70
 8004814:	443b      	add	r3, r7
 8004816:	222e      	movs	r2, #46	@ 0x2e
 8004818:	f803 2c4c 	strb.w	r2, [r3, #-76]

    // Fractional part
    for (int k = 0; k < decimal_places; k++) {
 800481c:	2300      	movs	r3, #0
 800481e:	64fb      	str	r3, [r7, #76]	@ 0x4c
 8004820:	e02b      	b.n	800487a <uart_send_double+0x156>
        frac *= 10;
 8004822:	f04f 0200 	mov.w	r2, #0
 8004826:	4b22      	ldr	r3, [pc, #136]	@ (80048b0 <uart_send_double+0x18c>)
 8004828:	e9d7 0116 	ldrd	r0, r1, [r7, #88]	@ 0x58
 800482c:	f7fb fc90 	bl	8000150 <__aeabi_dmul>
 8004830:	4602      	mov	r2, r0
 8004832:	460b      	mov	r3, r1
 8004834:	e9c7 2316 	strd	r2, r3, [r7, #88]	@ 0x58
        int digit = (int)frac;
 8004838:	e9d7 0116 	ldrd	r0, r1, [r7, #88]	@ 0x58
 800483c:	f7fb fff6 	bl	800082c <__aeabi_d2iz>
 8004840:	4603      	mov	r3, r0
 8004842:	647b      	str	r3, [r7, #68]	@ 0x44
        buf[i++] = '0' + digit;
 8004844:	6c7b      	ldr	r3, [r7, #68]	@ 0x44
 8004846:	b2da      	uxtb	r2, r3
 8004848:	6efb      	ldr	r3, [r7, #108]	@ 0x6c
 800484a:	1c59      	adds	r1, r3, #1
 800484c:	66f9      	str	r1, [r7, #108]	@ 0x6c
 800484e:	3230      	adds	r2, #48	@ 0x30
 8004850:	b2d2      	uxtb	r2, r2
 8004852:	3370      	adds	r3, #112	@ 0x70
 8004854:	443b      	add	r3, r7
 8004856:	f803 2c4c 	strb.w	r2, [r3, #-76]
        frac -= digit;
 800485a:	6c78      	ldr	r0, [r7, #68]	@ 0x44
 800485c:	f7fb fef4 	bl	8000648 <__aeabi_i2d>
 8004860:	4602      	mov	r2, r0
 8004862:	460b      	mov	r3, r1
 8004864:	e9d7 0116 	ldrd	r0, r1, [r7, #88]	@ 0x58
 8004868:	f7fb fda0 	bl	80003ac <__aeabi_dsub>
 800486c:	4602      	mov	r2, r0
 800486e:	460b      	mov	r3, r1
 8004870:	e9c7 2316 	strd	r2, r3, [r7, #88]	@ 0x58
    for (int k = 0; k < decimal_places; k++) {
 8004874:	6cfb      	ldr	r3, [r7, #76]	@ 0x4c
 8004876:	3301      	adds	r3, #1
 8004878:	64fb      	str	r3, [r7, #76]	@ 0x4c
 800487a:	79fb      	ldrb	r3, [r7, #7]
 800487c:	6cfa      	ldr	r2, [r7, #76]	@ 0x4c
 800487e:	429a      	cmp	r2, r3
 8004880:	dbcf      	blt.n	8004822 <uart_send_double+0xfe>
    }

    // Send string over UART
    for (int k = 0; k < i; k++) {
 8004882:	2300      	movs	r3, #0
 8004884:	64bb      	str	r3, [r7, #72]	@ 0x48
 8004886:	e00a      	b.n	800489e <uart_send_double+0x17a>
    	uart_print(buf[k]);
 8004888:	f107 0224 	add.w	r2, r7, #36	@ 0x24
 800488c:	6cbb      	ldr	r3, [r7, #72]	@ 0x48
 800488e:	4413      	add	r3, r2
 8004890:	781b      	ldrb	r3, [r3, #0]
 8004892:	4618      	mov	r0, r3
 8004894:	f7ff ff12 	bl	80046bc <uart_print>
    for (int k = 0; k < i; k++) {
 8004898:	6cbb      	ldr	r3, [r7, #72]	@ 0x48
 800489a:	3301      	adds	r3, #1
 800489c:	64bb      	str	r3, [r7, #72]	@ 0x48
 800489e:	6cba      	ldr	r2, [r7, #72]	@ 0x48
 80048a0:	6efb      	ldr	r3, [r7, #108]	@ 0x6c
 80048a2:	429a      	cmp	r2, r3
 80048a4:	dbf0      	blt.n	8004888 <uart_send_double+0x164>
    }
}
 80048a6:	bf00      	nop
 80048a8:	bf00      	nop
 80048aa:	3770      	adds	r7, #112	@ 0x70
 80048ac:	46bd      	mov	sp, r7
 80048ae:	bdb0      	pop	{r4, r5, r7, pc}
 80048b0:	40240000 	.word	0x40240000

080048b4 <uart_send1>:
void uart_send1(const uint8_t *buf, size_t len) {
 80048b4:	b480      	push	{r7}
 80048b6:	b085      	sub	sp, #20
 80048b8:	af00      	add	r7, sp, #0
 80048ba:	6078      	str	r0, [r7, #4]
 80048bc:	6039      	str	r1, [r7, #0]
    for (size_t i = 0; i < len; ++i) {
 80048be:	2300      	movs	r3, #0
 80048c0:	60fb      	str	r3, [r7, #12]
 80048c2:	e00f      	b.n	80048e4 <uart_send1+0x30>
        while (!(USART1->SR & (1U << 7))) { /* busy wait */ } // TXE bit
 80048c4:	bf00      	nop
 80048c6:	4b10      	ldr	r3, [pc, #64]	@ (8004908 <uart_send1+0x54>)
 80048c8:	681b      	ldr	r3, [r3, #0]
 80048ca:	f003 0380 	and.w	r3, r3, #128	@ 0x80
 80048ce:	2b00      	cmp	r3, #0
 80048d0:	d0f9      	beq.n	80048c6 <uart_send1+0x12>
        USART1->DR = (uint8_t)buf[i];
 80048d2:	687a      	ldr	r2, [r7, #4]
 80048d4:	68fb      	ldr	r3, [r7, #12]
 80048d6:	4413      	add	r3, r2
 80048d8:	781a      	ldrb	r2, [r3, #0]
 80048da:	4b0b      	ldr	r3, [pc, #44]	@ (8004908 <uart_send1+0x54>)
 80048dc:	605a      	str	r2, [r3, #4]
    for (size_t i = 0; i < len; ++i) {
 80048de:	68fb      	ldr	r3, [r7, #12]
 80048e0:	3301      	adds	r3, #1
 80048e2:	60fb      	str	r3, [r7, #12]
 80048e4:	68fa      	ldr	r2, [r7, #12]
 80048e6:	683b      	ldr	r3, [r7, #0]
 80048e8:	429a      	cmp	r2, r3
 80048ea:	d3eb      	bcc.n	80048c4 <uart_send1+0x10>
    }
    while (!(USART1->SR & (1U << 6))) { /* wait TC */ } // TC bit
 80048ec:	bf00      	nop
 80048ee:	4b06      	ldr	r3, [pc, #24]	@ (8004908 <uart_send1+0x54>)
 80048f0:	681b      	ldr	r3, [r3, #0]
 80048f2:	f003 0340 	and.w	r3, r3, #64	@ 0x40
 80048f6:	2b00      	cmp	r3, #0
 80048f8:	d0f9      	beq.n	80048ee <uart_send1+0x3a>
}
 80048fa:	bf00      	nop
 80048fc:	bf00      	nop
 80048fe:	3714      	adds	r7, #20
 8004900:	46bd      	mov	sp, r7
 8004902:	bc80      	pop	{r7}
 8004904:	4770      	bx	lr
 8004906:	bf00      	nop
 8004908:	40013800 	.word	0x40013800

0800490c <uart_send>:
void uart_send(const uint8_t *buf, size_t len) {
 800490c:	b480      	push	{r7}
 800490e:	b085      	sub	sp, #20
 8004910:	af00      	add	r7, sp, #0
 8004912:	6078      	str	r0, [r7, #4]
 8004914:	6039      	str	r1, [r7, #0]
    for (size_t i = 0; i < len; ++i) {
 8004916:	2300      	movs	r3, #0
 8004918:	60fb      	str	r3, [r7, #12]
 800491a:	e00f      	b.n	800493c <uart_send+0x30>
        // Wait until TXE (transmit data register empty)
        while (!(USART3->SR & (1U << 7))) { /* busy wait */ } // TXE bit
 800491c:	bf00      	nop
 800491e:	4b10      	ldr	r3, [pc, #64]	@ (8004960 <uart_send+0x54>)
 8004920:	681b      	ldr	r3, [r3, #0]
 8004922:	f003 0380 	and.w	r3, r3, #128	@ 0x80
 8004926:	2b00      	cmp	r3, #0
 8004928:	d0f9      	beq.n	800491e <uart_send+0x12>
        // Write data (DR is 8-bit)
        USART3->DR = (uint8_t)buf[i];
 800492a:	687a      	ldr	r2, [r7, #4]
 800492c:	68fb      	ldr	r3, [r7, #12]
 800492e:	4413      	add	r3, r2
 8004930:	781a      	ldrb	r2, [r3, #0]
 8004932:	4b0b      	ldr	r3, [pc, #44]	@ (8004960 <uart_send+0x54>)
 8004934:	605a      	str	r2, [r3, #4]
    for (size_t i = 0; i < len; ++i) {
 8004936:	68fb      	ldr	r3, [r7, #12]
 8004938:	3301      	adds	r3, #1
 800493a:	60fb      	str	r3, [r7, #12]
 800493c:	68fa      	ldr	r2, [r7, #12]
 800493e:	683b      	ldr	r3, [r7, #0]
 8004940:	429a      	cmp	r2, r3
 8004942:	d3eb      	bcc.n	800491c <uart_send+0x10>
    }
    // Optionally wait for TC (transmission complete) if you need to ensure fully shifted out:
    while (!(USART3->SR & (1U << 6))) { /* wait TC */ } // TC bit
 8004944:	bf00      	nop
 8004946:	4b06      	ldr	r3, [pc, #24]	@ (8004960 <uart_send+0x54>)
 8004948:	681b      	ldr	r3, [r3, #0]
 800494a:	f003 0340 	and.w	r3, r3, #64	@ 0x40
 800494e:	2b00      	cmp	r3, #0
 8004950:	d0f9      	beq.n	8004946 <uart_send+0x3a>
}
 8004952:	bf00      	nop
 8004954:	bf00      	nop
 8004956:	3714      	adds	r7, #20
 8004958:	46bd      	mov	sp, r7
 800495a:	bc80      	pop	{r7}
 800495c:	4770      	bx	lr
 800495e:	bf00      	nop
 8004960:	40004800 	.word	0x40004800

08004964 <send_id_data_only_over_uart>:
void send_id_data_only_over_uart(const can_frame_t *f) {
 8004964:	b580      	push	{r7, lr}
 8004966:	b088      	sub	sp, #32
 8004968:	af00      	add	r7, sp, #0
 800496a:	6078      	str	r0, [r7, #4]
    uint8_t buf[13];
    /* send id always as 4 bytes (LE) so ESP32 can read little-endian uint32_t */
    buf[3] = (uint8_t)(f->id & 0xFF);
 800496c:	687b      	ldr	r3, [r7, #4]
 800496e:	681b      	ldr	r3, [r3, #0]
 8004970:	b2db      	uxtb	r3, r3
 8004972:	73fb      	strb	r3, [r7, #15]
    buf[2] = (uint8_t)((f->id >> 8) & 0xFF);
 8004974:	687b      	ldr	r3, [r7, #4]
 8004976:	681b      	ldr	r3, [r3, #0]
 8004978:	0a1b      	lsrs	r3, r3, #8
 800497a:	b2db      	uxtb	r3, r3
 800497c:	73bb      	strb	r3, [r7, #14]
    buf[1] = (uint8_t)((f->id >> 16) & 0xFF);
 800497e:	687b      	ldr	r3, [r7, #4]
 8004980:	681b      	ldr	r3, [r3, #0]
 8004982:	0c1b      	lsrs	r3, r3, #16
 8004984:	b2db      	uxtb	r3, r3
 8004986:	737b      	strb	r3, [r7, #13]
    buf[0] = (uint8_t)((f->id >> 24) & 0xFF);
 8004988:	687b      	ldr	r3, [r7, #4]
 800498a:	681b      	ldr	r3, [r3, #0]
 800498c:	0e1b      	lsrs	r3, r3, #24
 800498e:	b2db      	uxtb	r3, r3
 8004990:	733b      	strb	r3, [r7, #12]
    buf[4] = f->dlc;
 8004992:	687b      	ldr	r3, [r7, #4]
 8004994:	799b      	ldrb	r3, [r3, #6]
 8004996:	743b      	strb	r3, [r7, #16]
    /* copy 8 data bytes (if dlc<8 you still send 8 bytes - zeros ok) */
    for (int i = 0; i < 8; ++i) buf[5 + i] = f->data[i];
 8004998:	2300      	movs	r3, #0
 800499a:	61fb      	str	r3, [r7, #28]
 800499c:	e00d      	b.n	80049ba <send_id_data_only_over_uart+0x56>
 800499e:	69fb      	ldr	r3, [r7, #28]
 80049a0:	3305      	adds	r3, #5
 80049a2:	6879      	ldr	r1, [r7, #4]
 80049a4:	69fa      	ldr	r2, [r7, #28]
 80049a6:	440a      	add	r2, r1
 80049a8:	3207      	adds	r2, #7
 80049aa:	7812      	ldrb	r2, [r2, #0]
 80049ac:	3320      	adds	r3, #32
 80049ae:	443b      	add	r3, r7
 80049b0:	f803 2c14 	strb.w	r2, [r3, #-20]
 80049b4:	69fb      	ldr	r3, [r7, #28]
 80049b6:	3301      	adds	r3, #1
 80049b8:	61fb      	str	r3, [r7, #28]
 80049ba:	69fb      	ldr	r3, [r7, #28]
 80049bc:	2b07      	cmp	r3, #7
 80049be:	ddee      	ble.n	800499e <send_id_data_only_over_uart+0x3a>
    uart_send1(buf, sizeof(buf)); // 13 bytes
 80049c0:	f107 030c 	add.w	r3, r7, #12
 80049c4:	210d      	movs	r1, #13
 80049c6:	4618      	mov	r0, r3
 80049c8:	f7ff ff74 	bl	80048b4 <uart_send1>
}
 80049cc:	bf00      	nop
 80049ce:	3720      	adds	r7, #32
 80049d0:	46bd      	mov	sp, r7
 80049d2:	bd80      	pop	{r7, pc}

080049d4 <uart_printf>:
void uart_printf(const char *format, ...)
{
 80049d4:	b40f      	push	{r0, r1, r2, r3}
 80049d6:	b580      	push	{r7, lr}
 80049d8:	b0c2      	sub	sp, #264	@ 0x108
 80049da:	af00      	add	r7, sp, #0
    char buf[256];
    va_list ap;
    va_start(ap, format);
 80049dc:	f507 728a 	add.w	r2, r7, #276	@ 0x114
 80049e0:	f507 7384 	add.w	r3, r7, #264	@ 0x108
 80049e4:	f5a3 7384 	sub.w	r3, r3, #264	@ 0x108
 80049e8:	601a      	str	r2, [r3, #0]
    int n = vsnprintf(buf, sizeof(buf), format, ap);
 80049ea:	f507 7384 	add.w	r3, r7, #264	@ 0x108
 80049ee:	f5a3 7384 	sub.w	r3, r3, #264	@ 0x108
 80049f2:	1d38      	adds	r0, r7, #4
 80049f4:	681b      	ldr	r3, [r3, #0]
 80049f6:	f8d7 2110 	ldr.w	r2, [r7, #272]	@ 0x110
 80049fa:	f44f 7180 	mov.w	r1, #256	@ 0x100
 80049fe:	f002 faaf 	bl	8006f60 <vsniprintf>
 8004a02:	f8c7 0104 	str.w	r0, [r7, #260]	@ 0x104
    va_end(ap);
    if (n > 0) {
 8004a06:	f8d7 3104 	ldr.w	r3, [r7, #260]	@ 0x104
 8004a0a:	2b00      	cmp	r3, #0
 8004a0c:	dd0f      	ble.n	8004a2e <uart_printf+0x5a>
        if ((size_t)n > sizeof(buf)) n = sizeof(buf);
 8004a0e:	f8d7 3104 	ldr.w	r3, [r7, #260]	@ 0x104
 8004a12:	f5b3 7f80 	cmp.w	r3, #256	@ 0x100
 8004a16:	d903      	bls.n	8004a20 <uart_printf+0x4c>
 8004a18:	f44f 7380 	mov.w	r3, #256	@ 0x100
 8004a1c:	f8c7 3104 	str.w	r3, [r7, #260]	@ 0x104
        uart_send(buf, (size_t)n);
 8004a20:	f8d7 2104 	ldr.w	r2, [r7, #260]	@ 0x104
 8004a24:	1d3b      	adds	r3, r7, #4
 8004a26:	4611      	mov	r1, r2
 8004a28:	4618      	mov	r0, r3
 8004a2a:	f7ff ff6f 	bl	800490c <uart_send>
    }
}
 8004a2e:	bf00      	nop
 8004a30:	f507 7784 	add.w	r7, r7, #264	@ 0x108
 8004a34:	46bd      	mov	sp, r7
 8004a36:	e8bd 4080 	ldmia.w	sp!, {r7, lr}
 8004a3a:	b004      	add	sp, #16
 8004a3c:	4770      	bx	lr
	...

08004a40 <Reset_Handler>:
 8004a40:	f7ff fc84 	bl	800434c <SystemInit>
 8004a44:	480b      	ldr	r0, [pc, #44]	@ (8004a74 <LoopFillZerobss+0xe>)
 8004a46:	490c      	ldr	r1, [pc, #48]	@ (8004a78 <LoopFillZerobss+0x12>)
 8004a48:	4a0c      	ldr	r2, [pc, #48]	@ (8004a7c <LoopFillZerobss+0x16>)
 8004a4a:	2300      	movs	r3, #0
 8004a4c:	e002      	b.n	8004a54 <LoopCopyDataInit>

08004a4e <CopyDataInit>:
 8004a4e:	58d4      	ldr	r4, [r2, r3]
 8004a50:	50c4      	str	r4, [r0, r3]
 8004a52:	3304      	adds	r3, #4

08004a54 <LoopCopyDataInit>:
 8004a54:	18c4      	adds	r4, r0, r3
 8004a56:	428c      	cmp	r4, r1
 8004a58:	d3f9      	bcc.n	8004a4e <CopyDataInit>
 8004a5a:	4a09      	ldr	r2, [pc, #36]	@ (8004a80 <LoopFillZerobss+0x1a>)
 8004a5c:	4c09      	ldr	r4, [pc, #36]	@ (8004a84 <LoopFillZerobss+0x1e>)
 8004a5e:	2300      	movs	r3, #0
 8004a60:	e001      	b.n	8004a66 <LoopFillZerobss>

08004a62 <FillZerobss>:
 8004a62:	6013      	str	r3, [r2, #0]
 8004a64:	3204      	adds	r2, #4

08004a66 <LoopFillZerobss>:
 8004a66:	42a2      	cmp	r2, r4
 8004a68:	d3fb      	bcc.n	8004a62 <FillZerobss>
 8004a6a:	f002 fa8d 	bl	8006f88 <__libc_init_array>
 8004a6e:	f7ff f8c3 	bl	8003bf8 <main>
 8004a72:	4770      	bx	lr
 8004a74:	20000000 	.word	0x20000000
 8004a78:	2000007c 	.word	0x2000007c
 8004a7c:	08008520 	.word	0x08008520
 8004a80:	20000080 	.word	0x20000080
 8004a84:	200005cc 	.word	0x200005cc

08004a88 <ADC1_2_IRQHandler>:
 8004a88:	e7fe      	b.n	8004a88 <ADC1_2_IRQHandler>
	...

08004a8c <HAL_Init>:
 8004a8c:	b580      	push	{r7, lr}
 8004a8e:	af00      	add	r7, sp, #0
 8004a90:	4b08      	ldr	r3, [pc, #32]	@ (8004ab4 <HAL_Init+0x28>)
 8004a92:	681b      	ldr	r3, [r3, #0]
 8004a94:	4a07      	ldr	r2, [pc, #28]	@ (8004ab4 <HAL_Init+0x28>)
 8004a96:	f043 0310 	orr.w	r3, r3, #16
 8004a9a:	6013      	str	r3, [r2, #0]
 8004a9c:	2003      	movs	r0, #3
 8004a9e:	f000 f919 	bl	8004cd4 <HAL_NVIC_SetPriorityGrouping>
 8004aa2:	200f      	movs	r0, #15
 8004aa4:	f000 f808 	bl	8004ab8 <HAL_InitTick>
 8004aa8:	f7ff fa18 	bl	8003edc <HAL_MspInit>
 8004aac:	2300      	movs	r3, #0
 8004aae:	4618      	mov	r0, r3
 8004ab0:	bd80      	pop	{r7, pc}
 8004ab2:	bf00      	nop
 8004ab4:	40022000 	.word	0x40022000

08004ab8 <HAL_InitTick>:
 8004ab8:	b580      	push	{r7, lr}
 8004aba:	b082      	sub	sp, #8
 8004abc:	af00      	add	r7, sp, #0
 8004abe:	6078      	str	r0, [r7, #4]
 8004ac0:	4b12      	ldr	r3, [pc, #72]	@ (8004b0c <HAL_InitTick+0x54>)
 8004ac2:	681a      	ldr	r2, [r3, #0]
 8004ac4:	4b12      	ldr	r3, [pc, #72]	@ (8004b10 <HAL_InitTick+0x58>)
 8004ac6:	781b      	ldrb	r3, [r3, #0]
 8004ac8:	4619      	mov	r1, r3
 8004aca:	f44f 737a 	mov.w	r3, #1000	@ 0x3e8
 8004ace:	fbb3 f3f1 	udiv	r3, r3, r1
 8004ad2:	fbb2 f3f3 	udiv	r3, r2, r3
 8004ad6:	4618      	mov	r0, r3
 8004ad8:	f000 f931 	bl	8004d3e <HAL_SYSTICK_Config>
 8004adc:	4603      	mov	r3, r0
 8004ade:	2b00      	cmp	r3, #0
 8004ae0:	d001      	beq.n	8004ae6 <HAL_InitTick+0x2e>
 8004ae2:	2301      	movs	r3, #1
 8004ae4:	e00e      	b.n	8004b04 <HAL_InitTick+0x4c>
 8004ae6:	687b      	ldr	r3, [r7, #4]
 8004ae8:	2b0f      	cmp	r3, #15
 8004aea:	d80a      	bhi.n	8004b02 <HAL_InitTick+0x4a>
 8004aec:	2200      	movs	r2, #0
 8004aee:	6879      	ldr	r1, [r7, #4]
 8004af0:	f04f 30ff 	mov.w	r0, #4294967295
 8004af4:	f000 f8f9 	bl	8004cea <HAL_NVIC_SetPriority>
 8004af8:	4a06      	ldr	r2, [pc, #24]	@ (8004b14 <HAL_InitTick+0x5c>)
 8004afa:	687b      	ldr	r3, [r7, #4]
 8004afc:	6013      	str	r3, [r2, #0]
 8004afe:	2300      	movs	r3, #0
 8004b00:	e000      	b.n	8004b04 <HAL_InitTick+0x4c>
 8004b02:	2301      	movs	r3, #1
 8004b04:	4618      	mov	r0, r3
 8004b06:	3708      	adds	r7, #8
 8004b08:	46bd      	mov	sp, r7
 8004b0a:	bd80      	pop	{r7, pc}
 8004b0c:	20000020 	.word	0x20000020
 8004b10:	20000028 	.word	0x20000028
 8004b14:	20000024 	.word	0x20000024

08004b18 <HAL_IncTick>:
 8004b18:	b480      	push	{r7}
 8004b1a:	af00      	add	r7, sp, #0
 8004b1c:	4b05      	ldr	r3, [pc, #20]	@ (8004b34 <HAL_IncTick+0x1c>)
 8004b1e:	781b      	ldrb	r3, [r3, #0]
 8004b20:	461a      	mov	r2, r3
 8004b22:	4b05      	ldr	r3, [pc, #20]	@ (8004b38 <HAL_IncTick+0x20>)
 8004b24:	681b      	ldr	r3, [r3, #0]
 8004b26:	4413      	add	r3, r2
 8004b28:	4a03      	ldr	r2, [pc, #12]	@ (8004b38 <HAL_IncTick+0x20>)
 8004b2a:	6013      	str	r3, [r2, #0]
 8004b2c:	bf00      	nop
 8004b2e:	46bd      	mov	sp, r7
 8004b30:	bc80      	pop	{r7}
 8004b32:	4770      	bx	lr
 8004b34:	20000028 	.word	0x20000028
 8004b38:	20000480 	.word	0x20000480

08004b3c <__NVIC_SetPriorityGrouping>:
 8004b3c:	b480      	push	{r7}
 8004b3e:	b085      	sub	sp, #20
 8004b40:	af00      	add	r7, sp, #0
 8004b42:	6078      	str	r0, [r7, #4]
 8004b44:	687b      	ldr	r3, [r7, #4]
 8004b46:	f003 0307 	and.w	r3, r3, #7
 8004b4a:	60fb      	str	r3, [r7, #12]
 8004b4c:	4b0c      	ldr	r3, [pc, #48]	@ (8004b80 <__NVIC_SetPriorityGrouping+0x44>)
 8004b4e:	68db      	ldr	r3, [r3, #12]
 8004b50:	60bb      	str	r3, [r7, #8]
 8004b52:	68ba      	ldr	r2, [r7, #8]
 8004b54:	f64f 03ff 	movw	r3, #63743	@ 0xf8ff
 8004b58:	4013      	ands	r3, r2
 8004b5a:	60bb      	str	r3, [r7, #8]
 8004b5c:	68fb      	ldr	r3, [r7, #12]
 8004b5e:	021a      	lsls	r2, r3, #8
 8004b60:	68bb      	ldr	r3, [r7, #8]
 8004b62:	4313      	orrs	r3, r2
 8004b64:	f043 63bf 	orr.w	r3, r3, #100139008	@ 0x5f80000
 8004b68:	f443 3300 	orr.w	r3, r3, #131072	@ 0x20000
 8004b6c:	60bb      	str	r3, [r7, #8]
 8004b6e:	4a04      	ldr	r2, [pc, #16]	@ (8004b80 <__NVIC_SetPriorityGrouping+0x44>)
 8004b70:	68bb      	ldr	r3, [r7, #8]
 8004b72:	60d3      	str	r3, [r2, #12]
 8004b74:	bf00      	nop
 8004b76:	3714      	adds	r7, #20
 8004b78:	46bd      	mov	sp, r7
 8004b7a:	bc80      	pop	{r7}
 8004b7c:	4770      	bx	lr
 8004b7e:	bf00      	nop
 8004b80:	e000ed00 	.word	0xe000ed00

08004b84 <__NVIC_GetPriorityGrouping>:
 8004b84:	b480      	push	{r7}
 8004b86:	af00      	add	r7, sp, #0
 8004b88:	4b04      	ldr	r3, [pc, #16]	@ (8004b9c <__NVIC_GetPriorityGrouping+0x18>)
 8004b8a:	68db      	ldr	r3, [r3, #12]
 8004b8c:	0a1b      	lsrs	r3, r3, #8
 8004b8e:	f003 0307 	and.w	r3, r3, #7
 8004b92:	4618      	mov	r0, r3
 8004b94:	46bd      	mov	sp, r7
 8004b96:	bc80      	pop	{r7}
 8004b98:	4770      	bx	lr
 8004b9a:	bf00      	nop
 8004b9c:	e000ed00 	.word	0xe000ed00

08004ba0 <__NVIC_EnableIRQ>:
 8004ba0:	b480      	push	{r7}
 8004ba2:	b083      	sub	sp, #12
 8004ba4:	af00      	add	r7, sp, #0
 8004ba6:	4603      	mov	r3, r0
 8004ba8:	71fb      	strb	r3, [r7, #7]
 8004baa:	f997 3007 	ldrsb.w	r3, [r7, #7]
 8004bae:	2b00      	cmp	r3, #0
 8004bb0:	db0b      	blt.n	8004bca <__NVIC_EnableIRQ+0x2a>
 8004bb2:	79fb      	ldrb	r3, [r7, #7]
 8004bb4:	f003 021f 	and.w	r2, r3, #31
 8004bb8:	4906      	ldr	r1, [pc, #24]	@ (8004bd4 <__NVIC_EnableIRQ+0x34>)
 8004bba:	f997 3007 	ldrsb.w	r3, [r7, #7]
 8004bbe:	095b      	lsrs	r3, r3, #5
 8004bc0:	2001      	movs	r0, #1
 8004bc2:	fa00 f202 	lsl.w	r2, r0, r2
 8004bc6:	f841 2023 	str.w	r2, [r1, r3, lsl #2]
 8004bca:	bf00      	nop
 8004bcc:	370c      	adds	r7, #12
 8004bce:	46bd      	mov	sp, r7
 8004bd0:	bc80      	pop	{r7}
 8004bd2:	4770      	bx	lr
 8004bd4:	e000e100 	.word	0xe000e100

08004bd8 <__NVIC_SetPriority>:
 8004bd8:	b480      	push	{r7}
 8004bda:	b083      	sub	sp, #12
 8004bdc:	af00      	add	r7, sp, #0
 8004bde:	4603      	mov	r3, r0
 8004be0:	6039      	str	r1, [r7, #0]
 8004be2:	71fb      	strb	r3, [r7, #7]
 8004be4:	f997 3007 	ldrsb.w	r3, [r7, #7]
 8004be8:	2b00      	cmp	r3, #0
 8004bea:	db0a      	blt.n	8004c02 <__NVIC_SetPriority+0x2a>
 8004bec:	683b      	ldr	r3, [r7, #0]
 8004bee:	b2da      	uxtb	r2, r3
 8004bf0:	490c      	ldr	r1, [pc, #48]	@ (8004c24 <__NVIC_SetPriority+0x4c>)
 8004bf2:	f997 3007 	ldrsb.w	r3, [r7, #7]
 8004bf6:	0112      	lsls	r2, r2, #4
 8004bf8:	b2d2      	uxtb	r2, r2
 8004bfa:	440b      	add	r3, r1
 8004bfc:	f883 2300 	strb.w	r2, [r3, #768]	@ 0x300
 8004c00:	e00a      	b.n	8004c18 <__NVIC_SetPriority+0x40>
 8004c02:	683b      	ldr	r3, [r7, #0]
 8004c04:	b2da      	uxtb	r2, r3
 8004c06:	4908      	ldr	r1, [pc, #32]	@ (8004c28 <__NVIC_SetPriority+0x50>)
 8004c08:	79fb      	ldrb	r3, [r7, #7]
 8004c0a:	f003 030f 	and.w	r3, r3, #15
 8004c0e:	3b04      	subs	r3, #4
 8004c10:	0112      	lsls	r2, r2, #4
 8004c12:	b2d2      	uxtb	r2, r2
 8004c14:	440b      	add	r3, r1
 8004c16:	761a      	strb	r2, [r3, #24]
 8004c18:	bf00      	nop
 8004c1a:	370c      	adds	r7, #12
 8004c1c:	46bd      	mov	sp, r7
 8004c1e:	bc80      	pop	{r7}
 8004c20:	4770      	bx	lr
 8004c22:	bf00      	nop
 8004c24:	e000e100 	.word	0xe000e100
 8004c28:	e000ed00 	.word	0xe000ed00

08004c2c <NVIC_EncodePriority>:
 8004c2c:	b480      	push	{r7}
 8004c2e:	b089      	sub	sp, #36	@ 0x24
 8004c30:	af00      	add	r7, sp, #0
 8004c32:	60f8      	str	r0, [r7, #12]
 8004c34:	60b9      	str	r1, [r7, #8]
 8004c36:	607a      	str	r2, [r7, #4]
 8004c38:	68fb      	ldr	r3, [r7, #12]
 8004c3a:	f003 0307 	and.w	r3, r3, #7
 8004c3e:	61fb      	str	r3, [r7, #28]
 8004c40:	69fb      	ldr	r3, [r7, #28]
 8004c42:	f1c3 0307 	rsb	r3, r3, #7
 8004c46:	2b04      	cmp	r3, #4
 8004c48:	bf28      	it	cs
 8004c4a:	2304      	movcs	r3, #4
 8004c4c:	61bb      	str	r3, [r7, #24]
 8004c4e:	69fb      	ldr	r3, [r7, #28]
 8004c50:	3304      	adds	r3, #4
 8004c52:	2b06      	cmp	r3, #6
 8004c54:	d902      	bls.n	8004c5c <NVIC_EncodePriority+0x30>
 8004c56:	69fb      	ldr	r3, [r7, #28]
 8004c58:	3b03      	subs	r3, #3
 8004c5a:	e000      	b.n	8004c5e <NVIC_EncodePriority+0x32>
 8004c5c:	2300      	movs	r3, #0
 8004c5e:	617b      	str	r3, [r7, #20]
 8004c60:	f04f 32ff 	mov.w	r2, #4294967295
 8004c64:	69bb      	ldr	r3, [r7, #24]
 8004c66:	fa02 f303 	lsl.w	r3, r2, r3
 8004c6a:	43da      	mvns	r2, r3
 8004c6c:	68bb      	ldr	r3, [r7, #8]
 8004c6e:	401a      	ands	r2, r3
 8004c70:	697b      	ldr	r3, [r7, #20]
 8004c72:	409a      	lsls	r2, r3
 8004c74:	f04f 31ff 	mov.w	r1, #4294967295
 8004c78:	697b      	ldr	r3, [r7, #20]
 8004c7a:	fa01 f303 	lsl.w	r3, r1, r3
 8004c7e:	43d9      	mvns	r1, r3
 8004c80:	687b      	ldr	r3, [r7, #4]
 8004c82:	400b      	ands	r3, r1
 8004c84:	4313      	orrs	r3, r2
 8004c86:	4618      	mov	r0, r3
 8004c88:	3724      	adds	r7, #36	@ 0x24
 8004c8a:	46bd      	mov	sp, r7
 8004c8c:	bc80      	pop	{r7}
 8004c8e:	4770      	bx	lr

08004c90 <SysTick_Config>:
 8004c90:	b580      	push	{r7, lr}
 8004c92:	b082      	sub	sp, #8
 8004c94:	af00      	add	r7, sp, #0
 8004c96:	6078      	str	r0, [r7, #4]
 8004c98:	687b      	ldr	r3, [r7, #4]
 8004c9a:	3b01      	subs	r3, #1
 8004c9c:	f1b3 7f80 	cmp.w	r3, #16777216	@ 0x1000000
 8004ca0:	d301      	bcc.n	8004ca6 <SysTick_Config+0x16>
 8004ca2:	2301      	movs	r3, #1
 8004ca4:	e00f      	b.n	8004cc6 <SysTick_Config+0x36>
 8004ca6:	4a0a      	ldr	r2, [pc, #40]	@ (8004cd0 <SysTick_Config+0x40>)
 8004ca8:	687b      	ldr	r3, [r7, #4]
 8004caa:	3b01      	subs	r3, #1
 8004cac:	6053      	str	r3, [r2, #4]
 8004cae:	210f      	movs	r1, #15
 8004cb0:	f04f 30ff 	mov.w	r0, #4294967295
 8004cb4:	f7ff ff90 	bl	8004bd8 <__NVIC_SetPriority>
 8004cb8:	4b05      	ldr	r3, [pc, #20]	@ (8004cd0 <SysTick_Config+0x40>)
 8004cba:	2200      	movs	r2, #0
 8004cbc:	609a      	str	r2, [r3, #8]
 8004cbe:	4b04      	ldr	r3, [pc, #16]	@ (8004cd0 <SysTick_Config+0x40>)
 8004cc0:	2207      	movs	r2, #7
 8004cc2:	601a      	str	r2, [r3, #0]
 8004cc4:	2300      	movs	r3, #0
 8004cc6:	4618      	mov	r0, r3
 8004cc8:	3708      	adds	r7, #8
 8004cca:	46bd      	mov	sp, r7
 8004ccc:	bd80      	pop	{r7, pc}
 8004cce:	bf00      	nop
 8004cd0:	e000e010 	.word	0xe000e010

08004cd4 <HAL_NVIC_SetPriorityGrouping>:
 8004cd4:	b580      	push	{r7, lr}
 8004cd6:	b082      	sub	sp, #8
 8004cd8:	af00      	add	r7, sp, #0
 8004cda:	6078      	str	r0, [r7, #4]
 8004cdc:	6878      	ldr	r0, [r7, #4]
 8004cde:	f7ff ff2d 	bl	8004b3c <__NVIC_SetPriorityGrouping>
 8004ce2:	bf00      	nop
 8004ce4:	3708      	adds	r7, #8
 8004ce6:	46bd      	mov	sp, r7
 8004ce8:	bd80      	pop	{r7, pc}

08004cea <HAL_NVIC_SetPriority>:
 8004cea:	b580      	push	{r7, lr}
 8004cec:	b086      	sub	sp, #24
 8004cee:	af00      	add	r7, sp, #0
 8004cf0:	4603      	mov	r3, r0
 8004cf2:	60b9      	str	r1, [r7, #8]
 8004cf4:	607a      	str	r2, [r7, #4]
 8004cf6:	73fb      	strb	r3, [r7, #15]
 8004cf8:	2300      	movs	r3, #0
 8004cfa:	617b      	str	r3, [r7, #20]
 8004cfc:	f7ff ff42 	bl	8004b84 <__NVIC_GetPriorityGrouping>
 8004d00:	6178      	str	r0, [r7, #20]
 8004d02:	687a      	ldr	r2, [r7, #4]
 8004d04:	68b9      	ldr	r1, [r7, #8]
 8004d06:	6978      	ldr	r0, [r7, #20]
 8004d08:	f7ff ff90 	bl	8004c2c <NVIC_EncodePriority>
 8004d0c:	4602      	mov	r2, r0
 8004d0e:	f997 300f 	ldrsb.w	r3, [r7, #15]
 8004d12:	4611      	mov	r1, r2
 8004d14:	4618      	mov	r0, r3
 8004d16:	f7ff ff5f 	bl	8004bd8 <__NVIC_SetPriority>
 8004d1a:	bf00      	nop
 8004d1c:	3718      	adds	r7, #24
 8004d1e:	46bd      	mov	sp, r7
 8004d20:	bd80      	pop	{r7, pc}

08004d22 <HAL_NVIC_EnableIRQ>:
 8004d22:	b580      	push	{r7, lr}
 8004d24:	b082      	sub	sp, #8
 8004d26:	af00      	add	r7, sp, #0
 8004d28:	4603      	mov	r3, r0
 8004d2a:	71fb      	strb	r3, [r7, #7]
 8004d2c:	f997 3007 	ldrsb.w	r3, [r7, #7]
 8004d30:	4618      	mov	r0, r3
 8004d32:	f7ff ff35 	bl	8004ba0 <__NVIC_EnableIRQ>
 8004d36:	bf00      	nop
 8004d38:	3708      	adds	r7, #8
 8004d3a:	46bd      	mov	sp, r7
 8004d3c:	bd80      	pop	{r7, pc}

08004d3e <HAL_SYSTICK_Config>:
 8004d3e:	b580      	push	{r7, lr}
 8004d40:	b082      	sub	sp, #8
 8004d42:	af00      	add	r7, sp, #0
 8004d44:	6078      	str	r0, [r7, #4]
 8004d46:	6878      	ldr	r0, [r7, #4]
 8004d48:	f7ff ffa2 	bl	8004c90 <SysTick_Config>
 8004d4c:	4603      	mov	r3, r0
 8004d4e:	4618      	mov	r0, r3
 8004d50:	3708      	adds	r7, #8
 8004d52:	46bd      	mov	sp, r7
 8004d54:	bd80      	pop	{r7, pc}
	...

08004d58 <HAL_DMA_Abort_IT>:
 8004d58:	b580      	push	{r7, lr}
 8004d5a:	b084      	sub	sp, #16
 8004d5c:	af00      	add	r7, sp, #0
 8004d5e:	6078      	str	r0, [r7, #4]
 8004d60:	2300      	movs	r3, #0
 8004d62:	73fb      	strb	r3, [r7, #15]
 8004d64:	687b      	ldr	r3, [r7, #4]
 8004d66:	f893 3021 	ldrb.w	r3, [r3, #33]	@ 0x21
 8004d6a:	b2db      	uxtb	r3, r3
 8004d6c:	2b02      	cmp	r3, #2
 8004d6e:	d005      	beq.n	8004d7c <HAL_DMA_Abort_IT+0x24>
 8004d70:	687b      	ldr	r3, [r7, #4]
 8004d72:	2204      	movs	r2, #4
 8004d74:	639a      	str	r2, [r3, #56]	@ 0x38
 8004d76:	2301      	movs	r3, #1
 8004d78:	73fb      	strb	r3, [r7, #15]
 8004d7a:	e051      	b.n	8004e20 <HAL_DMA_Abort_IT+0xc8>
 8004d7c:	687b      	ldr	r3, [r7, #4]
 8004d7e:	681b      	ldr	r3, [r3, #0]
 8004d80:	681a      	ldr	r2, [r3, #0]
 8004d82:	687b      	ldr	r3, [r7, #4]
 8004d84:	681b      	ldr	r3, [r3, #0]
 8004d86:	f022 020e 	bic.w	r2, r2, #14
 8004d8a:	601a      	str	r2, [r3, #0]
 8004d8c:	687b      	ldr	r3, [r7, #4]
 8004d8e:	681b      	ldr	r3, [r3, #0]
 8004d90:	681a      	ldr	r2, [r3, #0]
 8004d92:	687b      	ldr	r3, [r7, #4]
 8004d94:	681b      	ldr	r3, [r3, #0]
 8004d96:	f022 0201 	bic.w	r2, r2, #1
 8004d9a:	601a      	str	r2, [r3, #0]
 8004d9c:	687b      	ldr	r3, [r7, #4]
 8004d9e:	681b      	ldr	r3, [r3, #0]
 8004da0:	4a22      	ldr	r2, [pc, #136]	@ (8004e2c <HAL_DMA_Abort_IT+0xd4>)
 8004da2:	4293      	cmp	r3, r2
 8004da4:	d029      	beq.n	8004dfa <HAL_DMA_Abort_IT+0xa2>
 8004da6:	687b      	ldr	r3, [r7, #4]
 8004da8:	681b      	ldr	r3, [r3, #0]
 8004daa:	4a21      	ldr	r2, [pc, #132]	@ (8004e30 <HAL_DMA_Abort_IT+0xd8>)
 8004dac:	4293      	cmp	r3, r2
 8004dae:	d022      	beq.n	8004df6 <HAL_DMA_Abort_IT+0x9e>
 8004db0:	687b      	ldr	r3, [r7, #4]
 8004db2:	681b      	ldr	r3, [r3, #0]
 8004db4:	4a1f      	ldr	r2, [pc, #124]	@ (8004e34 <HAL_DMA_Abort_IT+0xdc>)
 8004db6:	4293      	cmp	r3, r2
 8004db8:	d01a      	beq.n	8004df0 <HAL_DMA_Abort_IT+0x98>
 8004dba:	687b      	ldr	r3, [r7, #4]
 8004dbc:	681b      	ldr	r3, [r3, #0]
 8004dbe:	4a1e      	ldr	r2, [pc, #120]	@ (8004e38 <HAL_DMA_Abort_IT+0xe0>)
 8004dc0:	4293      	cmp	r3, r2
 8004dc2:	d012      	beq.n	8004dea <HAL_DMA_Abort_IT+0x92>
 8004dc4:	687b      	ldr	r3, [r7, #4]
 8004dc6:	681b      	ldr	r3, [r3, #0]
 8004dc8:	4a1c      	ldr	r2, [pc, #112]	@ (8004e3c <HAL_DMA_Abort_IT+0xe4>)
 8004dca:	4293      	cmp	r3, r2
 8004dcc:	d00a      	beq.n	8004de4 <HAL_DMA_Abort_IT+0x8c>
 8004dce:	687b      	ldr	r3, [r7, #4]
 8004dd0:	681b      	ldr	r3, [r3, #0]
 8004dd2:	4a1b      	ldr	r2, [pc, #108]	@ (8004e40 <HAL_DMA_Abort_IT+0xe8>)
 8004dd4:	4293      	cmp	r3, r2
 8004dd6:	d102      	bne.n	8004dde <HAL_DMA_Abort_IT+0x86>
 8004dd8:	f44f 1380 	mov.w	r3, #1048576	@ 0x100000
 8004ddc:	e00e      	b.n	8004dfc <HAL_DMA_Abort_IT+0xa4>
 8004dde:	f04f 7380 	mov.w	r3, #16777216	@ 0x1000000
 8004de2:	e00b      	b.n	8004dfc <HAL_DMA_Abort_IT+0xa4>
 8004de4:	f44f 3380 	mov.w	r3, #65536	@ 0x10000
 8004de8:	e008      	b.n	8004dfc <HAL_DMA_Abort_IT+0xa4>
 8004dea:	f44f 5380 	mov.w	r3, #4096	@ 0x1000
 8004dee:	e005      	b.n	8004dfc <HAL_DMA_Abort_IT+0xa4>
 8004df0:	f44f 7380 	mov.w	r3, #256	@ 0x100
 8004df4:	e002      	b.n	8004dfc <HAL_DMA_Abort_IT+0xa4>
 8004df6:	2310      	movs	r3, #16
 8004df8:	e000      	b.n	8004dfc <HAL_DMA_Abort_IT+0xa4>
 8004dfa:	2301      	movs	r3, #1
 8004dfc:	4a11      	ldr	r2, [pc, #68]	@ (8004e44 <HAL_DMA_Abort_IT+0xec>)
 8004dfe:	6053      	str	r3, [r2, #4]
 8004e00:	687b      	ldr	r3, [r7, #4]
 8004e02:	2201      	movs	r2, #1
 8004e04:	f883 2021 	strb.w	r2, [r3, #33]	@ 0x21
 8004e08:	687b      	ldr	r3, [r7, #4]
 8004e0a:	2200      	movs	r2, #0
 8004e0c:	f883 2020 	strb.w	r2, [r3, #32]
 8004e10:	687b      	ldr	r3, [r7, #4]
 8004e12:	6b5b      	ldr	r3, [r3, #52]	@ 0x34
 8004e14:	2b00      	cmp	r3, #0
 8004e16:	d003      	beq.n	8004e20 <HAL_DMA_Abort_IT+0xc8>
 8004e18:	687b      	ldr	r3, [r7, #4]
 8004e1a:	6b5b      	ldr	r3, [r3, #52]	@ 0x34
 8004e1c:	6878      	ldr	r0, [r7, #4]
 8004e1e:	4798      	blx	r3
 8004e20:	7bfb      	ldrb	r3, [r7, #15]
 8004e22:	4618      	mov	r0, r3
 8004e24:	3710      	adds	r7, #16
 8004e26:	46bd      	mov	sp, r7
 8004e28:	bd80      	pop	{r7, pc}
 8004e2a:	bf00      	nop
 8004e2c:	40020008 	.word	0x40020008
 8004e30:	4002001c 	.word	0x4002001c
 8004e34:	40020030 	.word	0x40020030
 8004e38:	40020044 	.word	0x40020044
 8004e3c:	40020058 	.word	0x40020058
 8004e40:	4002006c 	.word	0x4002006c
 8004e44:	40020000 	.word	0x40020000

08004e48 <HAL_DMA_GetState>:
 8004e48:	b480      	push	{r7}
 8004e4a:	b083      	sub	sp, #12
 8004e4c:	af00      	add	r7, sp, #0
 8004e4e:	6078      	str	r0, [r7, #4]
 8004e50:	687b      	ldr	r3, [r7, #4]
 8004e52:	f893 3021 	ldrb.w	r3, [r3, #33]	@ 0x21
 8004e56:	b2db      	uxtb	r3, r3
 8004e58:	4618      	mov	r0, r3
 8004e5a:	370c      	adds	r7, #12
 8004e5c:	46bd      	mov	sp, r7
 8004e5e:	bc80      	pop	{r7}
 8004e60:	4770      	bx	lr
	...

08004e64 <HAL_GPIO_Init>:
 8004e64:	b480      	push	{r7}
 8004e66:	b08b      	sub	sp, #44	@ 0x2c
 8004e68:	af00      	add	r7, sp, #0
 8004e6a:	6078      	str	r0, [r7, #4]
 8004e6c:	6039      	str	r1, [r7, #0]
 8004e6e:	2300      	movs	r3, #0
 8004e70:	627b      	str	r3, [r7, #36]	@ 0x24
 8004e72:	2300      	movs	r3, #0
 8004e74:	623b      	str	r3, [r7, #32]
 8004e76:	e169      	b.n	800514c <HAL_GPIO_Init+0x2e8>
 8004e78:	2201      	movs	r2, #1
 8004e7a:	6a7b      	ldr	r3, [r7, #36]	@ 0x24
 8004e7c:	fa02 f303 	lsl.w	r3, r2, r3
 8004e80:	61fb      	str	r3, [r7, #28]
 8004e82:	683b      	ldr	r3, [r7, #0]
 8004e84:	681b      	ldr	r3, [r3, #0]
 8004e86:	69fa      	ldr	r2, [r7, #28]
 8004e88:	4013      	ands	r3, r2
 8004e8a:	61bb      	str	r3, [r7, #24]
 8004e8c:	69ba      	ldr	r2, [r7, #24]
 8004e8e:	69fb      	ldr	r3, [r7, #28]
 8004e90:	429a      	cmp	r2, r3
 8004e92:	f040 8158 	bne.w	8005146 <HAL_GPIO_Init+0x2e2>
 8004e96:	683b      	ldr	r3, [r7, #0]
 8004e98:	685b      	ldr	r3, [r3, #4]
 8004e9a:	4a9a      	ldr	r2, [pc, #616]	@ (8005104 <HAL_GPIO_Init+0x2a0>)
 8004e9c:	4293      	cmp	r3, r2
 8004e9e:	d05e      	beq.n	8004f5e <HAL_GPIO_Init+0xfa>
 8004ea0:	4a98      	ldr	r2, [pc, #608]	@ (8005104 <HAL_GPIO_Init+0x2a0>)
 8004ea2:	4293      	cmp	r3, r2
 8004ea4:	d875      	bhi.n	8004f92 <HAL_GPIO_Init+0x12e>
 8004ea6:	4a98      	ldr	r2, [pc, #608]	@ (8005108 <HAL_GPIO_Init+0x2a4>)
 8004ea8:	4293      	cmp	r3, r2
 8004eaa:	d058      	beq.n	8004f5e <HAL_GPIO_Init+0xfa>
 8004eac:	4a96      	ldr	r2, [pc, #600]	@ (8005108 <HAL_GPIO_Init+0x2a4>)
 8004eae:	4293      	cmp	r3, r2
 8004eb0:	d86f      	bhi.n	8004f92 <HAL_GPIO_Init+0x12e>
 8004eb2:	4a96      	ldr	r2, [pc, #600]	@ (800510c <HAL_GPIO_Init+0x2a8>)
 8004eb4:	4293      	cmp	r3, r2
 8004eb6:	d052      	beq.n	8004f5e <HAL_GPIO_Init+0xfa>
 8004eb8:	4a94      	ldr	r2, [pc, #592]	@ (800510c <HAL_GPIO_Init+0x2a8>)
 8004eba:	4293      	cmp	r3, r2
 8004ebc:	d869      	bhi.n	8004f92 <HAL_GPIO_Init+0x12e>
 8004ebe:	4a94      	ldr	r2, [pc, #592]	@ (8005110 <HAL_GPIO_Init+0x2ac>)
 8004ec0:	4293      	cmp	r3, r2
 8004ec2:	d04c      	beq.n	8004f5e <HAL_GPIO_Init+0xfa>
 8004ec4:	4a92      	ldr	r2, [pc, #584]	@ (8005110 <HAL_GPIO_Init+0x2ac>)
 8004ec6:	4293      	cmp	r3, r2
 8004ec8:	d863      	bhi.n	8004f92 <HAL_GPIO_Init+0x12e>
 8004eca:	4a92      	ldr	r2, [pc, #584]	@ (8005114 <HAL_GPIO_Init+0x2b0>)
 8004ecc:	4293      	cmp	r3, r2
 8004ece:	d046      	beq.n	8004f5e <HAL_GPIO_Init+0xfa>
 8004ed0:	4a90      	ldr	r2, [pc, #576]	@ (8005114 <HAL_GPIO_Init+0x2b0>)
 8004ed2:	4293      	cmp	r3, r2
 8004ed4:	d85d      	bhi.n	8004f92 <HAL_GPIO_Init+0x12e>
 8004ed6:	2b12      	cmp	r3, #18
 8004ed8:	d82a      	bhi.n	8004f30 <HAL_GPIO_Init+0xcc>
 8004eda:	2b12      	cmp	r3, #18
 8004edc:	d859      	bhi.n	8004f92 <HAL_GPIO_Init+0x12e>
 8004ede:	a201      	add	r2, pc, #4	@ (adr r2, 8004ee4 <HAL_GPIO_Init+0x80>)
 8004ee0:	f852 f023 	ldr.w	pc, [r2, r3, lsl #2]
 8004ee4:	08004f5f 	.word	0x08004f5f
 8004ee8:	08004f39 	.word	0x08004f39
 8004eec:	08004f4b 	.word	0x08004f4b
 8004ef0:	08004f8d 	.word	0x08004f8d
 8004ef4:	08004f93 	.word	0x08004f93
 8004ef8:	08004f93 	.word	0x08004f93
 8004efc:	08004f93 	.word	0x08004f93
 8004f00:	08004f93 	.word	0x08004f93
 8004f04:	08004f93 	.word	0x08004f93
 8004f08:	08004f93 	.word	0x08004f93
 8004f0c:	08004f93 	.word	0x08004f93
 8004f10:	08004f93 	.word	0x08004f93
 8004f14:	08004f93 	.word	0x08004f93
 8004f18:	08004f93 	.word	0x08004f93
 8004f1c:	08004f93 	.word	0x08004f93
 8004f20:	08004f93 	.word	0x08004f93
 8004f24:	08004f93 	.word	0x08004f93
 8004f28:	08004f41 	.word	0x08004f41
 8004f2c:	08004f55 	.word	0x08004f55
 8004f30:	4a79      	ldr	r2, [pc, #484]	@ (8005118 <HAL_GPIO_Init+0x2b4>)
 8004f32:	4293      	cmp	r3, r2
 8004f34:	d013      	beq.n	8004f5e <HAL_GPIO_Init+0xfa>
 8004f36:	e02c      	b.n	8004f92 <HAL_GPIO_Init+0x12e>
 8004f38:	683b      	ldr	r3, [r7, #0]
 8004f3a:	68db      	ldr	r3, [r3, #12]
 8004f3c:	623b      	str	r3, [r7, #32]
 8004f3e:	e029      	b.n	8004f94 <HAL_GPIO_Init+0x130>
 8004f40:	683b      	ldr	r3, [r7, #0]
 8004f42:	68db      	ldr	r3, [r3, #12]
 8004f44:	3304      	adds	r3, #4
 8004f46:	623b      	str	r3, [r7, #32]
 8004f48:	e024      	b.n	8004f94 <HAL_GPIO_Init+0x130>
 8004f4a:	683b      	ldr	r3, [r7, #0]
 8004f4c:	68db      	ldr	r3, [r3, #12]
 8004f4e:	3308      	adds	r3, #8
 8004f50:	623b      	str	r3, [r7, #32]
 8004f52:	e01f      	b.n	8004f94 <HAL_GPIO_Init+0x130>
 8004f54:	683b      	ldr	r3, [r7, #0]
 8004f56:	68db      	ldr	r3, [r3, #12]
 8004f58:	330c      	adds	r3, #12
 8004f5a:	623b      	str	r3, [r7, #32]
 8004f5c:	e01a      	b.n	8004f94 <HAL_GPIO_Init+0x130>
 8004f5e:	683b      	ldr	r3, [r7, #0]
 8004f60:	689b      	ldr	r3, [r3, #8]
 8004f62:	2b00      	cmp	r3, #0
 8004f64:	d102      	bne.n	8004f6c <HAL_GPIO_Init+0x108>
 8004f66:	2304      	movs	r3, #4
 8004f68:	623b      	str	r3, [r7, #32]
 8004f6a:	e013      	b.n	8004f94 <HAL_GPIO_Init+0x130>
 8004f6c:	683b      	ldr	r3, [r7, #0]
 8004f6e:	689b      	ldr	r3, [r3, #8]
 8004f70:	2b01      	cmp	r3, #1
 8004f72:	d105      	bne.n	8004f80 <HAL_GPIO_Init+0x11c>
 8004f74:	2308      	movs	r3, #8
 8004f76:	623b      	str	r3, [r7, #32]
 8004f78:	687b      	ldr	r3, [r7, #4]
 8004f7a:	69fa      	ldr	r2, [r7, #28]
 8004f7c:	611a      	str	r2, [r3, #16]
 8004f7e:	e009      	b.n	8004f94 <HAL_GPIO_Init+0x130>
 8004f80:	2308      	movs	r3, #8
 8004f82:	623b      	str	r3, [r7, #32]
 8004f84:	687b      	ldr	r3, [r7, #4]
 8004f86:	69fa      	ldr	r2, [r7, #28]
 8004f88:	615a      	str	r2, [r3, #20]
 8004f8a:	e003      	b.n	8004f94 <HAL_GPIO_Init+0x130>
 8004f8c:	2300      	movs	r3, #0
 8004f8e:	623b      	str	r3, [r7, #32]
 8004f90:	e000      	b.n	8004f94 <HAL_GPIO_Init+0x130>
 8004f92:	bf00      	nop
 8004f94:	69bb      	ldr	r3, [r7, #24]
 8004f96:	2bff      	cmp	r3, #255	@ 0xff
 8004f98:	d801      	bhi.n	8004f9e <HAL_GPIO_Init+0x13a>
 8004f9a:	687b      	ldr	r3, [r7, #4]
 8004f9c:	e001      	b.n	8004fa2 <HAL_GPIO_Init+0x13e>
 8004f9e:	687b      	ldr	r3, [r7, #4]
 8004fa0:	3304      	adds	r3, #4
 8004fa2:	617b      	str	r3, [r7, #20]
 8004fa4:	69bb      	ldr	r3, [r7, #24]
 8004fa6:	2bff      	cmp	r3, #255	@ 0xff
 8004fa8:	d802      	bhi.n	8004fb0 <HAL_GPIO_Init+0x14c>
 8004faa:	6a7b      	ldr	r3, [r7, #36]	@ 0x24
 8004fac:	009b      	lsls	r3, r3, #2
 8004fae:	e002      	b.n	8004fb6 <HAL_GPIO_Init+0x152>
 8004fb0:	6a7b      	ldr	r3, [r7, #36]	@ 0x24
 8004fb2:	3b08      	subs	r3, #8
 8004fb4:	009b      	lsls	r3, r3, #2
 8004fb6:	613b      	str	r3, [r7, #16]
 8004fb8:	697b      	ldr	r3, [r7, #20]
 8004fba:	681a      	ldr	r2, [r3, #0]
 8004fbc:	210f      	movs	r1, #15
 8004fbe:	693b      	ldr	r3, [r7, #16]
 8004fc0:	fa01 f303 	lsl.w	r3, r1, r3
 8004fc4:	43db      	mvns	r3, r3
 8004fc6:	401a      	ands	r2, r3
 8004fc8:	6a39      	ldr	r1, [r7, #32]
 8004fca:	693b      	ldr	r3, [r7, #16]
 8004fcc:	fa01 f303 	lsl.w	r3, r1, r3
 8004fd0:	431a      	orrs	r2, r3
 8004fd2:	697b      	ldr	r3, [r7, #20]
 8004fd4:	601a      	str	r2, [r3, #0]
 8004fd6:	683b      	ldr	r3, [r7, #0]
 8004fd8:	685b      	ldr	r3, [r3, #4]
 8004fda:	f003 5380 	and.w	r3, r3, #268435456	@ 0x10000000
 8004fde:	2b00      	cmp	r3, #0
 8004fe0:	f000 80b1 	beq.w	8005146 <HAL_GPIO_Init+0x2e2>
 8004fe4:	4b4d      	ldr	r3, [pc, #308]	@ (800511c <HAL_GPIO_Init+0x2b8>)
 8004fe6:	699b      	ldr	r3, [r3, #24]
 8004fe8:	4a4c      	ldr	r2, [pc, #304]	@ (800511c <HAL_GPIO_Init+0x2b8>)
 8004fea:	f043 0301 	orr.w	r3, r3, #1
 8004fee:	6193      	str	r3, [r2, #24]
 8004ff0:	4b4a      	ldr	r3, [pc, #296]	@ (800511c <HAL_GPIO_Init+0x2b8>)
 8004ff2:	699b      	ldr	r3, [r3, #24]
 8004ff4:	f003 0301 	and.w	r3, r3, #1
 8004ff8:	60bb      	str	r3, [r7, #8]
 8004ffa:	68bb      	ldr	r3, [r7, #8]
 8004ffc:	4a48      	ldr	r2, [pc, #288]	@ (8005120 <HAL_GPIO_Init+0x2bc>)
 8004ffe:	6a7b      	ldr	r3, [r7, #36]	@ 0x24
 8005000:	089b      	lsrs	r3, r3, #2
 8005002:	3302      	adds	r3, #2
 8005004:	f852 3023 	ldr.w	r3, [r2, r3, lsl #2]
 8005008:	60fb      	str	r3, [r7, #12]
 800500a:	6a7b      	ldr	r3, [r7, #36]	@ 0x24
 800500c:	f003 0303 	and.w	r3, r3, #3
 8005010:	009b      	lsls	r3, r3, #2
 8005012:	220f      	movs	r2, #15
 8005014:	fa02 f303 	lsl.w	r3, r2, r3
 8005018:	43db      	mvns	r3, r3
 800501a:	68fa      	ldr	r2, [r7, #12]
 800501c:	4013      	ands	r3, r2
 800501e:	60fb      	str	r3, [r7, #12]
 8005020:	687b      	ldr	r3, [r7, #4]
 8005022:	4a40      	ldr	r2, [pc, #256]	@ (8005124 <HAL_GPIO_Init+0x2c0>)
 8005024:	4293      	cmp	r3, r2
 8005026:	d013      	beq.n	8005050 <HAL_GPIO_Init+0x1ec>
 8005028:	687b      	ldr	r3, [r7, #4]
 800502a:	4a3f      	ldr	r2, [pc, #252]	@ (8005128 <HAL_GPIO_Init+0x2c4>)
 800502c:	4293      	cmp	r3, r2
 800502e:	d00d      	beq.n	800504c <HAL_GPIO_Init+0x1e8>
 8005030:	687b      	ldr	r3, [r7, #4]
 8005032:	4a3e      	ldr	r2, [pc, #248]	@ (800512c <HAL_GPIO_Init+0x2c8>)
 8005034:	4293      	cmp	r3, r2
 8005036:	d007      	beq.n	8005048 <HAL_GPIO_Init+0x1e4>
 8005038:	687b      	ldr	r3, [r7, #4]
 800503a:	4a3d      	ldr	r2, [pc, #244]	@ (8005130 <HAL_GPIO_Init+0x2cc>)
 800503c:	4293      	cmp	r3, r2
 800503e:	d101      	bne.n	8005044 <HAL_GPIO_Init+0x1e0>
 8005040:	2303      	movs	r3, #3
 8005042:	e006      	b.n	8005052 <HAL_GPIO_Init+0x1ee>
 8005044:	2304      	movs	r3, #4
 8005046:	e004      	b.n	8005052 <HAL_GPIO_Init+0x1ee>
 8005048:	2302      	movs	r3, #2
 800504a:	e002      	b.n	8005052 <HAL_GPIO_Init+0x1ee>
 800504c:	2301      	movs	r3, #1
 800504e:	e000      	b.n	8005052 <HAL_GPIO_Init+0x1ee>
 8005050:	2300      	movs	r3, #0
 8005052:	6a7a      	ldr	r2, [r7, #36]	@ 0x24
 8005054:	f002 0203 	and.w	r2, r2, #3
 8005058:	0092      	lsls	r2, r2, #2
 800505a:	4093      	lsls	r3, r2
 800505c:	68fa      	ldr	r2, [r7, #12]
 800505e:	4313      	orrs	r3, r2
 8005060:	60fb      	str	r3, [r7, #12]
 8005062:	492f      	ldr	r1, [pc, #188]	@ (8005120 <HAL_GPIO_Init+0x2bc>)
 8005064:	6a7b      	ldr	r3, [r7, #36]	@ 0x24
 8005066:	089b      	lsrs	r3, r3, #2
 8005068:	3302      	adds	r3, #2
 800506a:	68fa      	ldr	r2, [r7, #12]
 800506c:	f841 2023 	str.w	r2, [r1, r3, lsl #2]
 8005070:	683b      	ldr	r3, [r7, #0]
 8005072:	685b      	ldr	r3, [r3, #4]
 8005074:	f403 1380 	and.w	r3, r3, #1048576	@ 0x100000
 8005078:	2b00      	cmp	r3, #0
 800507a:	d006      	beq.n	800508a <HAL_GPIO_Init+0x226>
 800507c:	4b2d      	ldr	r3, [pc, #180]	@ (8005134 <HAL_GPIO_Init+0x2d0>)
 800507e:	689a      	ldr	r2, [r3, #8]
 8005080:	492c      	ldr	r1, [pc, #176]	@ (8005134 <HAL_GPIO_Init+0x2d0>)
 8005082:	69bb      	ldr	r3, [r7, #24]
 8005084:	4313      	orrs	r3, r2
 8005086:	608b      	str	r3, [r1, #8]
 8005088:	e006      	b.n	8005098 <HAL_GPIO_Init+0x234>
 800508a:	4b2a      	ldr	r3, [pc, #168]	@ (8005134 <HAL_GPIO_Init+0x2d0>)
 800508c:	689a      	ldr	r2, [r3, #8]
 800508e:	69bb      	ldr	r3, [r7, #24]
 8005090:	43db      	mvns	r3, r3
 8005092:	4928      	ldr	r1, [pc, #160]	@ (8005134 <HAL_GPIO_Init+0x2d0>)
 8005094:	4013      	ands	r3, r2
 8005096:	608b      	str	r3, [r1, #8]
 8005098:	683b      	ldr	r3, [r7, #0]
 800509a:	685b      	ldr	r3, [r3, #4]
 800509c:	f403 1300 	and.w	r3, r3, #2097152	@ 0x200000
 80050a0:	2b00      	cmp	r3, #0
 80050a2:	d006      	beq.n	80050b2 <HAL_GPIO_Init+0x24e>
 80050a4:	4b23      	ldr	r3, [pc, #140]	@ (8005134 <HAL_GPIO_Init+0x2d0>)
 80050a6:	68da      	ldr	r2, [r3, #12]
 80050a8:	4922      	ldr	r1, [pc, #136]	@ (8005134 <HAL_GPIO_Init+0x2d0>)
 80050aa:	69bb      	ldr	r3, [r7, #24]
 80050ac:	4313      	orrs	r3, r2
 80050ae:	60cb      	str	r3, [r1, #12]
 80050b0:	e006      	b.n	80050c0 <HAL_GPIO_Init+0x25c>
 80050b2:	4b20      	ldr	r3, [pc, #128]	@ (8005134 <HAL_GPIO_Init+0x2d0>)
 80050b4:	68da      	ldr	r2, [r3, #12]
 80050b6:	69bb      	ldr	r3, [r7, #24]
 80050b8:	43db      	mvns	r3, r3
 80050ba:	491e      	ldr	r1, [pc, #120]	@ (8005134 <HAL_GPIO_Init+0x2d0>)
 80050bc:	4013      	ands	r3, r2
 80050be:	60cb      	str	r3, [r1, #12]
 80050c0:	683b      	ldr	r3, [r7, #0]
 80050c2:	685b      	ldr	r3, [r3, #4]
 80050c4:	f403 3300 	and.w	r3, r3, #131072	@ 0x20000
 80050c8:	2b00      	cmp	r3, #0
 80050ca:	d006      	beq.n	80050da <HAL_GPIO_Init+0x276>
 80050cc:	4b19      	ldr	r3, [pc, #100]	@ (8005134 <HAL_GPIO_Init+0x2d0>)
 80050ce:	685a      	ldr	r2, [r3, #4]
 80050d0:	4918      	ldr	r1, [pc, #96]	@ (8005134 <HAL_GPIO_Init+0x2d0>)
 80050d2:	69bb      	ldr	r3, [r7, #24]
 80050d4:	4313      	orrs	r3, r2
 80050d6:	604b      	str	r3, [r1, #4]
 80050d8:	e006      	b.n	80050e8 <HAL_GPIO_Init+0x284>
 80050da:	4b16      	ldr	r3, [pc, #88]	@ (8005134 <HAL_GPIO_Init+0x2d0>)
 80050dc:	685a      	ldr	r2, [r3, #4]
 80050de:	69bb      	ldr	r3, [r7, #24]
 80050e0:	43db      	mvns	r3, r3
 80050e2:	4914      	ldr	r1, [pc, #80]	@ (8005134 <HAL_GPIO_Init+0x2d0>)
 80050e4:	4013      	ands	r3, r2
 80050e6:	604b      	str	r3, [r1, #4]
 80050e8:	683b      	ldr	r3, [r7, #0]
 80050ea:	685b      	ldr	r3, [r3, #4]
 80050ec:	f403 3380 	and.w	r3, r3, #65536	@ 0x10000
 80050f0:	2b00      	cmp	r3, #0
 80050f2:	d021      	beq.n	8005138 <HAL_GPIO_Init+0x2d4>
 80050f4:	4b0f      	ldr	r3, [pc, #60]	@ (8005134 <HAL_GPIO_Init+0x2d0>)
 80050f6:	681a      	ldr	r2, [r3, #0]
 80050f8:	490e      	ldr	r1, [pc, #56]	@ (8005134 <HAL_GPIO_Init+0x2d0>)
 80050fa:	69bb      	ldr	r3, [r7, #24]
 80050fc:	4313      	orrs	r3, r2
 80050fe:	600b      	str	r3, [r1, #0]
 8005100:	e021      	b.n	8005146 <HAL_GPIO_Init+0x2e2>
 8005102:	bf00      	nop
 8005104:	10320000 	.word	0x10320000
 8005108:	10310000 	.word	0x10310000
 800510c:	10220000 	.word	0x10220000
 8005110:	10210000 	.word	0x10210000
 8005114:	10120000 	.word	0x10120000
 8005118:	10110000 	.word	0x10110000
 800511c:	40021000 	.word	0x40021000
 8005120:	40010000 	.word	0x40010000
 8005124:	40010800 	.word	0x40010800
 8005128:	40010c00 	.word	0x40010c00
 800512c:	40011000 	.word	0x40011000
 8005130:	40011400 	.word	0x40011400
 8005134:	40010400 	.word	0x40010400
 8005138:	4b0b      	ldr	r3, [pc, #44]	@ (8005168 <HAL_GPIO_Init+0x304>)
 800513a:	681a      	ldr	r2, [r3, #0]
 800513c:	69bb      	ldr	r3, [r7, #24]
 800513e:	43db      	mvns	r3, r3
 8005140:	4909      	ldr	r1, [pc, #36]	@ (8005168 <HAL_GPIO_Init+0x304>)
 8005142:	4013      	ands	r3, r2
 8005144:	600b      	str	r3, [r1, #0]
 8005146:	6a7b      	ldr	r3, [r7, #36]	@ 0x24
 8005148:	3301      	adds	r3, #1
 800514a:	627b      	str	r3, [r7, #36]	@ 0x24
 800514c:	683b      	ldr	r3, [r7, #0]
 800514e:	681a      	ldr	r2, [r3, #0]
 8005150:	6a7b      	ldr	r3, [r7, #36]	@ 0x24
 8005152:	fa22 f303 	lsr.w	r3, r2, r3
 8005156:	2b00      	cmp	r3, #0
 8005158:	f47f ae8e 	bne.w	8004e78 <HAL_GPIO_Init+0x14>
 800515c:	bf00      	nop
 800515e:	bf00      	nop
 8005160:	372c      	adds	r7, #44	@ 0x2c
 8005162:	46bd      	mov	sp, r7
 8005164:	bc80      	pop	{r7}
 8005166:	4770      	bx	lr
 8005168:	40010400 	.word	0x40010400

0800516c <HAL_I2C_Init>:
 800516c:	b580      	push	{r7, lr}
 800516e:	b084      	sub	sp, #16
 8005170:	af00      	add	r7, sp, #0
 8005172:	6078      	str	r0, [r7, #4]
 8005174:	687b      	ldr	r3, [r7, #4]
 8005176:	2b00      	cmp	r3, #0
 8005178:	d101      	bne.n	800517e <HAL_I2C_Init+0x12>
 800517a:	2301      	movs	r3, #1
 800517c:	e12b      	b.n	80053d6 <HAL_I2C_Init+0x26a>
 800517e:	687b      	ldr	r3, [r7, #4]
 8005180:	f893 303d 	ldrb.w	r3, [r3, #61]	@ 0x3d
 8005184:	b2db      	uxtb	r3, r3
 8005186:	2b00      	cmp	r3, #0
 8005188:	d106      	bne.n	8005198 <HAL_I2C_Init+0x2c>
 800518a:	687b      	ldr	r3, [r7, #4]
 800518c:	2200      	movs	r2, #0
 800518e:	f883 203c 	strb.w	r2, [r3, #60]	@ 0x3c
 8005192:	6878      	ldr	r0, [r7, #4]
 8005194:	f7fe fed4 	bl	8003f40 <HAL_I2C_MspInit>
 8005198:	687b      	ldr	r3, [r7, #4]
 800519a:	2224      	movs	r2, #36	@ 0x24
 800519c:	f883 203d 	strb.w	r2, [r3, #61]	@ 0x3d
 80051a0:	687b      	ldr	r3, [r7, #4]
 80051a2:	681b      	ldr	r3, [r3, #0]
 80051a4:	681a      	ldr	r2, [r3, #0]
 80051a6:	687b      	ldr	r3, [r7, #4]
 80051a8:	681b      	ldr	r3, [r3, #0]
 80051aa:	f022 0201 	bic.w	r2, r2, #1
 80051ae:	601a      	str	r2, [r3, #0]
 80051b0:	687b      	ldr	r3, [r7, #4]
 80051b2:	681b      	ldr	r3, [r3, #0]
 80051b4:	681a      	ldr	r2, [r3, #0]
 80051b6:	687b      	ldr	r3, [r7, #4]
 80051b8:	681b      	ldr	r3, [r3, #0]
 80051ba:	f442 4200 	orr.w	r2, r2, #32768	@ 0x8000
 80051be:	601a      	str	r2, [r3, #0]
 80051c0:	687b      	ldr	r3, [r7, #4]
 80051c2:	681b      	ldr	r3, [r3, #0]
 80051c4:	681a      	ldr	r2, [r3, #0]
 80051c6:	687b      	ldr	r3, [r7, #4]
 80051c8:	681b      	ldr	r3, [r3, #0]
 80051ca:	f422 4200 	bic.w	r2, r2, #32768	@ 0x8000
 80051ce:	601a      	str	r2, [r3, #0]
 80051d0:	f001 fe84 	bl	8006edc <HAL_RCC_GetPCLK1Freq>
 80051d4:	60f8      	str	r0, [r7, #12]
 80051d6:	687b      	ldr	r3, [r7, #4]
 80051d8:	685b      	ldr	r3, [r3, #4]
 80051da:	4a81      	ldr	r2, [pc, #516]	@ (80053e0 <HAL_I2C_Init+0x274>)
 80051dc:	4293      	cmp	r3, r2
 80051de:	d807      	bhi.n	80051f0 <HAL_I2C_Init+0x84>
 80051e0:	68fb      	ldr	r3, [r7, #12]
 80051e2:	4a80      	ldr	r2, [pc, #512]	@ (80053e4 <HAL_I2C_Init+0x278>)
 80051e4:	4293      	cmp	r3, r2
 80051e6:	bf94      	ite	ls
 80051e8:	2301      	movls	r3, #1
 80051ea:	2300      	movhi	r3, #0
 80051ec:	b2db      	uxtb	r3, r3
 80051ee:	e006      	b.n	80051fe <HAL_I2C_Init+0x92>
 80051f0:	68fb      	ldr	r3, [r7, #12]
 80051f2:	4a7d      	ldr	r2, [pc, #500]	@ (80053e8 <HAL_I2C_Init+0x27c>)
 80051f4:	4293      	cmp	r3, r2
 80051f6:	bf94      	ite	ls
 80051f8:	2301      	movls	r3, #1
 80051fa:	2300      	movhi	r3, #0
 80051fc:	b2db      	uxtb	r3, r3
 80051fe:	2b00      	cmp	r3, #0
 8005200:	d001      	beq.n	8005206 <HAL_I2C_Init+0x9a>
 8005202:	2301      	movs	r3, #1
 8005204:	e0e7      	b.n	80053d6 <HAL_I2C_Init+0x26a>
 8005206:	68fb      	ldr	r3, [r7, #12]
 8005208:	4a78      	ldr	r2, [pc, #480]	@ (80053ec <HAL_I2C_Init+0x280>)
 800520a:	fba2 2303 	umull	r2, r3, r2, r3
 800520e:	0c9b      	lsrs	r3, r3, #18
 8005210:	60bb      	str	r3, [r7, #8]
 8005212:	687b      	ldr	r3, [r7, #4]
 8005214:	681b      	ldr	r3, [r3, #0]
 8005216:	685b      	ldr	r3, [r3, #4]
 8005218:	f023 013f 	bic.w	r1, r3, #63	@ 0x3f
 800521c:	687b      	ldr	r3, [r7, #4]
 800521e:	681b      	ldr	r3, [r3, #0]
 8005220:	68ba      	ldr	r2, [r7, #8]
 8005222:	430a      	orrs	r2, r1
 8005224:	605a      	str	r2, [r3, #4]
 8005226:	687b      	ldr	r3, [r7, #4]
 8005228:	681b      	ldr	r3, [r3, #0]
 800522a:	6a1b      	ldr	r3, [r3, #32]
 800522c:	f023 013f 	bic.w	r1, r3, #63	@ 0x3f
 8005230:	687b      	ldr	r3, [r7, #4]
 8005232:	685b      	ldr	r3, [r3, #4]
 8005234:	4a6a      	ldr	r2, [pc, #424]	@ (80053e0 <HAL_I2C_Init+0x274>)
 8005236:	4293      	cmp	r3, r2
 8005238:	d802      	bhi.n	8005240 <HAL_I2C_Init+0xd4>
 800523a:	68bb      	ldr	r3, [r7, #8]
 800523c:	3301      	adds	r3, #1
 800523e:	e009      	b.n	8005254 <HAL_I2C_Init+0xe8>
 8005240:	68bb      	ldr	r3, [r7, #8]
 8005242:	f44f 7296 	mov.w	r2, #300	@ 0x12c
 8005246:	fb02 f303 	mul.w	r3, r2, r3
 800524a:	4a69      	ldr	r2, [pc, #420]	@ (80053f0 <HAL_I2C_Init+0x284>)
 800524c:	fba2 2303 	umull	r2, r3, r2, r3
 8005250:	099b      	lsrs	r3, r3, #6
 8005252:	3301      	adds	r3, #1
 8005254:	687a      	ldr	r2, [r7, #4]
 8005256:	6812      	ldr	r2, [r2, #0]
 8005258:	430b      	orrs	r3, r1
 800525a:	6213      	str	r3, [r2, #32]
 800525c:	687b      	ldr	r3, [r7, #4]
 800525e:	681b      	ldr	r3, [r3, #0]
 8005260:	69db      	ldr	r3, [r3, #28]
 8005262:	f423 424f 	bic.w	r2, r3, #52992	@ 0xcf00
 8005266:	f022 02ff 	bic.w	r2, r2, #255	@ 0xff
 800526a:	687b      	ldr	r3, [r7, #4]
 800526c:	685b      	ldr	r3, [r3, #4]
 800526e:	495c      	ldr	r1, [pc, #368]	@ (80053e0 <HAL_I2C_Init+0x274>)
 8005270:	428b      	cmp	r3, r1
 8005272:	d819      	bhi.n	80052a8 <HAL_I2C_Init+0x13c>
 8005274:	68fb      	ldr	r3, [r7, #12]
 8005276:	1e59      	subs	r1, r3, #1
 8005278:	687b      	ldr	r3, [r7, #4]
 800527a:	685b      	ldr	r3, [r3, #4]
 800527c:	005b      	lsls	r3, r3, #1
 800527e:	fbb1 f3f3 	udiv	r3, r1, r3
 8005282:	1c59      	adds	r1, r3, #1
 8005284:	f640 73fc 	movw	r3, #4092	@ 0xffc
 8005288:	400b      	ands	r3, r1
 800528a:	2b00      	cmp	r3, #0
 800528c:	d00a      	beq.n	80052a4 <HAL_I2C_Init+0x138>
 800528e:	68fb      	ldr	r3, [r7, #12]
 8005290:	1e59      	subs	r1, r3, #1
 8005292:	687b      	ldr	r3, [r7, #4]
 8005294:	685b      	ldr	r3, [r3, #4]
 8005296:	005b      	lsls	r3, r3, #1
 8005298:	fbb1 f3f3 	udiv	r3, r1, r3
 800529c:	3301      	adds	r3, #1
 800529e:	f3c3 030b 	ubfx	r3, r3, #0, #12
 80052a2:	e051      	b.n	8005348 <HAL_I2C_Init+0x1dc>
 80052a4:	2304      	movs	r3, #4
 80052a6:	e04f      	b.n	8005348 <HAL_I2C_Init+0x1dc>
 80052a8:	687b      	ldr	r3, [r7, #4]
 80052aa:	689b      	ldr	r3, [r3, #8]
 80052ac:	2b00      	cmp	r3, #0
 80052ae:	d111      	bne.n	80052d4 <HAL_I2C_Init+0x168>
 80052b0:	68fb      	ldr	r3, [r7, #12]
 80052b2:	1e58      	subs	r0, r3, #1
 80052b4:	687b      	ldr	r3, [r7, #4]
 80052b6:	6859      	ldr	r1, [r3, #4]
 80052b8:	460b      	mov	r3, r1
 80052ba:	005b      	lsls	r3, r3, #1
 80052bc:	440b      	add	r3, r1
 80052be:	fbb0 f3f3 	udiv	r3, r0, r3
 80052c2:	3301      	adds	r3, #1
 80052c4:	f3c3 030b 	ubfx	r3, r3, #0, #12
 80052c8:	2b00      	cmp	r3, #0
 80052ca:	bf0c      	ite	eq
 80052cc:	2301      	moveq	r3, #1
 80052ce:	2300      	movne	r3, #0
 80052d0:	b2db      	uxtb	r3, r3
 80052d2:	e012      	b.n	80052fa <HAL_I2C_Init+0x18e>
 80052d4:	68fb      	ldr	r3, [r7, #12]
 80052d6:	1e58      	subs	r0, r3, #1
 80052d8:	687b      	ldr	r3, [r7, #4]
 80052da:	6859      	ldr	r1, [r3, #4]
 80052dc:	460b      	mov	r3, r1
 80052de:	009b      	lsls	r3, r3, #2
 80052e0:	440b      	add	r3, r1
 80052e2:	0099      	lsls	r1, r3, #2
 80052e4:	440b      	add	r3, r1
 80052e6:	fbb0 f3f3 	udiv	r3, r0, r3
 80052ea:	3301      	adds	r3, #1
 80052ec:	f3c3 030b 	ubfx	r3, r3, #0, #12
 80052f0:	2b00      	cmp	r3, #0
 80052f2:	bf0c      	ite	eq
 80052f4:	2301      	moveq	r3, #1
 80052f6:	2300      	movne	r3, #0
 80052f8:	b2db      	uxtb	r3, r3
 80052fa:	2b00      	cmp	r3, #0
 80052fc:	d001      	beq.n	8005302 <HAL_I2C_Init+0x196>
 80052fe:	2301      	movs	r3, #1
 8005300:	e022      	b.n	8005348 <HAL_I2C_Init+0x1dc>
 8005302:	687b      	ldr	r3, [r7, #4]
 8005304:	689b      	ldr	r3, [r3, #8]
 8005306:	2b00      	cmp	r3, #0
 8005308:	d10e      	bne.n	8005328 <HAL_I2C_Init+0x1bc>
 800530a:	68fb      	ldr	r3, [r7, #12]
 800530c:	1e58      	subs	r0, r3, #1
 800530e:	687b      	ldr	r3, [r7, #4]
 8005310:	6859      	ldr	r1, [r3, #4]
 8005312:	460b      	mov	r3, r1
 8005314:	005b      	lsls	r3, r3, #1
 8005316:	440b      	add	r3, r1
 8005318:	fbb0 f3f3 	udiv	r3, r0, r3
 800531c:	3301      	adds	r3, #1
 800531e:	f3c3 030b 	ubfx	r3, r3, #0, #12
 8005322:	f443 4300 	orr.w	r3, r3, #32768	@ 0x8000
 8005326:	e00f      	b.n	8005348 <HAL_I2C_Init+0x1dc>
 8005328:	68fb      	ldr	r3, [r7, #12]
 800532a:	1e58      	subs	r0, r3, #1
 800532c:	687b      	ldr	r3, [r7, #4]
 800532e:	6859      	ldr	r1, [r3, #4]
 8005330:	460b      	mov	r3, r1
 8005332:	009b      	lsls	r3, r3, #2
 8005334:	440b      	add	r3, r1
 8005336:	0099      	lsls	r1, r3, #2
 8005338:	440b      	add	r3, r1
 800533a:	fbb0 f3f3 	udiv	r3, r0, r3
 800533e:	3301      	adds	r3, #1
 8005340:	f3c3 030b 	ubfx	r3, r3, #0, #12
 8005344:	f443 4340 	orr.w	r3, r3, #49152	@ 0xc000
 8005348:	6879      	ldr	r1, [r7, #4]
 800534a:	6809      	ldr	r1, [r1, #0]
 800534c:	4313      	orrs	r3, r2
 800534e:	61cb      	str	r3, [r1, #28]
 8005350:	687b      	ldr	r3, [r7, #4]
 8005352:	681b      	ldr	r3, [r3, #0]
 8005354:	681b      	ldr	r3, [r3, #0]
 8005356:	f023 01c0 	bic.w	r1, r3, #192	@ 0xc0
 800535a:	687b      	ldr	r3, [r7, #4]
 800535c:	69da      	ldr	r2, [r3, #28]
 800535e:	687b      	ldr	r3, [r7, #4]
 8005360:	6a1b      	ldr	r3, [r3, #32]
 8005362:	431a      	orrs	r2, r3
 8005364:	687b      	ldr	r3, [r7, #4]
 8005366:	681b      	ldr	r3, [r3, #0]
 8005368:	430a      	orrs	r2, r1
 800536a:	601a      	str	r2, [r3, #0]
 800536c:	687b      	ldr	r3, [r7, #4]
 800536e:	681b      	ldr	r3, [r3, #0]
 8005370:	689b      	ldr	r3, [r3, #8]
 8005372:	f423 4303 	bic.w	r3, r3, #33536	@ 0x8300
 8005376:	f023 03ff 	bic.w	r3, r3, #255	@ 0xff
 800537a:	687a      	ldr	r2, [r7, #4]
 800537c:	6911      	ldr	r1, [r2, #16]
 800537e:	687a      	ldr	r2, [r7, #4]
 8005380:	68d2      	ldr	r2, [r2, #12]
 8005382:	4311      	orrs	r1, r2
 8005384:	687a      	ldr	r2, [r7, #4]
 8005386:	6812      	ldr	r2, [r2, #0]
 8005388:	430b      	orrs	r3, r1
 800538a:	6093      	str	r3, [r2, #8]
 800538c:	687b      	ldr	r3, [r7, #4]
 800538e:	681b      	ldr	r3, [r3, #0]
 8005390:	68db      	ldr	r3, [r3, #12]
 8005392:	f023 01ff 	bic.w	r1, r3, #255	@ 0xff
 8005396:	687b      	ldr	r3, [r7, #4]
 8005398:	695a      	ldr	r2, [r3, #20]
 800539a:	687b      	ldr	r3, [r7, #4]
 800539c:	699b      	ldr	r3, [r3, #24]
 800539e:	431a      	orrs	r2, r3
 80053a0:	687b      	ldr	r3, [r7, #4]
 80053a2:	681b      	ldr	r3, [r3, #0]
 80053a4:	430a      	orrs	r2, r1
 80053a6:	60da      	str	r2, [r3, #12]
 80053a8:	687b      	ldr	r3, [r7, #4]
 80053aa:	681b      	ldr	r3, [r3, #0]
 80053ac:	681a      	ldr	r2, [r3, #0]
 80053ae:	687b      	ldr	r3, [r7, #4]
 80053b0:	681b      	ldr	r3, [r3, #0]
 80053b2:	f042 0201 	orr.w	r2, r2, #1
 80053b6:	601a      	str	r2, [r3, #0]
 80053b8:	687b      	ldr	r3, [r7, #4]
 80053ba:	2200      	movs	r2, #0
 80053bc:	641a      	str	r2, [r3, #64]	@ 0x40
 80053be:	687b      	ldr	r3, [r7, #4]
 80053c0:	2220      	movs	r2, #32
 80053c2:	f883 203d 	strb.w	r2, [r3, #61]	@ 0x3d
 80053c6:	687b      	ldr	r3, [r7, #4]
 80053c8:	2200      	movs	r2, #0
 80053ca:	631a      	str	r2, [r3, #48]	@ 0x30
 80053cc:	687b      	ldr	r3, [r7, #4]
 80053ce:	2200      	movs	r2, #0
 80053d0:	f883 203e 	strb.w	r2, [r3, #62]	@ 0x3e
 80053d4:	2300      	movs	r3, #0
 80053d6:	4618      	mov	r0, r3
 80053d8:	3710      	adds	r7, #16
 80053da:	46bd      	mov	sp, r7
 80053dc:	bd80      	pop	{r7, pc}
 80053de:	bf00      	nop
 80053e0:	000186a0 	.word	0x000186a0
 80053e4:	001e847f 	.word	0x001e847f
 80053e8:	003d08ff 	.word	0x003d08ff
 80053ec:	431bde83 	.word	0x431bde83
 80053f0:	10624dd3 	.word	0x10624dd3

080053f4 <I2C_Flush_DR>:
 80053f4:	b480      	push	{r7}
 80053f6:	b083      	sub	sp, #12
 80053f8:	af00      	add	r7, sp, #0
 80053fa:	6078      	str	r0, [r7, #4]
 80053fc:	687b      	ldr	r3, [r7, #4]
 80053fe:	681b      	ldr	r3, [r3, #0]
 8005400:	695b      	ldr	r3, [r3, #20]
 8005402:	f003 0380 	and.w	r3, r3, #128	@ 0x80
 8005406:	2b80      	cmp	r3, #128	@ 0x80
 8005408:	d103      	bne.n	8005412 <I2C_Flush_DR+0x1e>
 800540a:	687b      	ldr	r3, [r7, #4]
 800540c:	681b      	ldr	r3, [r3, #0]
 800540e:	2200      	movs	r2, #0
 8005410:	611a      	str	r2, [r3, #16]
 8005412:	bf00      	nop
 8005414:	370c      	adds	r7, #12
 8005416:	46bd      	mov	sp, r7
 8005418:	bc80      	pop	{r7}
 800541a:	4770      	bx	lr

0800541c <HAL_I2C_Slave_Receive_IT>:
 800541c:	b480      	push	{r7}
 800541e:	b085      	sub	sp, #20
 8005420:	af00      	add	r7, sp, #0
 8005422:	60f8      	str	r0, [r7, #12]
 8005424:	60b9      	str	r1, [r7, #8]
 8005426:	4613      	mov	r3, r2
 8005428:	80fb      	strh	r3, [r7, #6]
 800542a:	68fb      	ldr	r3, [r7, #12]
 800542c:	f893 303d 	ldrb.w	r3, [r3, #61]	@ 0x3d
 8005430:	b2db      	uxtb	r3, r3
 8005432:	2b20      	cmp	r3, #32
 8005434:	d158      	bne.n	80054e8 <HAL_I2C_Slave_Receive_IT+0xcc>
 8005436:	68bb      	ldr	r3, [r7, #8]
 8005438:	2b00      	cmp	r3, #0
 800543a:	d002      	beq.n	8005442 <HAL_I2C_Slave_Receive_IT+0x26>
 800543c:	88fb      	ldrh	r3, [r7, #6]
 800543e:	2b00      	cmp	r3, #0
 8005440:	d101      	bne.n	8005446 <HAL_I2C_Slave_Receive_IT+0x2a>
 8005442:	2301      	movs	r3, #1
 8005444:	e051      	b.n	80054ea <HAL_I2C_Slave_Receive_IT+0xce>
 8005446:	68fb      	ldr	r3, [r7, #12]
 8005448:	f893 303c 	ldrb.w	r3, [r3, #60]	@ 0x3c
 800544c:	2b01      	cmp	r3, #1
 800544e:	d101      	bne.n	8005454 <HAL_I2C_Slave_Receive_IT+0x38>
 8005450:	2302      	movs	r3, #2
 8005452:	e04a      	b.n	80054ea <HAL_I2C_Slave_Receive_IT+0xce>
 8005454:	68fb      	ldr	r3, [r7, #12]
 8005456:	2201      	movs	r2, #1
 8005458:	f883 203c 	strb.w	r2, [r3, #60]	@ 0x3c
 800545c:	68fb      	ldr	r3, [r7, #12]
 800545e:	681b      	ldr	r3, [r3, #0]
 8005460:	681b      	ldr	r3, [r3, #0]
 8005462:	f003 0301 	and.w	r3, r3, #1
 8005466:	2b01      	cmp	r3, #1
 8005468:	d007      	beq.n	800547a <HAL_I2C_Slave_Receive_IT+0x5e>
 800546a:	68fb      	ldr	r3, [r7, #12]
 800546c:	681b      	ldr	r3, [r3, #0]
 800546e:	681a      	ldr	r2, [r3, #0]
 8005470:	68fb      	ldr	r3, [r7, #12]
 8005472:	681b      	ldr	r3, [r3, #0]
 8005474:	f042 0201 	orr.w	r2, r2, #1
 8005478:	601a      	str	r2, [r3, #0]
 800547a:	68fb      	ldr	r3, [r7, #12]
 800547c:	681b      	ldr	r3, [r3, #0]
 800547e:	681a      	ldr	r2, [r3, #0]
 8005480:	68fb      	ldr	r3, [r7, #12]
 8005482:	681b      	ldr	r3, [r3, #0]
 8005484:	f422 6200 	bic.w	r2, r2, #2048	@ 0x800
 8005488:	601a      	str	r2, [r3, #0]
 800548a:	68fb      	ldr	r3, [r7, #12]
 800548c:	2222      	movs	r2, #34	@ 0x22
 800548e:	f883 203d 	strb.w	r2, [r3, #61]	@ 0x3d
 8005492:	68fb      	ldr	r3, [r7, #12]
 8005494:	2220      	movs	r2, #32
 8005496:	f883 203e 	strb.w	r2, [r3, #62]	@ 0x3e
 800549a:	68fb      	ldr	r3, [r7, #12]
 800549c:	2200      	movs	r2, #0
 800549e:	641a      	str	r2, [r3, #64]	@ 0x40
 80054a0:	68fb      	ldr	r3, [r7, #12]
 80054a2:	68ba      	ldr	r2, [r7, #8]
 80054a4:	625a      	str	r2, [r3, #36]	@ 0x24
 80054a6:	68fb      	ldr	r3, [r7, #12]
 80054a8:	88fa      	ldrh	r2, [r7, #6]
 80054aa:	855a      	strh	r2, [r3, #42]	@ 0x2a
 80054ac:	68fb      	ldr	r3, [r7, #12]
 80054ae:	8d5b      	ldrh	r3, [r3, #42]	@ 0x2a
 80054b0:	b29a      	uxth	r2, r3
 80054b2:	68fb      	ldr	r3, [r7, #12]
 80054b4:	851a      	strh	r2, [r3, #40]	@ 0x28
 80054b6:	68fb      	ldr	r3, [r7, #12]
 80054b8:	4a0e      	ldr	r2, [pc, #56]	@ (80054f4 <HAL_I2C_Slave_Receive_IT+0xd8>)
 80054ba:	62da      	str	r2, [r3, #44]	@ 0x2c
 80054bc:	68fb      	ldr	r3, [r7, #12]
 80054be:	681b      	ldr	r3, [r3, #0]
 80054c0:	681a      	ldr	r2, [r3, #0]
 80054c2:	68fb      	ldr	r3, [r7, #12]
 80054c4:	681b      	ldr	r3, [r3, #0]
 80054c6:	f442 6280 	orr.w	r2, r2, #1024	@ 0x400
 80054ca:	601a      	str	r2, [r3, #0]
 80054cc:	68fb      	ldr	r3, [r7, #12]
 80054ce:	2200      	movs	r2, #0
 80054d0:	f883 203c 	strb.w	r2, [r3, #60]	@ 0x3c
 80054d4:	68fb      	ldr	r3, [r7, #12]
 80054d6:	681b      	ldr	r3, [r3, #0]
 80054d8:	685a      	ldr	r2, [r3, #4]
 80054da:	68fb      	ldr	r3, [r7, #12]
 80054dc:	681b      	ldr	r3, [r3, #0]
 80054de:	f442 62e0 	orr.w	r2, r2, #1792	@ 0x700
 80054e2:	605a      	str	r2, [r3, #4]
 80054e4:	2300      	movs	r3, #0
 80054e6:	e000      	b.n	80054ea <HAL_I2C_Slave_Receive_IT+0xce>
 80054e8:	2302      	movs	r3, #2
 80054ea:	4618      	mov	r0, r3
 80054ec:	3714      	adds	r7, #20
 80054ee:	46bd      	mov	sp, r7
 80054f0:	bc80      	pop	{r7}
 80054f2:	4770      	bx	lr
 80054f4:	ffff0000 	.word	0xffff0000

080054f8 <HAL_I2C_EV_IRQHandler>:
 80054f8:	b580      	push	{r7, lr}
 80054fa:	b088      	sub	sp, #32
 80054fc:	af00      	add	r7, sp, #0
 80054fe:	6078      	str	r0, [r7, #4]
 8005500:	2300      	movs	r3, #0
 8005502:	61bb      	str	r3, [r7, #24]
 8005504:	687b      	ldr	r3, [r7, #4]
 8005506:	681b      	ldr	r3, [r3, #0]
 8005508:	685b      	ldr	r3, [r3, #4]
 800550a:	617b      	str	r3, [r7, #20]
 800550c:	687b      	ldr	r3, [r7, #4]
 800550e:	6adb      	ldr	r3, [r3, #44]	@ 0x2c
 8005510:	613b      	str	r3, [r7, #16]
 8005512:	687b      	ldr	r3, [r7, #4]
 8005514:	f893 303e 	ldrb.w	r3, [r3, #62]	@ 0x3e
 8005518:	73fb      	strb	r3, [r7, #15]
 800551a:	687b      	ldr	r3, [r7, #4]
 800551c:	f893 303d 	ldrb.w	r3, [r3, #61]	@ 0x3d
 8005520:	73bb      	strb	r3, [r7, #14]
 8005522:	7bfb      	ldrb	r3, [r7, #15]
 8005524:	2b10      	cmp	r3, #16
 8005526:	d003      	beq.n	8005530 <HAL_I2C_EV_IRQHandler+0x38>
 8005528:	7bfb      	ldrb	r3, [r7, #15]
 800552a:	2b40      	cmp	r3, #64	@ 0x40
 800552c:	f040 80c1 	bne.w	80056b2 <HAL_I2C_EV_IRQHandler+0x1ba>
 8005530:	687b      	ldr	r3, [r7, #4]
 8005532:	681b      	ldr	r3, [r3, #0]
 8005534:	699b      	ldr	r3, [r3, #24]
 8005536:	61bb      	str	r3, [r7, #24]
 8005538:	687b      	ldr	r3, [r7, #4]
 800553a:	681b      	ldr	r3, [r3, #0]
 800553c:	695b      	ldr	r3, [r3, #20]
 800553e:	61fb      	str	r3, [r7, #28]
 8005540:	69fb      	ldr	r3, [r7, #28]
 8005542:	f003 0301 	and.w	r3, r3, #1
 8005546:	2b00      	cmp	r3, #0
 8005548:	d10d      	bne.n	8005566 <HAL_I2C_EV_IRQHandler+0x6e>
 800554a:	693b      	ldr	r3, [r7, #16]
 800554c:	f5b3 0f2a 	cmp.w	r3, #11141120	@ 0xaa0000
 8005550:	d003      	beq.n	800555a <HAL_I2C_EV_IRQHandler+0x62>
 8005552:	693b      	ldr	r3, [r7, #16]
 8005554:	f1b3 4f2a 	cmp.w	r3, #2852126720	@ 0xaa000000
 8005558:	d101      	bne.n	800555e <HAL_I2C_EV_IRQHandler+0x66>
 800555a:	2301      	movs	r3, #1
 800555c:	e000      	b.n	8005560 <HAL_I2C_EV_IRQHandler+0x68>
 800555e:	2300      	movs	r3, #0
 8005560:	2b01      	cmp	r3, #1
 8005562:	f000 8132 	beq.w	80057ca <HAL_I2C_EV_IRQHandler+0x2d2>
 8005566:	69fb      	ldr	r3, [r7, #28]
 8005568:	f003 0301 	and.w	r3, r3, #1
 800556c:	2b00      	cmp	r3, #0
 800556e:	d00c      	beq.n	800558a <HAL_I2C_EV_IRQHandler+0x92>
 8005570:	697b      	ldr	r3, [r7, #20]
 8005572:	0a5b      	lsrs	r3, r3, #9
 8005574:	f003 0301 	and.w	r3, r3, #1
 8005578:	2b00      	cmp	r3, #0
 800557a:	d006      	beq.n	800558a <HAL_I2C_EV_IRQHandler+0x92>
 800557c:	6878      	ldr	r0, [r7, #4]
 800557e:	f001 fc89 	bl	8006e94 <I2C_ConvertOtherXferOptions>
 8005582:	6878      	ldr	r0, [r7, #4]
 8005584:	f000 fd87 	bl	8006096 <I2C_Master_SB>
 8005588:	e092      	b.n	80056b0 <HAL_I2C_EV_IRQHandler+0x1b8>
 800558a:	69fb      	ldr	r3, [r7, #28]
 800558c:	08db      	lsrs	r3, r3, #3
 800558e:	f003 0301 	and.w	r3, r3, #1
 8005592:	2b00      	cmp	r3, #0
 8005594:	d009      	beq.n	80055aa <HAL_I2C_EV_IRQHandler+0xb2>
 8005596:	697b      	ldr	r3, [r7, #20]
 8005598:	0a5b      	lsrs	r3, r3, #9
 800559a:	f003 0301 	and.w	r3, r3, #1
 800559e:	2b00      	cmp	r3, #0
 80055a0:	d003      	beq.n	80055aa <HAL_I2C_EV_IRQHandler+0xb2>
 80055a2:	6878      	ldr	r0, [r7, #4]
 80055a4:	f000 fdfc 	bl	80061a0 <I2C_Master_ADD10>
 80055a8:	e082      	b.n	80056b0 <HAL_I2C_EV_IRQHandler+0x1b8>
 80055aa:	69fb      	ldr	r3, [r7, #28]
 80055ac:	085b      	lsrs	r3, r3, #1
 80055ae:	f003 0301 	and.w	r3, r3, #1
 80055b2:	2b00      	cmp	r3, #0
 80055b4:	d009      	beq.n	80055ca <HAL_I2C_EV_IRQHandler+0xd2>
 80055b6:	697b      	ldr	r3, [r7, #20]
 80055b8:	0a5b      	lsrs	r3, r3, #9
 80055ba:	f003 0301 	and.w	r3, r3, #1
 80055be:	2b00      	cmp	r3, #0
 80055c0:	d003      	beq.n	80055ca <HAL_I2C_EV_IRQHandler+0xd2>
 80055c2:	6878      	ldr	r0, [r7, #4]
 80055c4:	f000 fe15 	bl	80061f2 <I2C_Master_ADDR>
 80055c8:	e072      	b.n	80056b0 <HAL_I2C_EV_IRQHandler+0x1b8>
 80055ca:	69bb      	ldr	r3, [r7, #24]
 80055cc:	089b      	lsrs	r3, r3, #2
 80055ce:	f003 0301 	and.w	r3, r3, #1
 80055d2:	2b00      	cmp	r3, #0
 80055d4:	d03b      	beq.n	800564e <HAL_I2C_EV_IRQHandler+0x156>
 80055d6:	687b      	ldr	r3, [r7, #4]
 80055d8:	681b      	ldr	r3, [r3, #0]
 80055da:	685b      	ldr	r3, [r3, #4]
 80055dc:	f403 6300 	and.w	r3, r3, #2048	@ 0x800
 80055e0:	f5b3 6f00 	cmp.w	r3, #2048	@ 0x800
 80055e4:	f000 80f3 	beq.w	80057ce <HAL_I2C_EV_IRQHandler+0x2d6>
 80055e8:	69fb      	ldr	r3, [r7, #28]
 80055ea:	09db      	lsrs	r3, r3, #7
 80055ec:	f003 0301 	and.w	r3, r3, #1
 80055f0:	2b00      	cmp	r3, #0
 80055f2:	d00f      	beq.n	8005614 <HAL_I2C_EV_IRQHandler+0x11c>
 80055f4:	697b      	ldr	r3, [r7, #20]
 80055f6:	0a9b      	lsrs	r3, r3, #10
 80055f8:	f003 0301 	and.w	r3, r3, #1
 80055fc:	2b00      	cmp	r3, #0
 80055fe:	d009      	beq.n	8005614 <HAL_I2C_EV_IRQHandler+0x11c>
 8005600:	69fb      	ldr	r3, [r7, #28]
 8005602:	089b      	lsrs	r3, r3, #2
 8005604:	f003 0301 	and.w	r3, r3, #1
 8005608:	2b00      	cmp	r3, #0
 800560a:	d103      	bne.n	8005614 <HAL_I2C_EV_IRQHandler+0x11c>
 800560c:	6878      	ldr	r0, [r7, #4]
 800560e:	f000 f9df 	bl	80059d0 <I2C_MasterTransmit_TXE>
 8005612:	e04d      	b.n	80056b0 <HAL_I2C_EV_IRQHandler+0x1b8>
 8005614:	69fb      	ldr	r3, [r7, #28]
 8005616:	089b      	lsrs	r3, r3, #2
 8005618:	f003 0301 	and.w	r3, r3, #1
 800561c:	2b00      	cmp	r3, #0
 800561e:	f000 80d6 	beq.w	80057ce <HAL_I2C_EV_IRQHandler+0x2d6>
 8005622:	697b      	ldr	r3, [r7, #20]
 8005624:	0a5b      	lsrs	r3, r3, #9
 8005626:	f003 0301 	and.w	r3, r3, #1
 800562a:	2b00      	cmp	r3, #0
 800562c:	f000 80cf 	beq.w	80057ce <HAL_I2C_EV_IRQHandler+0x2d6>
 8005630:	7bbb      	ldrb	r3, [r7, #14]
 8005632:	2b21      	cmp	r3, #33	@ 0x21
 8005634:	d103      	bne.n	800563e <HAL_I2C_EV_IRQHandler+0x146>
 8005636:	6878      	ldr	r0, [r7, #4]
 8005638:	f000 fa66 	bl	8005b08 <I2C_MasterTransmit_BTF>
 800563c:	e0c7      	b.n	80057ce <HAL_I2C_EV_IRQHandler+0x2d6>
 800563e:	7bfb      	ldrb	r3, [r7, #15]
 8005640:	2b40      	cmp	r3, #64	@ 0x40
 8005642:	f040 80c4 	bne.w	80057ce <HAL_I2C_EV_IRQHandler+0x2d6>
 8005646:	6878      	ldr	r0, [r7, #4]
 8005648:	f000 fad4 	bl	8005bf4 <I2C_MemoryTransmit_TXE_BTF>
 800564c:	e0bf      	b.n	80057ce <HAL_I2C_EV_IRQHandler+0x2d6>
 800564e:	687b      	ldr	r3, [r7, #4]
 8005650:	681b      	ldr	r3, [r3, #0]
 8005652:	685b      	ldr	r3, [r3, #4]
 8005654:	f403 6300 	and.w	r3, r3, #2048	@ 0x800
 8005658:	f5b3 6f00 	cmp.w	r3, #2048	@ 0x800
 800565c:	f000 80b7 	beq.w	80057ce <HAL_I2C_EV_IRQHandler+0x2d6>
 8005660:	69fb      	ldr	r3, [r7, #28]
 8005662:	099b      	lsrs	r3, r3, #6
 8005664:	f003 0301 	and.w	r3, r3, #1
 8005668:	2b00      	cmp	r3, #0
 800566a:	d00f      	beq.n	800568c <HAL_I2C_EV_IRQHandler+0x194>
 800566c:	697b      	ldr	r3, [r7, #20]
 800566e:	0a9b      	lsrs	r3, r3, #10
 8005670:	f003 0301 	and.w	r3, r3, #1
 8005674:	2b00      	cmp	r3, #0
 8005676:	d009      	beq.n	800568c <HAL_I2C_EV_IRQHandler+0x194>
 8005678:	69fb      	ldr	r3, [r7, #28]
 800567a:	089b      	lsrs	r3, r3, #2
 800567c:	f003 0301 	and.w	r3, r3, #1
 8005680:	2b00      	cmp	r3, #0
 8005682:	d103      	bne.n	800568c <HAL_I2C_EV_IRQHandler+0x194>
 8005684:	6878      	ldr	r0, [r7, #4]
 8005686:	f000 fb4d 	bl	8005d24 <I2C_MasterReceive_RXNE>
 800568a:	e011      	b.n	80056b0 <HAL_I2C_EV_IRQHandler+0x1b8>
 800568c:	69fb      	ldr	r3, [r7, #28]
 800568e:	089b      	lsrs	r3, r3, #2
 8005690:	f003 0301 	and.w	r3, r3, #1
 8005694:	2b00      	cmp	r3, #0
 8005696:	f000 809a 	beq.w	80057ce <HAL_I2C_EV_IRQHandler+0x2d6>
 800569a:	697b      	ldr	r3, [r7, #20]
 800569c:	0a5b      	lsrs	r3, r3, #9
 800569e:	f003 0301 	and.w	r3, r3, #1
 80056a2:	2b00      	cmp	r3, #0
 80056a4:	f000 8093 	beq.w	80057ce <HAL_I2C_EV_IRQHandler+0x2d6>
 80056a8:	6878      	ldr	r0, [r7, #4]
 80056aa:	f000 fc03 	bl	8005eb4 <I2C_MasterReceive_BTF>
 80056ae:	e08e      	b.n	80057ce <HAL_I2C_EV_IRQHandler+0x2d6>
 80056b0:	e08d      	b.n	80057ce <HAL_I2C_EV_IRQHandler+0x2d6>
 80056b2:	687b      	ldr	r3, [r7, #4]
 80056b4:	6c1b      	ldr	r3, [r3, #64]	@ 0x40
 80056b6:	2b00      	cmp	r3, #0
 80056b8:	d004      	beq.n	80056c4 <HAL_I2C_EV_IRQHandler+0x1cc>
 80056ba:	687b      	ldr	r3, [r7, #4]
 80056bc:	681b      	ldr	r3, [r3, #0]
 80056be:	695b      	ldr	r3, [r3, #20]
 80056c0:	61fb      	str	r3, [r7, #28]
 80056c2:	e007      	b.n	80056d4 <HAL_I2C_EV_IRQHandler+0x1dc>
 80056c4:	687b      	ldr	r3, [r7, #4]
 80056c6:	681b      	ldr	r3, [r3, #0]
 80056c8:	699b      	ldr	r3, [r3, #24]
 80056ca:	61bb      	str	r3, [r7, #24]
 80056cc:	687b      	ldr	r3, [r7, #4]
 80056ce:	681b      	ldr	r3, [r3, #0]
 80056d0:	695b      	ldr	r3, [r3, #20]
 80056d2:	61fb      	str	r3, [r7, #28]
 80056d4:	69fb      	ldr	r3, [r7, #28]
 80056d6:	085b      	lsrs	r3, r3, #1
 80056d8:	f003 0301 	and.w	r3, r3, #1
 80056dc:	2b00      	cmp	r3, #0
 80056de:	d012      	beq.n	8005706 <HAL_I2C_EV_IRQHandler+0x20e>
 80056e0:	697b      	ldr	r3, [r7, #20]
 80056e2:	0a5b      	lsrs	r3, r3, #9
 80056e4:	f003 0301 	and.w	r3, r3, #1
 80056e8:	2b00      	cmp	r3, #0
 80056ea:	d00c      	beq.n	8005706 <HAL_I2C_EV_IRQHandler+0x20e>
 80056ec:	687b      	ldr	r3, [r7, #4]
 80056ee:	6c1b      	ldr	r3, [r3, #64]	@ 0x40
 80056f0:	2b00      	cmp	r3, #0
 80056f2:	d003      	beq.n	80056fc <HAL_I2C_EV_IRQHandler+0x204>
 80056f4:	687b      	ldr	r3, [r7, #4]
 80056f6:	681b      	ldr	r3, [r3, #0]
 80056f8:	699b      	ldr	r3, [r3, #24]
 80056fa:	61bb      	str	r3, [r7, #24]
 80056fc:	69b9      	ldr	r1, [r7, #24]
 80056fe:	6878      	ldr	r0, [r7, #4]
 8005700:	f000 ffce 	bl	80066a0 <I2C_Slave_ADDR>
 8005704:	e066      	b.n	80057d4 <HAL_I2C_EV_IRQHandler+0x2dc>
 8005706:	69fb      	ldr	r3, [r7, #28]
 8005708:	091b      	lsrs	r3, r3, #4
 800570a:	f003 0301 	and.w	r3, r3, #1
 800570e:	2b00      	cmp	r3, #0
 8005710:	d009      	beq.n	8005726 <HAL_I2C_EV_IRQHandler+0x22e>
 8005712:	697b      	ldr	r3, [r7, #20]
 8005714:	0a5b      	lsrs	r3, r3, #9
 8005716:	f003 0301 	and.w	r3, r3, #1
 800571a:	2b00      	cmp	r3, #0
 800571c:	d003      	beq.n	8005726 <HAL_I2C_EV_IRQHandler+0x22e>
 800571e:	6878      	ldr	r0, [r7, #4]
 8005720:	f001 f808 	bl	8006734 <I2C_Slave_STOPF>
 8005724:	e056      	b.n	80057d4 <HAL_I2C_EV_IRQHandler+0x2dc>
 8005726:	7bbb      	ldrb	r3, [r7, #14]
 8005728:	2b21      	cmp	r3, #33	@ 0x21
 800572a:	d002      	beq.n	8005732 <HAL_I2C_EV_IRQHandler+0x23a>
 800572c:	7bbb      	ldrb	r3, [r7, #14]
 800572e:	2b29      	cmp	r3, #41	@ 0x29
 8005730:	d125      	bne.n	800577e <HAL_I2C_EV_IRQHandler+0x286>
 8005732:	69fb      	ldr	r3, [r7, #28]
 8005734:	09db      	lsrs	r3, r3, #7
 8005736:	f003 0301 	and.w	r3, r3, #1
 800573a:	2b00      	cmp	r3, #0
 800573c:	d00f      	beq.n	800575e <HAL_I2C_EV_IRQHandler+0x266>
 800573e:	697b      	ldr	r3, [r7, #20]
 8005740:	0a9b      	lsrs	r3, r3, #10
 8005742:	f003 0301 	and.w	r3, r3, #1
 8005746:	2b00      	cmp	r3, #0
 8005748:	d009      	beq.n	800575e <HAL_I2C_EV_IRQHandler+0x266>
 800574a:	69fb      	ldr	r3, [r7, #28]
 800574c:	089b      	lsrs	r3, r3, #2
 800574e:	f003 0301 	and.w	r3, r3, #1
 8005752:	2b00      	cmp	r3, #0
 8005754:	d103      	bne.n	800575e <HAL_I2C_EV_IRQHandler+0x266>
 8005756:	6878      	ldr	r0, [r7, #4]
 8005758:	f000 fee6 	bl	8006528 <I2C_SlaveTransmit_TXE>
 800575c:	e039      	b.n	80057d2 <HAL_I2C_EV_IRQHandler+0x2da>
 800575e:	69fb      	ldr	r3, [r7, #28]
 8005760:	089b      	lsrs	r3, r3, #2
 8005762:	f003 0301 	and.w	r3, r3, #1
 8005766:	2b00      	cmp	r3, #0
 8005768:	d033      	beq.n	80057d2 <HAL_I2C_EV_IRQHandler+0x2da>
 800576a:	697b      	ldr	r3, [r7, #20]
 800576c:	0a5b      	lsrs	r3, r3, #9
 800576e:	f003 0301 	and.w	r3, r3, #1
 8005772:	2b00      	cmp	r3, #0
 8005774:	d02d      	beq.n	80057d2 <HAL_I2C_EV_IRQHandler+0x2da>
 8005776:	6878      	ldr	r0, [r7, #4]
 8005778:	f000 ff13 	bl	80065a2 <I2C_SlaveTransmit_BTF>
 800577c:	e029      	b.n	80057d2 <HAL_I2C_EV_IRQHandler+0x2da>
 800577e:	69fb      	ldr	r3, [r7, #28]
 8005780:	099b      	lsrs	r3, r3, #6
 8005782:	f003 0301 	and.w	r3, r3, #1
 8005786:	2b00      	cmp	r3, #0
 8005788:	d00f      	beq.n	80057aa <HAL_I2C_EV_IRQHandler+0x2b2>
 800578a:	697b      	ldr	r3, [r7, #20]
 800578c:	0a9b      	lsrs	r3, r3, #10
 800578e:	f003 0301 	and.w	r3, r3, #1
 8005792:	2b00      	cmp	r3, #0
 8005794:	d009      	beq.n	80057aa <HAL_I2C_EV_IRQHandler+0x2b2>
 8005796:	69fb      	ldr	r3, [r7, #28]
 8005798:	089b      	lsrs	r3, r3, #2
 800579a:	f003 0301 	and.w	r3, r3, #1
 800579e:	2b00      	cmp	r3, #0
 80057a0:	d103      	bne.n	80057aa <HAL_I2C_EV_IRQHandler+0x2b2>
 80057a2:	6878      	ldr	r0, [r7, #4]
 80057a4:	f000 ff1d 	bl	80065e2 <I2C_SlaveReceive_RXNE>
 80057a8:	e014      	b.n	80057d4 <HAL_I2C_EV_IRQHandler+0x2dc>
 80057aa:	69fb      	ldr	r3, [r7, #28]
 80057ac:	089b      	lsrs	r3, r3, #2
 80057ae:	f003 0301 	and.w	r3, r3, #1
 80057b2:	2b00      	cmp	r3, #0
 80057b4:	d00e      	beq.n	80057d4 <HAL_I2C_EV_IRQHandler+0x2dc>
 80057b6:	697b      	ldr	r3, [r7, #20]
 80057b8:	0a5b      	lsrs	r3, r3, #9
 80057ba:	f003 0301 	and.w	r3, r3, #1
 80057be:	2b00      	cmp	r3, #0
 80057c0:	d008      	beq.n	80057d4 <HAL_I2C_EV_IRQHandler+0x2dc>
 80057c2:	6878      	ldr	r0, [r7, #4]
 80057c4:	f000 ff4b 	bl	800665e <I2C_SlaveReceive_BTF>
 80057c8:	e004      	b.n	80057d4 <HAL_I2C_EV_IRQHandler+0x2dc>
 80057ca:	bf00      	nop
 80057cc:	e002      	b.n	80057d4 <HAL_I2C_EV_IRQHandler+0x2dc>
 80057ce:	bf00      	nop
 80057d0:	e000      	b.n	80057d4 <HAL_I2C_EV_IRQHandler+0x2dc>
 80057d2:	bf00      	nop
 80057d4:	3720      	adds	r7, #32
 80057d6:	46bd      	mov	sp, r7
 80057d8:	bd80      	pop	{r7, pc}

080057da <HAL_I2C_ER_IRQHandler>:
 80057da:	b580      	push	{r7, lr}
 80057dc:	b08a      	sub	sp, #40	@ 0x28
 80057de:	af00      	add	r7, sp, #0
 80057e0:	6078      	str	r0, [r7, #4]
 80057e2:	687b      	ldr	r3, [r7, #4]
 80057e4:	681b      	ldr	r3, [r3, #0]
 80057e6:	695b      	ldr	r3, [r3, #20]
 80057e8:	623b      	str	r3, [r7, #32]
 80057ea:	687b      	ldr	r3, [r7, #4]
 80057ec:	681b      	ldr	r3, [r3, #0]
 80057ee:	685b      	ldr	r3, [r3, #4]
 80057f0:	61fb      	str	r3, [r7, #28]
 80057f2:	2300      	movs	r3, #0
 80057f4:	627b      	str	r3, [r7, #36]	@ 0x24
 80057f6:	687b      	ldr	r3, [r7, #4]
 80057f8:	f893 303e 	ldrb.w	r3, [r3, #62]	@ 0x3e
 80057fc:	76fb      	strb	r3, [r7, #27]
 80057fe:	6a3b      	ldr	r3, [r7, #32]
 8005800:	0a1b      	lsrs	r3, r3, #8
 8005802:	f003 0301 	and.w	r3, r3, #1
 8005806:	2b00      	cmp	r3, #0
 8005808:	d016      	beq.n	8005838 <HAL_I2C_ER_IRQHandler+0x5e>
 800580a:	69fb      	ldr	r3, [r7, #28]
 800580c:	0a1b      	lsrs	r3, r3, #8
 800580e:	f003 0301 	and.w	r3, r3, #1
 8005812:	2b00      	cmp	r3, #0
 8005814:	d010      	beq.n	8005838 <HAL_I2C_ER_IRQHandler+0x5e>
 8005816:	6a7b      	ldr	r3, [r7, #36]	@ 0x24
 8005818:	f043 0301 	orr.w	r3, r3, #1
 800581c:	627b      	str	r3, [r7, #36]	@ 0x24
 800581e:	687b      	ldr	r3, [r7, #4]
 8005820:	681b      	ldr	r3, [r3, #0]
 8005822:	f46f 7280 	mvn.w	r2, #256	@ 0x100
 8005826:	615a      	str	r2, [r3, #20]
 8005828:	687b      	ldr	r3, [r7, #4]
 800582a:	681b      	ldr	r3, [r3, #0]
 800582c:	681a      	ldr	r2, [r3, #0]
 800582e:	687b      	ldr	r3, [r7, #4]
 8005830:	681b      	ldr	r3, [r3, #0]
 8005832:	f442 4200 	orr.w	r2, r2, #32768	@ 0x8000
 8005836:	601a      	str	r2, [r3, #0]
 8005838:	6a3b      	ldr	r3, [r7, #32]
 800583a:	0a5b      	lsrs	r3, r3, #9
 800583c:	f003 0301 	and.w	r3, r3, #1
 8005840:	2b00      	cmp	r3, #0
 8005842:	d00e      	beq.n	8005862 <HAL_I2C_ER_IRQHandler+0x88>
 8005844:	69fb      	ldr	r3, [r7, #28]
 8005846:	0a1b      	lsrs	r3, r3, #8
 8005848:	f003 0301 	and.w	r3, r3, #1
 800584c:	2b00      	cmp	r3, #0
 800584e:	d008      	beq.n	8005862 <HAL_I2C_ER_IRQHandler+0x88>
 8005850:	6a7b      	ldr	r3, [r7, #36]	@ 0x24
 8005852:	f043 0302 	orr.w	r3, r3, #2
 8005856:	627b      	str	r3, [r7, #36]	@ 0x24
 8005858:	687b      	ldr	r3, [r7, #4]
 800585a:	681b      	ldr	r3, [r3, #0]
 800585c:	f46f 7200 	mvn.w	r2, #512	@ 0x200
 8005860:	615a      	str	r2, [r3, #20]
 8005862:	6a3b      	ldr	r3, [r7, #32]
 8005864:	0a9b      	lsrs	r3, r3, #10
 8005866:	f003 0301 	and.w	r3, r3, #1
 800586a:	2b00      	cmp	r3, #0
 800586c:	d03f      	beq.n	80058ee <HAL_I2C_ER_IRQHandler+0x114>
 800586e:	69fb      	ldr	r3, [r7, #28]
 8005870:	0a1b      	lsrs	r3, r3, #8
 8005872:	f003 0301 	and.w	r3, r3, #1
 8005876:	2b00      	cmp	r3, #0
 8005878:	d039      	beq.n	80058ee <HAL_I2C_ER_IRQHandler+0x114>
 800587a:	7efb      	ldrb	r3, [r7, #27]
 800587c:	76bb      	strb	r3, [r7, #26]
 800587e:	687b      	ldr	r3, [r7, #4]
 8005880:	8d5b      	ldrh	r3, [r3, #42]	@ 0x2a
 8005882:	b29b      	uxth	r3, r3
 8005884:	617b      	str	r3, [r7, #20]
 8005886:	687b      	ldr	r3, [r7, #4]
 8005888:	f893 303d 	ldrb.w	r3, [r3, #61]	@ 0x3d
 800588c:	74fb      	strb	r3, [r7, #19]
 800588e:	687b      	ldr	r3, [r7, #4]
 8005890:	6b1b      	ldr	r3, [r3, #48]	@ 0x30
 8005892:	60fb      	str	r3, [r7, #12]
 8005894:	7ebb      	ldrb	r3, [r7, #26]
 8005896:	2b20      	cmp	r3, #32
 8005898:	d112      	bne.n	80058c0 <HAL_I2C_ER_IRQHandler+0xe6>
 800589a:	697b      	ldr	r3, [r7, #20]
 800589c:	2b00      	cmp	r3, #0
 800589e:	d10f      	bne.n	80058c0 <HAL_I2C_ER_IRQHandler+0xe6>
 80058a0:	7cfb      	ldrb	r3, [r7, #19]
 80058a2:	2b21      	cmp	r3, #33	@ 0x21
 80058a4:	d008      	beq.n	80058b8 <HAL_I2C_ER_IRQHandler+0xde>
 80058a6:	7cfb      	ldrb	r3, [r7, #19]
 80058a8:	2b29      	cmp	r3, #41	@ 0x29
 80058aa:	d005      	beq.n	80058b8 <HAL_I2C_ER_IRQHandler+0xde>
 80058ac:	7cfb      	ldrb	r3, [r7, #19]
 80058ae:	2b28      	cmp	r3, #40	@ 0x28
 80058b0:	d106      	bne.n	80058c0 <HAL_I2C_ER_IRQHandler+0xe6>
 80058b2:	68fb      	ldr	r3, [r7, #12]
 80058b4:	2b21      	cmp	r3, #33	@ 0x21
 80058b6:	d103      	bne.n	80058c0 <HAL_I2C_ER_IRQHandler+0xe6>
 80058b8:	6878      	ldr	r0, [r7, #4]
 80058ba:	f001 f86b 	bl	8006994 <I2C_Slave_AF>
 80058be:	e016      	b.n	80058ee <HAL_I2C_ER_IRQHandler+0x114>
 80058c0:	687b      	ldr	r3, [r7, #4]
 80058c2:	681b      	ldr	r3, [r3, #0]
 80058c4:	f46f 6280 	mvn.w	r2, #1024	@ 0x400
 80058c8:	615a      	str	r2, [r3, #20]
 80058ca:	6a7b      	ldr	r3, [r7, #36]	@ 0x24
 80058cc:	f043 0304 	orr.w	r3, r3, #4
 80058d0:	627b      	str	r3, [r7, #36]	@ 0x24
 80058d2:	7efb      	ldrb	r3, [r7, #27]
 80058d4:	2b10      	cmp	r3, #16
 80058d6:	d002      	beq.n	80058de <HAL_I2C_ER_IRQHandler+0x104>
 80058d8:	7efb      	ldrb	r3, [r7, #27]
 80058da:	2b40      	cmp	r3, #64	@ 0x40
 80058dc:	d107      	bne.n	80058ee <HAL_I2C_ER_IRQHandler+0x114>
 80058de:	687b      	ldr	r3, [r7, #4]
 80058e0:	681b      	ldr	r3, [r3, #0]
 80058e2:	681a      	ldr	r2, [r3, #0]
 80058e4:	687b      	ldr	r3, [r7, #4]
 80058e6:	681b      	ldr	r3, [r3, #0]
 80058e8:	f442 7200 	orr.w	r2, r2, #512	@ 0x200
 80058ec:	601a      	str	r2, [r3, #0]
 80058ee:	6a3b      	ldr	r3, [r7, #32]
 80058f0:	0adb      	lsrs	r3, r3, #11
 80058f2:	f003 0301 	and.w	r3, r3, #1
 80058f6:	2b00      	cmp	r3, #0
 80058f8:	d00e      	beq.n	8005918 <HAL_I2C_ER_IRQHandler+0x13e>
 80058fa:	69fb      	ldr	r3, [r7, #28]
 80058fc:	0a1b      	lsrs	r3, r3, #8
 80058fe:	f003 0301 	and.w	r3, r3, #1
 8005902:	2b00      	cmp	r3, #0
 8005904:	d008      	beq.n	8005918 <HAL_I2C_ER_IRQHandler+0x13e>
 8005906:	6a7b      	ldr	r3, [r7, #36]	@ 0x24
 8005908:	f043 0308 	orr.w	r3, r3, #8
 800590c:	627b      	str	r3, [r7, #36]	@ 0x24
 800590e:	687b      	ldr	r3, [r7, #4]
 8005910:	681b      	ldr	r3, [r3, #0]
 8005912:	f46f 6200 	mvn.w	r2, #2048	@ 0x800
 8005916:	615a      	str	r2, [r3, #20]
 8005918:	6a7b      	ldr	r3, [r7, #36]	@ 0x24
 800591a:	2b00      	cmp	r3, #0
 800591c:	d008      	beq.n	8005930 <HAL_I2C_ER_IRQHandler+0x156>
 800591e:	687b      	ldr	r3, [r7, #4]
 8005920:	6c1a      	ldr	r2, [r3, #64]	@ 0x40
 8005922:	6a7b      	ldr	r3, [r7, #36]	@ 0x24
 8005924:	431a      	orrs	r2, r3
 8005926:	687b      	ldr	r3, [r7, #4]
 8005928:	641a      	str	r2, [r3, #64]	@ 0x40
 800592a:	6878      	ldr	r0, [r7, #4]
 800592c:	f001 f8a6 	bl	8006a7c <I2C_ITError>
 8005930:	bf00      	nop
 8005932:	3728      	adds	r7, #40	@ 0x28
 8005934:	46bd      	mov	sp, r7
 8005936:	bd80      	pop	{r7, pc}

08005938 <HAL_I2C_MasterTxCpltCallback>:
 8005938:	b480      	push	{r7}
 800593a:	b083      	sub	sp, #12
 800593c:	af00      	add	r7, sp, #0
 800593e:	6078      	str	r0, [r7, #4]
 8005940:	bf00      	nop
 8005942:	370c      	adds	r7, #12
 8005944:	46bd      	mov	sp, r7
 8005946:	bc80      	pop	{r7}
 8005948:	4770      	bx	lr

0800594a <HAL_I2C_MasterRxCpltCallback>:
 800594a:	b480      	push	{r7}
 800594c:	b083      	sub	sp, #12
 800594e:	af00      	add	r7, sp, #0
 8005950:	6078      	str	r0, [r7, #4]
 8005952:	bf00      	nop
 8005954:	370c      	adds	r7, #12
 8005956:	46bd      	mov	sp, r7
 8005958:	bc80      	pop	{r7}
 800595a:	4770      	bx	lr

0800595c <HAL_I2C_SlaveTxCpltCallback>:
 800595c:	b480      	push	{r7}
 800595e:	b083      	sub	sp, #12
 8005960:	af00      	add	r7, sp, #0
 8005962:	6078      	str	r0, [r7, #4]
 8005964:	bf00      	nop
 8005966:	370c      	adds	r7, #12
 8005968:	46bd      	mov	sp, r7
 800596a:	bc80      	pop	{r7}
 800596c:	4770      	bx	lr

0800596e <HAL_I2C_AddrCallback>:
 800596e:	b480      	push	{r7}
 8005970:	b083      	sub	sp, #12
 8005972:	af00      	add	r7, sp, #0
 8005974:	6078      	str	r0, [r7, #4]
 8005976:	460b      	mov	r3, r1
 8005978:	70fb      	strb	r3, [r7, #3]
 800597a:	4613      	mov	r3, r2
 800597c:	803b      	strh	r3, [r7, #0]
 800597e:	bf00      	nop
 8005980:	370c      	adds	r7, #12
 8005982:	46bd      	mov	sp, r7
 8005984:	bc80      	pop	{r7}
 8005986:	4770      	bx	lr

08005988 <HAL_I2C_ListenCpltCallback>:
 8005988:	b480      	push	{r7}
 800598a:	b083      	sub	sp, #12
 800598c:	af00      	add	r7, sp, #0
 800598e:	6078      	str	r0, [r7, #4]
 8005990:	bf00      	nop
 8005992:	370c      	adds	r7, #12
 8005994:	46bd      	mov	sp, r7
 8005996:	bc80      	pop	{r7}
 8005998:	4770      	bx	lr

0800599a <HAL_I2C_MemTxCpltCallback>:
 800599a:	b480      	push	{r7}
 800599c:	b083      	sub	sp, #12
 800599e:	af00      	add	r7, sp, #0
 80059a0:	6078      	str	r0, [r7, #4]
 80059a2:	bf00      	nop
 80059a4:	370c      	adds	r7, #12
 80059a6:	46bd      	mov	sp, r7
 80059a8:	bc80      	pop	{r7}
 80059aa:	4770      	bx	lr

080059ac <HAL_I2C_MemRxCpltCallback>:
 80059ac:	b480      	push	{r7}
 80059ae:	b083      	sub	sp, #12
 80059b0:	af00      	add	r7, sp, #0
 80059b2:	6078      	str	r0, [r7, #4]
 80059b4:	bf00      	nop
 80059b6:	370c      	adds	r7, #12
 80059b8:	46bd      	mov	sp, r7
 80059ba:	bc80      	pop	{r7}
 80059bc:	4770      	bx	lr

080059be <HAL_I2C_AbortCpltCallback>:
 80059be:	b480      	push	{r7}
 80059c0:	b083      	sub	sp, #12
 80059c2:	af00      	add	r7, sp, #0
 80059c4:	6078      	str	r0, [r7, #4]
 80059c6:	bf00      	nop
 80059c8:	370c      	adds	r7, #12
 80059ca:	46bd      	mov	sp, r7
 80059cc:	bc80      	pop	{r7}
 80059ce:	4770      	bx	lr

080059d0 <I2C_MasterTransmit_TXE>:
 80059d0:	b580      	push	{r7, lr}
 80059d2:	b084      	sub	sp, #16
 80059d4:	af00      	add	r7, sp, #0
 80059d6:	6078      	str	r0, [r7, #4]
 80059d8:	687b      	ldr	r3, [r7, #4]
 80059da:	f893 303d 	ldrb.w	r3, [r3, #61]	@ 0x3d
 80059de:	73fb      	strb	r3, [r7, #15]
 80059e0:	687b      	ldr	r3, [r7, #4]
 80059e2:	f893 303e 	ldrb.w	r3, [r3, #62]	@ 0x3e
 80059e6:	73bb      	strb	r3, [r7, #14]
 80059e8:	687b      	ldr	r3, [r7, #4]
 80059ea:	6adb      	ldr	r3, [r3, #44]	@ 0x2c
 80059ec:	60bb      	str	r3, [r7, #8]
 80059ee:	687b      	ldr	r3, [r7, #4]
 80059f0:	8d1b      	ldrh	r3, [r3, #40]	@ 0x28
 80059f2:	2b00      	cmp	r3, #0
 80059f4:	d150      	bne.n	8005a98 <I2C_MasterTransmit_TXE+0xc8>
 80059f6:	7bfb      	ldrb	r3, [r7, #15]
 80059f8:	2b21      	cmp	r3, #33	@ 0x21
 80059fa:	d14d      	bne.n	8005a98 <I2C_MasterTransmit_TXE+0xc8>
 80059fc:	68bb      	ldr	r3, [r7, #8]
 80059fe:	2b08      	cmp	r3, #8
 8005a00:	d01d      	beq.n	8005a3e <I2C_MasterTransmit_TXE+0x6e>
 8005a02:	68bb      	ldr	r3, [r7, #8]
 8005a04:	2b20      	cmp	r3, #32
 8005a06:	d01a      	beq.n	8005a3e <I2C_MasterTransmit_TXE+0x6e>
 8005a08:	68bb      	ldr	r3, [r7, #8]
 8005a0a:	f513 3f80 	cmn.w	r3, #65536	@ 0x10000
 8005a0e:	d016      	beq.n	8005a3e <I2C_MasterTransmit_TXE+0x6e>
 8005a10:	687b      	ldr	r3, [r7, #4]
 8005a12:	681b      	ldr	r3, [r3, #0]
 8005a14:	685a      	ldr	r2, [r3, #4]
 8005a16:	687b      	ldr	r3, [r7, #4]
 8005a18:	681b      	ldr	r3, [r3, #0]
 8005a1a:	f422 62e0 	bic.w	r2, r2, #1792	@ 0x700
 8005a1e:	605a      	str	r2, [r3, #4]
 8005a20:	687b      	ldr	r3, [r7, #4]
 8005a22:	2211      	movs	r2, #17
 8005a24:	631a      	str	r2, [r3, #48]	@ 0x30
 8005a26:	687b      	ldr	r3, [r7, #4]
 8005a28:	2200      	movs	r2, #0
 8005a2a:	f883 203e 	strb.w	r2, [r3, #62]	@ 0x3e
 8005a2e:	687b      	ldr	r3, [r7, #4]
 8005a30:	2220      	movs	r2, #32
 8005a32:	f883 203d 	strb.w	r2, [r3, #61]	@ 0x3d
 8005a36:	6878      	ldr	r0, [r7, #4]
 8005a38:	f7ff ff7e 	bl	8005938 <HAL_I2C_MasterTxCpltCallback>
 8005a3c:	e060      	b.n	8005b00 <I2C_MasterTransmit_TXE+0x130>
 8005a3e:	687b      	ldr	r3, [r7, #4]
 8005a40:	681b      	ldr	r3, [r3, #0]
 8005a42:	685a      	ldr	r2, [r3, #4]
 8005a44:	687b      	ldr	r3, [r7, #4]
 8005a46:	681b      	ldr	r3, [r3, #0]
 8005a48:	f422 62e0 	bic.w	r2, r2, #1792	@ 0x700
 8005a4c:	605a      	str	r2, [r3, #4]
 8005a4e:	687b      	ldr	r3, [r7, #4]
 8005a50:	681b      	ldr	r3, [r3, #0]
 8005a52:	681a      	ldr	r2, [r3, #0]
 8005a54:	687b      	ldr	r3, [r7, #4]
 8005a56:	681b      	ldr	r3, [r3, #0]
 8005a58:	f442 7200 	orr.w	r2, r2, #512	@ 0x200
 8005a5c:	601a      	str	r2, [r3, #0]
 8005a5e:	687b      	ldr	r3, [r7, #4]
 8005a60:	2200      	movs	r2, #0
 8005a62:	631a      	str	r2, [r3, #48]	@ 0x30
 8005a64:	687b      	ldr	r3, [r7, #4]
 8005a66:	2220      	movs	r2, #32
 8005a68:	f883 203d 	strb.w	r2, [r3, #61]	@ 0x3d
 8005a6c:	687b      	ldr	r3, [r7, #4]
 8005a6e:	f893 303e 	ldrb.w	r3, [r3, #62]	@ 0x3e
 8005a72:	b2db      	uxtb	r3, r3
 8005a74:	2b40      	cmp	r3, #64	@ 0x40
 8005a76:	d107      	bne.n	8005a88 <I2C_MasterTransmit_TXE+0xb8>
 8005a78:	687b      	ldr	r3, [r7, #4]
 8005a7a:	2200      	movs	r2, #0
 8005a7c:	f883 203e 	strb.w	r2, [r3, #62]	@ 0x3e
 8005a80:	6878      	ldr	r0, [r7, #4]
 8005a82:	f7ff ff8a 	bl	800599a <HAL_I2C_MemTxCpltCallback>
 8005a86:	e03b      	b.n	8005b00 <I2C_MasterTransmit_TXE+0x130>
 8005a88:	687b      	ldr	r3, [r7, #4]
 8005a8a:	2200      	movs	r2, #0
 8005a8c:	f883 203e 	strb.w	r2, [r3, #62]	@ 0x3e
 8005a90:	6878      	ldr	r0, [r7, #4]
 8005a92:	f7ff ff51 	bl	8005938 <HAL_I2C_MasterTxCpltCallback>
 8005a96:	e033      	b.n	8005b00 <I2C_MasterTransmit_TXE+0x130>
 8005a98:	7bfb      	ldrb	r3, [r7, #15]
 8005a9a:	2b21      	cmp	r3, #33	@ 0x21
 8005a9c:	d005      	beq.n	8005aaa <I2C_MasterTransmit_TXE+0xda>
 8005a9e:	7bbb      	ldrb	r3, [r7, #14]
 8005aa0:	2b40      	cmp	r3, #64	@ 0x40
 8005aa2:	d12d      	bne.n	8005b00 <I2C_MasterTransmit_TXE+0x130>
 8005aa4:	7bfb      	ldrb	r3, [r7, #15]
 8005aa6:	2b22      	cmp	r3, #34	@ 0x22
 8005aa8:	d12a      	bne.n	8005b00 <I2C_MasterTransmit_TXE+0x130>
 8005aaa:	687b      	ldr	r3, [r7, #4]
 8005aac:	8d5b      	ldrh	r3, [r3, #42]	@ 0x2a
 8005aae:	b29b      	uxth	r3, r3
 8005ab0:	2b00      	cmp	r3, #0
 8005ab2:	d108      	bne.n	8005ac6 <I2C_MasterTransmit_TXE+0xf6>
 8005ab4:	687b      	ldr	r3, [r7, #4]
 8005ab6:	681b      	ldr	r3, [r3, #0]
 8005ab8:	685a      	ldr	r2, [r3, #4]
 8005aba:	687b      	ldr	r3, [r7, #4]
 8005abc:	681b      	ldr	r3, [r3, #0]
 8005abe:	f422 6280 	bic.w	r2, r2, #1024	@ 0x400
 8005ac2:	605a      	str	r2, [r3, #4]
 8005ac4:	e01c      	b.n	8005b00 <I2C_MasterTransmit_TXE+0x130>
 8005ac6:	687b      	ldr	r3, [r7, #4]
 8005ac8:	f893 303e 	ldrb.w	r3, [r3, #62]	@ 0x3e
 8005acc:	b2db      	uxtb	r3, r3
 8005ace:	2b40      	cmp	r3, #64	@ 0x40
 8005ad0:	d103      	bne.n	8005ada <I2C_MasterTransmit_TXE+0x10a>
 8005ad2:	6878      	ldr	r0, [r7, #4]
 8005ad4:	f000 f88e 	bl	8005bf4 <I2C_MemoryTransmit_TXE_BTF>
 8005ad8:	e012      	b.n	8005b00 <I2C_MasterTransmit_TXE+0x130>
 8005ada:	687b      	ldr	r3, [r7, #4]
 8005adc:	6a5b      	ldr	r3, [r3, #36]	@ 0x24
 8005ade:	781a      	ldrb	r2, [r3, #0]
 8005ae0:	687b      	ldr	r3, [r7, #4]
 8005ae2:	681b      	ldr	r3, [r3, #0]
 8005ae4:	611a      	str	r2, [r3, #16]
 8005ae6:	687b      	ldr	r3, [r7, #4]
 8005ae8:	6a5b      	ldr	r3, [r3, #36]	@ 0x24
 8005aea:	1c5a      	adds	r2, r3, #1
 8005aec:	687b      	ldr	r3, [r7, #4]
 8005aee:	625a      	str	r2, [r3, #36]	@ 0x24
 8005af0:	687b      	ldr	r3, [r7, #4]
 8005af2:	8d5b      	ldrh	r3, [r3, #42]	@ 0x2a
 8005af4:	b29b      	uxth	r3, r3
 8005af6:	3b01      	subs	r3, #1
 8005af8:	b29a      	uxth	r2, r3
 8005afa:	687b      	ldr	r3, [r7, #4]
 8005afc:	855a      	strh	r2, [r3, #42]	@ 0x2a
 8005afe:	e7ff      	b.n	8005b00 <I2C_MasterTransmit_TXE+0x130>
 8005b00:	bf00      	nop
 8005b02:	3710      	adds	r7, #16
 8005b04:	46bd      	mov	sp, r7
 8005b06:	bd80      	pop	{r7, pc}

08005b08 <I2C_MasterTransmit_BTF>:
 8005b08:	b580      	push	{r7, lr}
 8005b0a:	b084      	sub	sp, #16
 8005b0c:	af00      	add	r7, sp, #0
 8005b0e:	6078      	str	r0, [r7, #4]
 8005b10:	687b      	ldr	r3, [r7, #4]
 8005b12:	6adb      	ldr	r3, [r3, #44]	@ 0x2c
 8005b14:	60fb      	str	r3, [r7, #12]
 8005b16:	687b      	ldr	r3, [r7, #4]
 8005b18:	f893 303d 	ldrb.w	r3, [r3, #61]	@ 0x3d
 8005b1c:	b2db      	uxtb	r3, r3
 8005b1e:	2b21      	cmp	r3, #33	@ 0x21
 8005b20:	d164      	bne.n	8005bec <I2C_MasterTransmit_BTF+0xe4>
 8005b22:	687b      	ldr	r3, [r7, #4]
 8005b24:	8d5b      	ldrh	r3, [r3, #42]	@ 0x2a
 8005b26:	b29b      	uxth	r3, r3
 8005b28:	2b00      	cmp	r3, #0
 8005b2a:	d012      	beq.n	8005b52 <I2C_MasterTransmit_BTF+0x4a>
 8005b2c:	687b      	ldr	r3, [r7, #4]
 8005b2e:	6a5b      	ldr	r3, [r3, #36]	@ 0x24
 8005b30:	781a      	ldrb	r2, [r3, #0]
 8005b32:	687b      	ldr	r3, [r7, #4]
 8005b34:	681b      	ldr	r3, [r3, #0]
 8005b36:	611a      	str	r2, [r3, #16]
 8005b38:	687b      	ldr	r3, [r7, #4]
 8005b3a:	6a5b      	ldr	r3, [r3, #36]	@ 0x24
 8005b3c:	1c5a      	adds	r2, r3, #1
 8005b3e:	687b      	ldr	r3, [r7, #4]
 8005b40:	625a      	str	r2, [r3, #36]	@ 0x24
 8005b42:	687b      	ldr	r3, [r7, #4]
 8005b44:	8d5b      	ldrh	r3, [r3, #42]	@ 0x2a
 8005b46:	b29b      	uxth	r3, r3
 8005b48:	3b01      	subs	r3, #1
 8005b4a:	b29a      	uxth	r2, r3
 8005b4c:	687b      	ldr	r3, [r7, #4]
 8005b4e:	855a      	strh	r2, [r3, #42]	@ 0x2a
 8005b50:	e04c      	b.n	8005bec <I2C_MasterTransmit_BTF+0xe4>
 8005b52:	68fb      	ldr	r3, [r7, #12]
 8005b54:	2b08      	cmp	r3, #8
 8005b56:	d01d      	beq.n	8005b94 <I2C_MasterTransmit_BTF+0x8c>
 8005b58:	68fb      	ldr	r3, [r7, #12]
 8005b5a:	2b20      	cmp	r3, #32
 8005b5c:	d01a      	beq.n	8005b94 <I2C_MasterTransmit_BTF+0x8c>
 8005b5e:	68fb      	ldr	r3, [r7, #12]
 8005b60:	f513 3f80 	cmn.w	r3, #65536	@ 0x10000
 8005b64:	d016      	beq.n	8005b94 <I2C_MasterTransmit_BTF+0x8c>
 8005b66:	687b      	ldr	r3, [r7, #4]
 8005b68:	681b      	ldr	r3, [r3, #0]
 8005b6a:	685a      	ldr	r2, [r3, #4]
 8005b6c:	687b      	ldr	r3, [r7, #4]
 8005b6e:	681b      	ldr	r3, [r3, #0]
 8005b70:	f422 62e0 	bic.w	r2, r2, #1792	@ 0x700
 8005b74:	605a      	str	r2, [r3, #4]
 8005b76:	687b      	ldr	r3, [r7, #4]
 8005b78:	2211      	movs	r2, #17
 8005b7a:	631a      	str	r2, [r3, #48]	@ 0x30
 8005b7c:	687b      	ldr	r3, [r7, #4]
 8005b7e:	2200      	movs	r2, #0
 8005b80:	f883 203e 	strb.w	r2, [r3, #62]	@ 0x3e
 8005b84:	687b      	ldr	r3, [r7, #4]
 8005b86:	2220      	movs	r2, #32
 8005b88:	f883 203d 	strb.w	r2, [r3, #61]	@ 0x3d
 8005b8c:	6878      	ldr	r0, [r7, #4]
 8005b8e:	f7ff fed3 	bl	8005938 <HAL_I2C_MasterTxCpltCallback>
 8005b92:	e02b      	b.n	8005bec <I2C_MasterTransmit_BTF+0xe4>
 8005b94:	687b      	ldr	r3, [r7, #4]
 8005b96:	681b      	ldr	r3, [r3, #0]
 8005b98:	685a      	ldr	r2, [r3, #4]
 8005b9a:	687b      	ldr	r3, [r7, #4]
 8005b9c:	681b      	ldr	r3, [r3, #0]
 8005b9e:	f422 62e0 	bic.w	r2, r2, #1792	@ 0x700
 8005ba2:	605a      	str	r2, [r3, #4]
 8005ba4:	687b      	ldr	r3, [r7, #4]
 8005ba6:	681b      	ldr	r3, [r3, #0]
 8005ba8:	681a      	ldr	r2, [r3, #0]
 8005baa:	687b      	ldr	r3, [r7, #4]
 8005bac:	681b      	ldr	r3, [r3, #0]
 8005bae:	f442 7200 	orr.w	r2, r2, #512	@ 0x200
 8005bb2:	601a      	str	r2, [r3, #0]
 8005bb4:	687b      	ldr	r3, [r7, #4]
 8005bb6:	2200      	movs	r2, #0
 8005bb8:	631a      	str	r2, [r3, #48]	@ 0x30
 8005bba:	687b      	ldr	r3, [r7, #4]
 8005bbc:	2220      	movs	r2, #32
 8005bbe:	f883 203d 	strb.w	r2, [r3, #61]	@ 0x3d
 8005bc2:	687b      	ldr	r3, [r7, #4]
 8005bc4:	f893 303e 	ldrb.w	r3, [r3, #62]	@ 0x3e
 8005bc8:	b2db      	uxtb	r3, r3
 8005bca:	2b40      	cmp	r3, #64	@ 0x40
 8005bcc:	d107      	bne.n	8005bde <I2C_MasterTransmit_BTF+0xd6>
 8005bce:	687b      	ldr	r3, [r7, #4]
 8005bd0:	2200      	movs	r2, #0
 8005bd2:	f883 203e 	strb.w	r2, [r3, #62]	@ 0x3e
 8005bd6:	6878      	ldr	r0, [r7, #4]
 8005bd8:	f7ff fedf 	bl	800599a <HAL_I2C_MemTxCpltCallback>
 8005bdc:	e006      	b.n	8005bec <I2C_MasterTransmit_BTF+0xe4>
 8005bde:	687b      	ldr	r3, [r7, #4]
 8005be0:	2200      	movs	r2, #0
 8005be2:	f883 203e 	strb.w	r2, [r3, #62]	@ 0x3e
 8005be6:	6878      	ldr	r0, [r7, #4]
 8005be8:	f7ff fea6 	bl	8005938 <HAL_I2C_MasterTxCpltCallback>
 8005bec:	bf00      	nop
 8005bee:	3710      	adds	r7, #16
 8005bf0:	46bd      	mov	sp, r7
 8005bf2:	bd80      	pop	{r7, pc}

08005bf4 <I2C_MemoryTransmit_TXE_BTF>:
 8005bf4:	b580      	push	{r7, lr}
 8005bf6:	b084      	sub	sp, #16
 8005bf8:	af00      	add	r7, sp, #0
 8005bfa:	6078      	str	r0, [r7, #4]
 8005bfc:	687b      	ldr	r3, [r7, #4]
 8005bfe:	f893 303d 	ldrb.w	r3, [r3, #61]	@ 0x3d
 8005c02:	73fb      	strb	r3, [r7, #15]
 8005c04:	687b      	ldr	r3, [r7, #4]
 8005c06:	6d1b      	ldr	r3, [r3, #80]	@ 0x50
 8005c08:	2b00      	cmp	r3, #0
 8005c0a:	d11d      	bne.n	8005c48 <I2C_MemoryTransmit_TXE_BTF+0x54>
 8005c0c:	687b      	ldr	r3, [r7, #4]
 8005c0e:	6cdb      	ldr	r3, [r3, #76]	@ 0x4c
 8005c10:	2b01      	cmp	r3, #1
 8005c12:	d10b      	bne.n	8005c2c <I2C_MemoryTransmit_TXE_BTF+0x38>
 8005c14:	687b      	ldr	r3, [r7, #4]
 8005c16:	6c9b      	ldr	r3, [r3, #72]	@ 0x48
 8005c18:	b2da      	uxtb	r2, r3
 8005c1a:	687b      	ldr	r3, [r7, #4]
 8005c1c:	681b      	ldr	r3, [r3, #0]
 8005c1e:	611a      	str	r2, [r3, #16]
 8005c20:	687b      	ldr	r3, [r7, #4]
 8005c22:	6d1b      	ldr	r3, [r3, #80]	@ 0x50
 8005c24:	1c9a      	adds	r2, r3, #2
 8005c26:	687b      	ldr	r3, [r7, #4]
 8005c28:	651a      	str	r2, [r3, #80]	@ 0x50
 8005c2a:	e077      	b.n	8005d1c <I2C_MemoryTransmit_TXE_BTF+0x128>
 8005c2c:	687b      	ldr	r3, [r7, #4]
 8005c2e:	6c9b      	ldr	r3, [r3, #72]	@ 0x48
 8005c30:	b29b      	uxth	r3, r3
 8005c32:	121b      	asrs	r3, r3, #8
 8005c34:	b2da      	uxtb	r2, r3
 8005c36:	687b      	ldr	r3, [r7, #4]
 8005c38:	681b      	ldr	r3, [r3, #0]
 8005c3a:	611a      	str	r2, [r3, #16]
 8005c3c:	687b      	ldr	r3, [r7, #4]
 8005c3e:	6d1b      	ldr	r3, [r3, #80]	@ 0x50
 8005c40:	1c5a      	adds	r2, r3, #1
 8005c42:	687b      	ldr	r3, [r7, #4]
 8005c44:	651a      	str	r2, [r3, #80]	@ 0x50
 8005c46:	e069      	b.n	8005d1c <I2C_MemoryTransmit_TXE_BTF+0x128>
 8005c48:	687b      	ldr	r3, [r7, #4]
 8005c4a:	6d1b      	ldr	r3, [r3, #80]	@ 0x50
 8005c4c:	2b01      	cmp	r3, #1
 8005c4e:	d10b      	bne.n	8005c68 <I2C_MemoryTransmit_TXE_BTF+0x74>
 8005c50:	687b      	ldr	r3, [r7, #4]
 8005c52:	6c9b      	ldr	r3, [r3, #72]	@ 0x48
 8005c54:	b2da      	uxtb	r2, r3
 8005c56:	687b      	ldr	r3, [r7, #4]
 8005c58:	681b      	ldr	r3, [r3, #0]
 8005c5a:	611a      	str	r2, [r3, #16]
 8005c5c:	687b      	ldr	r3, [r7, #4]
 8005c5e:	6d1b      	ldr	r3, [r3, #80]	@ 0x50
 8005c60:	1c5a      	adds	r2, r3, #1
 8005c62:	687b      	ldr	r3, [r7, #4]
 8005c64:	651a      	str	r2, [r3, #80]	@ 0x50
 8005c66:	e059      	b.n	8005d1c <I2C_MemoryTransmit_TXE_BTF+0x128>
 8005c68:	687b      	ldr	r3, [r7, #4]
 8005c6a:	6d1b      	ldr	r3, [r3, #80]	@ 0x50
 8005c6c:	2b02      	cmp	r3, #2
 8005c6e:	d152      	bne.n	8005d16 <I2C_MemoryTransmit_TXE_BTF+0x122>
 8005c70:	7bfb      	ldrb	r3, [r7, #15]
 8005c72:	2b22      	cmp	r3, #34	@ 0x22
 8005c74:	d10d      	bne.n	8005c92 <I2C_MemoryTransmit_TXE_BTF+0x9e>
 8005c76:	687b      	ldr	r3, [r7, #4]
 8005c78:	681b      	ldr	r3, [r3, #0]
 8005c7a:	681a      	ldr	r2, [r3, #0]
 8005c7c:	687b      	ldr	r3, [r7, #4]
 8005c7e:	681b      	ldr	r3, [r3, #0]
 8005c80:	f442 7280 	orr.w	r2, r2, #256	@ 0x100
 8005c84:	601a      	str	r2, [r3, #0]
 8005c86:	687b      	ldr	r3, [r7, #4]
 8005c88:	6d1b      	ldr	r3, [r3, #80]	@ 0x50
 8005c8a:	1c5a      	adds	r2, r3, #1
 8005c8c:	687b      	ldr	r3, [r7, #4]
 8005c8e:	651a      	str	r2, [r3, #80]	@ 0x50
 8005c90:	e044      	b.n	8005d1c <I2C_MemoryTransmit_TXE_BTF+0x128>
 8005c92:	687b      	ldr	r3, [r7, #4]
 8005c94:	8d5b      	ldrh	r3, [r3, #42]	@ 0x2a
 8005c96:	b29b      	uxth	r3, r3
 8005c98:	2b00      	cmp	r3, #0
 8005c9a:	d015      	beq.n	8005cc8 <I2C_MemoryTransmit_TXE_BTF+0xd4>
 8005c9c:	7bfb      	ldrb	r3, [r7, #15]
 8005c9e:	2b21      	cmp	r3, #33	@ 0x21
 8005ca0:	d112      	bne.n	8005cc8 <I2C_MemoryTransmit_TXE_BTF+0xd4>
 8005ca2:	687b      	ldr	r3, [r7, #4]
 8005ca4:	6a5b      	ldr	r3, [r3, #36]	@ 0x24
 8005ca6:	781a      	ldrb	r2, [r3, #0]
 8005ca8:	687b      	ldr	r3, [r7, #4]
 8005caa:	681b      	ldr	r3, [r3, #0]
 8005cac:	611a      	str	r2, [r3, #16]
 8005cae:	687b      	ldr	r3, [r7, #4]
 8005cb0:	6a5b      	ldr	r3, [r3, #36]	@ 0x24
 8005cb2:	1c5a      	adds	r2, r3, #1
 8005cb4:	687b      	ldr	r3, [r7, #4]
 8005cb6:	625a      	str	r2, [r3, #36]	@ 0x24
 8005cb8:	687b      	ldr	r3, [r7, #4]
 8005cba:	8d5b      	ldrh	r3, [r3, #42]	@ 0x2a
 8005cbc:	b29b      	uxth	r3, r3
 8005cbe:	3b01      	subs	r3, #1
 8005cc0:	b29a      	uxth	r2, r3
 8005cc2:	687b      	ldr	r3, [r7, #4]
 8005cc4:	855a      	strh	r2, [r3, #42]	@ 0x2a
 8005cc6:	e029      	b.n	8005d1c <I2C_MemoryTransmit_TXE_BTF+0x128>
 8005cc8:	687b      	ldr	r3, [r7, #4]
 8005cca:	8d5b      	ldrh	r3, [r3, #42]	@ 0x2a
 8005ccc:	b29b      	uxth	r3, r3
 8005cce:	2b00      	cmp	r3, #0
 8005cd0:	d124      	bne.n	8005d1c <I2C_MemoryTransmit_TXE_BTF+0x128>
 8005cd2:	7bfb      	ldrb	r3, [r7, #15]
 8005cd4:	2b21      	cmp	r3, #33	@ 0x21
 8005cd6:	d121      	bne.n	8005d1c <I2C_MemoryTransmit_TXE_BTF+0x128>
 8005cd8:	687b      	ldr	r3, [r7, #4]
 8005cda:	681b      	ldr	r3, [r3, #0]
 8005cdc:	685a      	ldr	r2, [r3, #4]
 8005cde:	687b      	ldr	r3, [r7, #4]
 8005ce0:	681b      	ldr	r3, [r3, #0]
 8005ce2:	f422 62e0 	bic.w	r2, r2, #1792	@ 0x700
 8005ce6:	605a      	str	r2, [r3, #4]
 8005ce8:	687b      	ldr	r3, [r7, #4]
 8005cea:	681b      	ldr	r3, [r3, #0]
 8005cec:	681a      	ldr	r2, [r3, #0]
 8005cee:	687b      	ldr	r3, [r7, #4]
 8005cf0:	681b      	ldr	r3, [r3, #0]
 8005cf2:	f442 7200 	orr.w	r2, r2, #512	@ 0x200
 8005cf6:	601a      	str	r2, [r3, #0]
 8005cf8:	687b      	ldr	r3, [r7, #4]
 8005cfa:	2200      	movs	r2, #0
 8005cfc:	631a      	str	r2, [r3, #48]	@ 0x30
 8005cfe:	687b      	ldr	r3, [r7, #4]
 8005d00:	2220      	movs	r2, #32
 8005d02:	f883 203d 	strb.w	r2, [r3, #61]	@ 0x3d
 8005d06:	687b      	ldr	r3, [r7, #4]
 8005d08:	2200      	movs	r2, #0
 8005d0a:	f883 203e 	strb.w	r2, [r3, #62]	@ 0x3e
 8005d0e:	6878      	ldr	r0, [r7, #4]
 8005d10:	f7ff fe43 	bl	800599a <HAL_I2C_MemTxCpltCallback>
 8005d14:	e002      	b.n	8005d1c <I2C_MemoryTransmit_TXE_BTF+0x128>
 8005d16:	6878      	ldr	r0, [r7, #4]
 8005d18:	f7ff fb6c 	bl	80053f4 <I2C_Flush_DR>
 8005d1c:	bf00      	nop
 8005d1e:	3710      	adds	r7, #16
 8005d20:	46bd      	mov	sp, r7
 8005d22:	bd80      	pop	{r7, pc}

08005d24 <I2C_MasterReceive_RXNE>:
 8005d24:	b580      	push	{r7, lr}
 8005d26:	b084      	sub	sp, #16
 8005d28:	af00      	add	r7, sp, #0
 8005d2a:	6078      	str	r0, [r7, #4]
 8005d2c:	687b      	ldr	r3, [r7, #4]
 8005d2e:	f893 303d 	ldrb.w	r3, [r3, #61]	@ 0x3d
 8005d32:	b2db      	uxtb	r3, r3
 8005d34:	2b22      	cmp	r3, #34	@ 0x22
 8005d36:	f040 80b9 	bne.w	8005eac <I2C_MasterReceive_RXNE+0x188>
 8005d3a:	687b      	ldr	r3, [r7, #4]
 8005d3c:	6adb      	ldr	r3, [r3, #44]	@ 0x2c
 8005d3e:	60fb      	str	r3, [r7, #12]
 8005d40:	687b      	ldr	r3, [r7, #4]
 8005d42:	8d5b      	ldrh	r3, [r3, #42]	@ 0x2a
 8005d44:	b29b      	uxth	r3, r3
 8005d46:	60bb      	str	r3, [r7, #8]
 8005d48:	68bb      	ldr	r3, [r7, #8]
 8005d4a:	2b03      	cmp	r3, #3
 8005d4c:	d921      	bls.n	8005d92 <I2C_MasterReceive_RXNE+0x6e>
 8005d4e:	687b      	ldr	r3, [r7, #4]
 8005d50:	681b      	ldr	r3, [r3, #0]
 8005d52:	691a      	ldr	r2, [r3, #16]
 8005d54:	687b      	ldr	r3, [r7, #4]
 8005d56:	6a5b      	ldr	r3, [r3, #36]	@ 0x24
 8005d58:	b2d2      	uxtb	r2, r2
 8005d5a:	701a      	strb	r2, [r3, #0]
 8005d5c:	687b      	ldr	r3, [r7, #4]
 8005d5e:	6a5b      	ldr	r3, [r3, #36]	@ 0x24
 8005d60:	1c5a      	adds	r2, r3, #1
 8005d62:	687b      	ldr	r3, [r7, #4]
 8005d64:	625a      	str	r2, [r3, #36]	@ 0x24
 8005d66:	687b      	ldr	r3, [r7, #4]
 8005d68:	8d5b      	ldrh	r3, [r3, #42]	@ 0x2a
 8005d6a:	b29b      	uxth	r3, r3
 8005d6c:	3b01      	subs	r3, #1
 8005d6e:	b29a      	uxth	r2, r3
 8005d70:	687b      	ldr	r3, [r7, #4]
 8005d72:	855a      	strh	r2, [r3, #42]	@ 0x2a
 8005d74:	687b      	ldr	r3, [r7, #4]
 8005d76:	8d5b      	ldrh	r3, [r3, #42]	@ 0x2a
 8005d78:	b29b      	uxth	r3, r3
 8005d7a:	2b03      	cmp	r3, #3
 8005d7c:	f040 8096 	bne.w	8005eac <I2C_MasterReceive_RXNE+0x188>
 8005d80:	687b      	ldr	r3, [r7, #4]
 8005d82:	681b      	ldr	r3, [r3, #0]
 8005d84:	685a      	ldr	r2, [r3, #4]
 8005d86:	687b      	ldr	r3, [r7, #4]
 8005d88:	681b      	ldr	r3, [r3, #0]
 8005d8a:	f422 6280 	bic.w	r2, r2, #1024	@ 0x400
 8005d8e:	605a      	str	r2, [r3, #4]
 8005d90:	e08c      	b.n	8005eac <I2C_MasterReceive_RXNE+0x188>
 8005d92:	687b      	ldr	r3, [r7, #4]
 8005d94:	6adb      	ldr	r3, [r3, #44]	@ 0x2c
 8005d96:	2b02      	cmp	r3, #2
 8005d98:	d07f      	beq.n	8005e9a <I2C_MasterReceive_RXNE+0x176>
 8005d9a:	68bb      	ldr	r3, [r7, #8]
 8005d9c:	2b01      	cmp	r3, #1
 8005d9e:	d002      	beq.n	8005da6 <I2C_MasterReceive_RXNE+0x82>
 8005da0:	68bb      	ldr	r3, [r7, #8]
 8005da2:	2b00      	cmp	r3, #0
 8005da4:	d179      	bne.n	8005e9a <I2C_MasterReceive_RXNE+0x176>
 8005da6:	6878      	ldr	r0, [r7, #4]
 8005da8:	f001 f842 	bl	8006e30 <I2C_WaitOnSTOPRequestThroughIT>
 8005dac:	4603      	mov	r3, r0
 8005dae:	2b00      	cmp	r3, #0
 8005db0:	d14c      	bne.n	8005e4c <I2C_MasterReceive_RXNE+0x128>
 8005db2:	687b      	ldr	r3, [r7, #4]
 8005db4:	681b      	ldr	r3, [r3, #0]
 8005db6:	681a      	ldr	r2, [r3, #0]
 8005db8:	687b      	ldr	r3, [r7, #4]
 8005dba:	681b      	ldr	r3, [r3, #0]
 8005dbc:	f422 6280 	bic.w	r2, r2, #1024	@ 0x400
 8005dc0:	601a      	str	r2, [r3, #0]
 8005dc2:	687b      	ldr	r3, [r7, #4]
 8005dc4:	681b      	ldr	r3, [r3, #0]
 8005dc6:	685a      	ldr	r2, [r3, #4]
 8005dc8:	687b      	ldr	r3, [r7, #4]
 8005dca:	681b      	ldr	r3, [r3, #0]
 8005dcc:	f422 62e0 	bic.w	r2, r2, #1792	@ 0x700
 8005dd0:	605a      	str	r2, [r3, #4]
 8005dd2:	687b      	ldr	r3, [r7, #4]
 8005dd4:	681b      	ldr	r3, [r3, #0]
 8005dd6:	691a      	ldr	r2, [r3, #16]
 8005dd8:	687b      	ldr	r3, [r7, #4]
 8005dda:	6a5b      	ldr	r3, [r3, #36]	@ 0x24
 8005ddc:	b2d2      	uxtb	r2, r2
 8005dde:	701a      	strb	r2, [r3, #0]
 8005de0:	687b      	ldr	r3, [r7, #4]
 8005de2:	6a5b      	ldr	r3, [r3, #36]	@ 0x24
 8005de4:	1c5a      	adds	r2, r3, #1
 8005de6:	687b      	ldr	r3, [r7, #4]
 8005de8:	625a      	str	r2, [r3, #36]	@ 0x24
 8005dea:	687b      	ldr	r3, [r7, #4]
 8005dec:	8d5b      	ldrh	r3, [r3, #42]	@ 0x2a
 8005dee:	b29b      	uxth	r3, r3
 8005df0:	3b01      	subs	r3, #1
 8005df2:	b29a      	uxth	r2, r3
 8005df4:	687b      	ldr	r3, [r7, #4]
 8005df6:	855a      	strh	r2, [r3, #42]	@ 0x2a
 8005df8:	687b      	ldr	r3, [r7, #4]
 8005dfa:	2220      	movs	r2, #32
 8005dfc:	f883 203d 	strb.w	r2, [r3, #61]	@ 0x3d
 8005e00:	687b      	ldr	r3, [r7, #4]
 8005e02:	f893 303e 	ldrb.w	r3, [r3, #62]	@ 0x3e
 8005e06:	b2db      	uxtb	r3, r3
 8005e08:	2b40      	cmp	r3, #64	@ 0x40
 8005e0a:	d10a      	bne.n	8005e22 <I2C_MasterReceive_RXNE+0xfe>
 8005e0c:	687b      	ldr	r3, [r7, #4]
 8005e0e:	2200      	movs	r2, #0
 8005e10:	f883 203e 	strb.w	r2, [r3, #62]	@ 0x3e
 8005e14:	687b      	ldr	r3, [r7, #4]
 8005e16:	2200      	movs	r2, #0
 8005e18:	631a      	str	r2, [r3, #48]	@ 0x30
 8005e1a:	6878      	ldr	r0, [r7, #4]
 8005e1c:	f7ff fdc6 	bl	80059ac <HAL_I2C_MemRxCpltCallback>
 8005e20:	e044      	b.n	8005eac <I2C_MasterReceive_RXNE+0x188>
 8005e22:	687b      	ldr	r3, [r7, #4]
 8005e24:	2200      	movs	r2, #0
 8005e26:	f883 203e 	strb.w	r2, [r3, #62]	@ 0x3e
 8005e2a:	68fb      	ldr	r3, [r7, #12]
 8005e2c:	2b08      	cmp	r3, #8
 8005e2e:	d002      	beq.n	8005e36 <I2C_MasterReceive_RXNE+0x112>
 8005e30:	68fb      	ldr	r3, [r7, #12]
 8005e32:	2b20      	cmp	r3, #32
 8005e34:	d103      	bne.n	8005e3e <I2C_MasterReceive_RXNE+0x11a>
 8005e36:	687b      	ldr	r3, [r7, #4]
 8005e38:	2200      	movs	r2, #0
 8005e3a:	631a      	str	r2, [r3, #48]	@ 0x30
 8005e3c:	e002      	b.n	8005e44 <I2C_MasterReceive_RXNE+0x120>
 8005e3e:	687b      	ldr	r3, [r7, #4]
 8005e40:	2212      	movs	r2, #18
 8005e42:	631a      	str	r2, [r3, #48]	@ 0x30
 8005e44:	6878      	ldr	r0, [r7, #4]
 8005e46:	f7ff fd80 	bl	800594a <HAL_I2C_MasterRxCpltCallback>
 8005e4a:	e02f      	b.n	8005eac <I2C_MasterReceive_RXNE+0x188>
 8005e4c:	687b      	ldr	r3, [r7, #4]
 8005e4e:	681b      	ldr	r3, [r3, #0]
 8005e50:	685a      	ldr	r2, [r3, #4]
 8005e52:	687b      	ldr	r3, [r7, #4]
 8005e54:	681b      	ldr	r3, [r3, #0]
 8005e56:	f422 62e0 	bic.w	r2, r2, #1792	@ 0x700
 8005e5a:	605a      	str	r2, [r3, #4]
 8005e5c:	687b      	ldr	r3, [r7, #4]
 8005e5e:	681b      	ldr	r3, [r3, #0]
 8005e60:	691a      	ldr	r2, [r3, #16]
 8005e62:	687b      	ldr	r3, [r7, #4]
 8005e64:	6a5b      	ldr	r3, [r3, #36]	@ 0x24
 8005e66:	b2d2      	uxtb	r2, r2
 8005e68:	701a      	strb	r2, [r3, #0]
 8005e6a:	687b      	ldr	r3, [r7, #4]
 8005e6c:	6a5b      	ldr	r3, [r3, #36]	@ 0x24
 8005e6e:	1c5a      	adds	r2, r3, #1
 8005e70:	687b      	ldr	r3, [r7, #4]
 8005e72:	625a      	str	r2, [r3, #36]	@ 0x24
 8005e74:	687b      	ldr	r3, [r7, #4]
 8005e76:	8d5b      	ldrh	r3, [r3, #42]	@ 0x2a
 8005e78:	b29b      	uxth	r3, r3
 8005e7a:	3b01      	subs	r3, #1
 8005e7c:	b29a      	uxth	r2, r3
 8005e7e:	687b      	ldr	r3, [r7, #4]
 8005e80:	855a      	strh	r2, [r3, #42]	@ 0x2a
 8005e82:	687b      	ldr	r3, [r7, #4]
 8005e84:	2220      	movs	r2, #32
 8005e86:	f883 203d 	strb.w	r2, [r3, #61]	@ 0x3d
 8005e8a:	687b      	ldr	r3, [r7, #4]
 8005e8c:	2200      	movs	r2, #0
 8005e8e:	f883 203e 	strb.w	r2, [r3, #62]	@ 0x3e
 8005e92:	6878      	ldr	r0, [r7, #4]
 8005e94:	f7fb fb00 	bl	8001498 <HAL_I2C_ErrorCallback>
 8005e98:	e008      	b.n	8005eac <I2C_MasterReceive_RXNE+0x188>
 8005e9a:	687b      	ldr	r3, [r7, #4]
 8005e9c:	681b      	ldr	r3, [r3, #0]
 8005e9e:	685a      	ldr	r2, [r3, #4]
 8005ea0:	687b      	ldr	r3, [r7, #4]
 8005ea2:	681b      	ldr	r3, [r3, #0]
 8005ea4:	f422 6280 	bic.w	r2, r2, #1024	@ 0x400
 8005ea8:	605a      	str	r2, [r3, #4]
 8005eaa:	e7ff      	b.n	8005eac <I2C_MasterReceive_RXNE+0x188>
 8005eac:	bf00      	nop
 8005eae:	3710      	adds	r7, #16
 8005eb0:	46bd      	mov	sp, r7
 8005eb2:	bd80      	pop	{r7, pc}

08005eb4 <I2C_MasterReceive_BTF>:
 8005eb4:	b580      	push	{r7, lr}
 8005eb6:	b084      	sub	sp, #16
 8005eb8:	af00      	add	r7, sp, #0
 8005eba:	6078      	str	r0, [r7, #4]
 8005ebc:	687b      	ldr	r3, [r7, #4]
 8005ebe:	6adb      	ldr	r3, [r3, #44]	@ 0x2c
 8005ec0:	60fb      	str	r3, [r7, #12]
 8005ec2:	687b      	ldr	r3, [r7, #4]
 8005ec4:	8d5b      	ldrh	r3, [r3, #42]	@ 0x2a
 8005ec6:	b29b      	uxth	r3, r3
 8005ec8:	2b04      	cmp	r3, #4
 8005eca:	d11b      	bne.n	8005f04 <I2C_MasterReceive_BTF+0x50>
 8005ecc:	687b      	ldr	r3, [r7, #4]
 8005ece:	681b      	ldr	r3, [r3, #0]
 8005ed0:	685a      	ldr	r2, [r3, #4]
 8005ed2:	687b      	ldr	r3, [r7, #4]
 8005ed4:	681b      	ldr	r3, [r3, #0]
 8005ed6:	f422 6280 	bic.w	r2, r2, #1024	@ 0x400
 8005eda:	605a      	str	r2, [r3, #4]
 8005edc:	687b      	ldr	r3, [r7, #4]
 8005ede:	681b      	ldr	r3, [r3, #0]
 8005ee0:	691a      	ldr	r2, [r3, #16]
 8005ee2:	687b      	ldr	r3, [r7, #4]
 8005ee4:	6a5b      	ldr	r3, [r3, #36]	@ 0x24
 8005ee6:	b2d2      	uxtb	r2, r2
 8005ee8:	701a      	strb	r2, [r3, #0]
 8005eea:	687b      	ldr	r3, [r7, #4]
 8005eec:	6a5b      	ldr	r3, [r3, #36]	@ 0x24
 8005eee:	1c5a      	adds	r2, r3, #1
 8005ef0:	687b      	ldr	r3, [r7, #4]
 8005ef2:	625a      	str	r2, [r3, #36]	@ 0x24
 8005ef4:	687b      	ldr	r3, [r7, #4]
 8005ef6:	8d5b      	ldrh	r3, [r3, #42]	@ 0x2a
 8005ef8:	b29b      	uxth	r3, r3
 8005efa:	3b01      	subs	r3, #1
 8005efc:	b29a      	uxth	r2, r3
 8005efe:	687b      	ldr	r3, [r7, #4]
 8005f00:	855a      	strh	r2, [r3, #42]	@ 0x2a
 8005f02:	e0c4      	b.n	800608e <I2C_MasterReceive_BTF+0x1da>
 8005f04:	687b      	ldr	r3, [r7, #4]
 8005f06:	8d5b      	ldrh	r3, [r3, #42]	@ 0x2a
 8005f08:	b29b      	uxth	r3, r3
 8005f0a:	2b03      	cmp	r3, #3
 8005f0c:	d129      	bne.n	8005f62 <I2C_MasterReceive_BTF+0xae>
 8005f0e:	687b      	ldr	r3, [r7, #4]
 8005f10:	681b      	ldr	r3, [r3, #0]
 8005f12:	685a      	ldr	r2, [r3, #4]
 8005f14:	687b      	ldr	r3, [r7, #4]
 8005f16:	681b      	ldr	r3, [r3, #0]
 8005f18:	f422 6280 	bic.w	r2, r2, #1024	@ 0x400
 8005f1c:	605a      	str	r2, [r3, #4]
 8005f1e:	68fb      	ldr	r3, [r7, #12]
 8005f20:	2b04      	cmp	r3, #4
 8005f22:	d00a      	beq.n	8005f3a <I2C_MasterReceive_BTF+0x86>
 8005f24:	68fb      	ldr	r3, [r7, #12]
 8005f26:	2b02      	cmp	r3, #2
 8005f28:	d007      	beq.n	8005f3a <I2C_MasterReceive_BTF+0x86>
 8005f2a:	687b      	ldr	r3, [r7, #4]
 8005f2c:	681b      	ldr	r3, [r3, #0]
 8005f2e:	681a      	ldr	r2, [r3, #0]
 8005f30:	687b      	ldr	r3, [r7, #4]
 8005f32:	681b      	ldr	r3, [r3, #0]
 8005f34:	f422 6280 	bic.w	r2, r2, #1024	@ 0x400
 8005f38:	601a      	str	r2, [r3, #0]
 8005f3a:	687b      	ldr	r3, [r7, #4]
 8005f3c:	681b      	ldr	r3, [r3, #0]
 8005f3e:	691a      	ldr	r2, [r3, #16]
 8005f40:	687b      	ldr	r3, [r7, #4]
 8005f42:	6a5b      	ldr	r3, [r3, #36]	@ 0x24
 8005f44:	b2d2      	uxtb	r2, r2
 8005f46:	701a      	strb	r2, [r3, #0]
 8005f48:	687b      	ldr	r3, [r7, #4]
 8005f4a:	6a5b      	ldr	r3, [r3, #36]	@ 0x24
 8005f4c:	1c5a      	adds	r2, r3, #1
 8005f4e:	687b      	ldr	r3, [r7, #4]
 8005f50:	625a      	str	r2, [r3, #36]	@ 0x24
 8005f52:	687b      	ldr	r3, [r7, #4]
 8005f54:	8d5b      	ldrh	r3, [r3, #42]	@ 0x2a
 8005f56:	b29b      	uxth	r3, r3
 8005f58:	3b01      	subs	r3, #1
 8005f5a:	b29a      	uxth	r2, r3
 8005f5c:	687b      	ldr	r3, [r7, #4]
 8005f5e:	855a      	strh	r2, [r3, #42]	@ 0x2a
 8005f60:	e095      	b.n	800608e <I2C_MasterReceive_BTF+0x1da>
 8005f62:	687b      	ldr	r3, [r7, #4]
 8005f64:	8d5b      	ldrh	r3, [r3, #42]	@ 0x2a
 8005f66:	b29b      	uxth	r3, r3
 8005f68:	2b02      	cmp	r3, #2
 8005f6a:	d17d      	bne.n	8006068 <I2C_MasterReceive_BTF+0x1b4>
 8005f6c:	68fb      	ldr	r3, [r7, #12]
 8005f6e:	2b01      	cmp	r3, #1
 8005f70:	d002      	beq.n	8005f78 <I2C_MasterReceive_BTF+0xc4>
 8005f72:	68fb      	ldr	r3, [r7, #12]
 8005f74:	2b10      	cmp	r3, #16
 8005f76:	d108      	bne.n	8005f8a <I2C_MasterReceive_BTF+0xd6>
 8005f78:	687b      	ldr	r3, [r7, #4]
 8005f7a:	681b      	ldr	r3, [r3, #0]
 8005f7c:	681a      	ldr	r2, [r3, #0]
 8005f7e:	687b      	ldr	r3, [r7, #4]
 8005f80:	681b      	ldr	r3, [r3, #0]
 8005f82:	f422 6280 	bic.w	r2, r2, #1024	@ 0x400
 8005f86:	601a      	str	r2, [r3, #0]
 8005f88:	e016      	b.n	8005fb8 <I2C_MasterReceive_BTF+0x104>
 8005f8a:	68fb      	ldr	r3, [r7, #12]
 8005f8c:	2b04      	cmp	r3, #4
 8005f8e:	d002      	beq.n	8005f96 <I2C_MasterReceive_BTF+0xe2>
 8005f90:	68fb      	ldr	r3, [r7, #12]
 8005f92:	2b02      	cmp	r3, #2
 8005f94:	d108      	bne.n	8005fa8 <I2C_MasterReceive_BTF+0xf4>
 8005f96:	687b      	ldr	r3, [r7, #4]
 8005f98:	681b      	ldr	r3, [r3, #0]
 8005f9a:	681a      	ldr	r2, [r3, #0]
 8005f9c:	687b      	ldr	r3, [r7, #4]
 8005f9e:	681b      	ldr	r3, [r3, #0]
 8005fa0:	f442 6280 	orr.w	r2, r2, #1024	@ 0x400
 8005fa4:	601a      	str	r2, [r3, #0]
 8005fa6:	e007      	b.n	8005fb8 <I2C_MasterReceive_BTF+0x104>
 8005fa8:	687b      	ldr	r3, [r7, #4]
 8005faa:	681b      	ldr	r3, [r3, #0]
 8005fac:	681a      	ldr	r2, [r3, #0]
 8005fae:	687b      	ldr	r3, [r7, #4]
 8005fb0:	681b      	ldr	r3, [r3, #0]
 8005fb2:	f442 7200 	orr.w	r2, r2, #512	@ 0x200
 8005fb6:	601a      	str	r2, [r3, #0]
 8005fb8:	687b      	ldr	r3, [r7, #4]
 8005fba:	681b      	ldr	r3, [r3, #0]
 8005fbc:	691a      	ldr	r2, [r3, #16]
 8005fbe:	687b      	ldr	r3, [r7, #4]
 8005fc0:	6a5b      	ldr	r3, [r3, #36]	@ 0x24
 8005fc2:	b2d2      	uxtb	r2, r2
 8005fc4:	701a      	strb	r2, [r3, #0]
 8005fc6:	687b      	ldr	r3, [r7, #4]
 8005fc8:	6a5b      	ldr	r3, [r3, #36]	@ 0x24
 8005fca:	1c5a      	adds	r2, r3, #1
 8005fcc:	687b      	ldr	r3, [r7, #4]
 8005fce:	625a      	str	r2, [r3, #36]	@ 0x24
 8005fd0:	687b      	ldr	r3, [r7, #4]
 8005fd2:	8d5b      	ldrh	r3, [r3, #42]	@ 0x2a
 8005fd4:	b29b      	uxth	r3, r3
 8005fd6:	3b01      	subs	r3, #1
 8005fd8:	b29a      	uxth	r2, r3
 8005fda:	687b      	ldr	r3, [r7, #4]
 8005fdc:	855a      	strh	r2, [r3, #42]	@ 0x2a
 8005fde:	687b      	ldr	r3, [r7, #4]
 8005fe0:	681b      	ldr	r3, [r3, #0]
 8005fe2:	691a      	ldr	r2, [r3, #16]
 8005fe4:	687b      	ldr	r3, [r7, #4]
 8005fe6:	6a5b      	ldr	r3, [r3, #36]	@ 0x24
 8005fe8:	b2d2      	uxtb	r2, r2
 8005fea:	701a      	strb	r2, [r3, #0]
 8005fec:	687b      	ldr	r3, [r7, #4]
 8005fee:	6a5b      	ldr	r3, [r3, #36]	@ 0x24
 8005ff0:	1c5a      	adds	r2, r3, #1
 8005ff2:	687b      	ldr	r3, [r7, #4]
 8005ff4:	625a      	str	r2, [r3, #36]	@ 0x24
 8005ff6:	687b      	ldr	r3, [r7, #4]
 8005ff8:	8d5b      	ldrh	r3, [r3, #42]	@ 0x2a
 8005ffa:	b29b      	uxth	r3, r3
 8005ffc:	3b01      	subs	r3, #1
 8005ffe:	b29a      	uxth	r2, r3
 8006000:	687b      	ldr	r3, [r7, #4]
 8006002:	855a      	strh	r2, [r3, #42]	@ 0x2a
 8006004:	687b      	ldr	r3, [r7, #4]
 8006006:	681b      	ldr	r3, [r3, #0]
 8006008:	685a      	ldr	r2, [r3, #4]
 800600a:	687b      	ldr	r3, [r7, #4]
 800600c:	681b      	ldr	r3, [r3, #0]
 800600e:	f422 7240 	bic.w	r2, r2, #768	@ 0x300
 8006012:	605a      	str	r2, [r3, #4]
 8006014:	687b      	ldr	r3, [r7, #4]
 8006016:	2220      	movs	r2, #32
 8006018:	f883 203d 	strb.w	r2, [r3, #61]	@ 0x3d
 800601c:	687b      	ldr	r3, [r7, #4]
 800601e:	f893 303e 	ldrb.w	r3, [r3, #62]	@ 0x3e
 8006022:	b2db      	uxtb	r3, r3
 8006024:	2b40      	cmp	r3, #64	@ 0x40
 8006026:	d10a      	bne.n	800603e <I2C_MasterReceive_BTF+0x18a>
 8006028:	687b      	ldr	r3, [r7, #4]
 800602a:	2200      	movs	r2, #0
 800602c:	f883 203e 	strb.w	r2, [r3, #62]	@ 0x3e
 8006030:	687b      	ldr	r3, [r7, #4]
 8006032:	2200      	movs	r2, #0
 8006034:	631a      	str	r2, [r3, #48]	@ 0x30
 8006036:	6878      	ldr	r0, [r7, #4]
 8006038:	f7ff fcb8 	bl	80059ac <HAL_I2C_MemRxCpltCallback>
 800603c:	e027      	b.n	800608e <I2C_MasterReceive_BTF+0x1da>
 800603e:	687b      	ldr	r3, [r7, #4]
 8006040:	2200      	movs	r2, #0
 8006042:	f883 203e 	strb.w	r2, [r3, #62]	@ 0x3e
 8006046:	68fb      	ldr	r3, [r7, #12]
 8006048:	2b08      	cmp	r3, #8
 800604a:	d002      	beq.n	8006052 <I2C_MasterReceive_BTF+0x19e>
 800604c:	68fb      	ldr	r3, [r7, #12]
 800604e:	2b20      	cmp	r3, #32
 8006050:	d103      	bne.n	800605a <I2C_MasterReceive_BTF+0x1a6>
 8006052:	687b      	ldr	r3, [r7, #4]
 8006054:	2200      	movs	r2, #0
 8006056:	631a      	str	r2, [r3, #48]	@ 0x30
 8006058:	e002      	b.n	8006060 <I2C_MasterReceive_BTF+0x1ac>
 800605a:	687b      	ldr	r3, [r7, #4]
 800605c:	2212      	movs	r2, #18
 800605e:	631a      	str	r2, [r3, #48]	@ 0x30
 8006060:	6878      	ldr	r0, [r7, #4]
 8006062:	f7ff fc72 	bl	800594a <HAL_I2C_MasterRxCpltCallback>
 8006066:	e012      	b.n	800608e <I2C_MasterReceive_BTF+0x1da>
 8006068:	687b      	ldr	r3, [r7, #4]
 800606a:	681b      	ldr	r3, [r3, #0]
 800606c:	691a      	ldr	r2, [r3, #16]
 800606e:	687b      	ldr	r3, [r7, #4]
 8006070:	6a5b      	ldr	r3, [r3, #36]	@ 0x24
 8006072:	b2d2      	uxtb	r2, r2
 8006074:	701a      	strb	r2, [r3, #0]
 8006076:	687b      	ldr	r3, [r7, #4]
 8006078:	6a5b      	ldr	r3, [r3, #36]	@ 0x24
 800607a:	1c5a      	adds	r2, r3, #1
 800607c:	687b      	ldr	r3, [r7, #4]
 800607e:	625a      	str	r2, [r3, #36]	@ 0x24
 8006080:	687b      	ldr	r3, [r7, #4]
 8006082:	8d5b      	ldrh	r3, [r3, #42]	@ 0x2a
 8006084:	b29b      	uxth	r3, r3
 8006086:	3b01      	subs	r3, #1
 8006088:	b29a      	uxth	r2, r3
 800608a:	687b      	ldr	r3, [r7, #4]
 800608c:	855a      	strh	r2, [r3, #42]	@ 0x2a
 800608e:	bf00      	nop
 8006090:	3710      	adds	r7, #16
 8006092:	46bd      	mov	sp, r7
 8006094:	bd80      	pop	{r7, pc}

08006096 <I2C_Master_SB>:
 8006096:	b480      	push	{r7}
 8006098:	b083      	sub	sp, #12
 800609a:	af00      	add	r7, sp, #0
 800609c:	6078      	str	r0, [r7, #4]
 800609e:	687b      	ldr	r3, [r7, #4]
 80060a0:	f893 303e 	ldrb.w	r3, [r3, #62]	@ 0x3e
 80060a4:	b2db      	uxtb	r3, r3
 80060a6:	2b40      	cmp	r3, #64	@ 0x40
 80060a8:	d117      	bne.n	80060da <I2C_Master_SB+0x44>
 80060aa:	687b      	ldr	r3, [r7, #4]
 80060ac:	6d1b      	ldr	r3, [r3, #80]	@ 0x50
 80060ae:	2b00      	cmp	r3, #0
 80060b0:	d109      	bne.n	80060c6 <I2C_Master_SB+0x30>
 80060b2:	687b      	ldr	r3, [r7, #4]
 80060b4:	6c5b      	ldr	r3, [r3, #68]	@ 0x44
 80060b6:	b2db      	uxtb	r3, r3
 80060b8:	461a      	mov	r2, r3
 80060ba:	687b      	ldr	r3, [r7, #4]
 80060bc:	681b      	ldr	r3, [r3, #0]
 80060be:	f002 02fe 	and.w	r2, r2, #254	@ 0xfe
 80060c2:	611a      	str	r2, [r3, #16]
 80060c4:	e067      	b.n	8006196 <I2C_Master_SB+0x100>
 80060c6:	687b      	ldr	r3, [r7, #4]
 80060c8:	6c5b      	ldr	r3, [r3, #68]	@ 0x44
 80060ca:	b2db      	uxtb	r3, r3
 80060cc:	f043 0301 	orr.w	r3, r3, #1
 80060d0:	b2da      	uxtb	r2, r3
 80060d2:	687b      	ldr	r3, [r7, #4]
 80060d4:	681b      	ldr	r3, [r3, #0]
 80060d6:	611a      	str	r2, [r3, #16]
 80060d8:	e05d      	b.n	8006196 <I2C_Master_SB+0x100>
 80060da:	687b      	ldr	r3, [r7, #4]
 80060dc:	691b      	ldr	r3, [r3, #16]
 80060de:	f5b3 4f80 	cmp.w	r3, #16384	@ 0x4000
 80060e2:	d133      	bne.n	800614c <I2C_Master_SB+0xb6>
 80060e4:	687b      	ldr	r3, [r7, #4]
 80060e6:	f893 303d 	ldrb.w	r3, [r3, #61]	@ 0x3d
 80060ea:	b2db      	uxtb	r3, r3
 80060ec:	2b21      	cmp	r3, #33	@ 0x21
 80060ee:	d109      	bne.n	8006104 <I2C_Master_SB+0x6e>
 80060f0:	687b      	ldr	r3, [r7, #4]
 80060f2:	6c5b      	ldr	r3, [r3, #68]	@ 0x44
 80060f4:	b2db      	uxtb	r3, r3
 80060f6:	461a      	mov	r2, r3
 80060f8:	687b      	ldr	r3, [r7, #4]
 80060fa:	681b      	ldr	r3, [r3, #0]
 80060fc:	f002 02fe 	and.w	r2, r2, #254	@ 0xfe
 8006100:	611a      	str	r2, [r3, #16]
 8006102:	e008      	b.n	8006116 <I2C_Master_SB+0x80>
 8006104:	687b      	ldr	r3, [r7, #4]
 8006106:	6c5b      	ldr	r3, [r3, #68]	@ 0x44
 8006108:	b2db      	uxtb	r3, r3
 800610a:	f043 0301 	orr.w	r3, r3, #1
 800610e:	b2da      	uxtb	r2, r3
 8006110:	687b      	ldr	r3, [r7, #4]
 8006112:	681b      	ldr	r3, [r3, #0]
 8006114:	611a      	str	r2, [r3, #16]
 8006116:	687b      	ldr	r3, [r7, #4]
 8006118:	6b5b      	ldr	r3, [r3, #52]	@ 0x34
 800611a:	2b00      	cmp	r3, #0
 800611c:	d004      	beq.n	8006128 <I2C_Master_SB+0x92>
 800611e:	687b      	ldr	r3, [r7, #4]
 8006120:	6b5b      	ldr	r3, [r3, #52]	@ 0x34
 8006122:	6a9b      	ldr	r3, [r3, #40]	@ 0x28
 8006124:	2b00      	cmp	r3, #0
 8006126:	d108      	bne.n	800613a <I2C_Master_SB+0xa4>
 8006128:	687b      	ldr	r3, [r7, #4]
 800612a:	6b9b      	ldr	r3, [r3, #56]	@ 0x38
 800612c:	2b00      	cmp	r3, #0
 800612e:	d032      	beq.n	8006196 <I2C_Master_SB+0x100>
 8006130:	687b      	ldr	r3, [r7, #4]
 8006132:	6b9b      	ldr	r3, [r3, #56]	@ 0x38
 8006134:	6a9b      	ldr	r3, [r3, #40]	@ 0x28
 8006136:	2b00      	cmp	r3, #0
 8006138:	d02d      	beq.n	8006196 <I2C_Master_SB+0x100>
 800613a:	687b      	ldr	r3, [r7, #4]
 800613c:	681b      	ldr	r3, [r3, #0]
 800613e:	685a      	ldr	r2, [r3, #4]
 8006140:	687b      	ldr	r3, [r7, #4]
 8006142:	681b      	ldr	r3, [r3, #0]
 8006144:	f442 6200 	orr.w	r2, r2, #2048	@ 0x800
 8006148:	605a      	str	r2, [r3, #4]
 800614a:	e024      	b.n	8006196 <I2C_Master_SB+0x100>
 800614c:	687b      	ldr	r3, [r7, #4]
 800614e:	6d1b      	ldr	r3, [r3, #80]	@ 0x50
 8006150:	2b00      	cmp	r3, #0
 8006152:	d10e      	bne.n	8006172 <I2C_Master_SB+0xdc>
 8006154:	687b      	ldr	r3, [r7, #4]
 8006156:	6c5b      	ldr	r3, [r3, #68]	@ 0x44
 8006158:	b29b      	uxth	r3, r3
 800615a:	11db      	asrs	r3, r3, #7
 800615c:	b2db      	uxtb	r3, r3
 800615e:	f003 0306 	and.w	r3, r3, #6
 8006162:	b2db      	uxtb	r3, r3
 8006164:	f063 030f 	orn	r3, r3, #15
 8006168:	b2da      	uxtb	r2, r3
 800616a:	687b      	ldr	r3, [r7, #4]
 800616c:	681b      	ldr	r3, [r3, #0]
 800616e:	611a      	str	r2, [r3, #16]
 8006170:	e011      	b.n	8006196 <I2C_Master_SB+0x100>
 8006172:	687b      	ldr	r3, [r7, #4]
 8006174:	6d1b      	ldr	r3, [r3, #80]	@ 0x50
 8006176:	2b01      	cmp	r3, #1
 8006178:	d10d      	bne.n	8006196 <I2C_Master_SB+0x100>
 800617a:	687b      	ldr	r3, [r7, #4]
 800617c:	6c5b      	ldr	r3, [r3, #68]	@ 0x44
 800617e:	b29b      	uxth	r3, r3
 8006180:	11db      	asrs	r3, r3, #7
 8006182:	b2db      	uxtb	r3, r3
 8006184:	f003 0306 	and.w	r3, r3, #6
 8006188:	b2db      	uxtb	r3, r3
 800618a:	f063 030e 	orn	r3, r3, #14
 800618e:	b2da      	uxtb	r2, r3
 8006190:	687b      	ldr	r3, [r7, #4]
 8006192:	681b      	ldr	r3, [r3, #0]
 8006194:	611a      	str	r2, [r3, #16]
 8006196:	bf00      	nop
 8006198:	370c      	adds	r7, #12
 800619a:	46bd      	mov	sp, r7
 800619c:	bc80      	pop	{r7}
 800619e:	4770      	bx	lr

080061a0 <I2C_Master_ADD10>:
 80061a0:	b480      	push	{r7}
 80061a2:	b083      	sub	sp, #12
 80061a4:	af00      	add	r7, sp, #0
 80061a6:	6078      	str	r0, [r7, #4]
 80061a8:	687b      	ldr	r3, [r7, #4]
 80061aa:	6c5b      	ldr	r3, [r3, #68]	@ 0x44
 80061ac:	b2da      	uxtb	r2, r3
 80061ae:	687b      	ldr	r3, [r7, #4]
 80061b0:	681b      	ldr	r3, [r3, #0]
 80061b2:	611a      	str	r2, [r3, #16]
 80061b4:	687b      	ldr	r3, [r7, #4]
 80061b6:	6b5b      	ldr	r3, [r3, #52]	@ 0x34
 80061b8:	2b00      	cmp	r3, #0
 80061ba:	d004      	beq.n	80061c6 <I2C_Master_ADD10+0x26>
 80061bc:	687b      	ldr	r3, [r7, #4]
 80061be:	6b5b      	ldr	r3, [r3, #52]	@ 0x34
 80061c0:	6a9b      	ldr	r3, [r3, #40]	@ 0x28
 80061c2:	2b00      	cmp	r3, #0
 80061c4:	d108      	bne.n	80061d8 <I2C_Master_ADD10+0x38>
 80061c6:	687b      	ldr	r3, [r7, #4]
 80061c8:	6b9b      	ldr	r3, [r3, #56]	@ 0x38
 80061ca:	2b00      	cmp	r3, #0
 80061cc:	d00c      	beq.n	80061e8 <I2C_Master_ADD10+0x48>
 80061ce:	687b      	ldr	r3, [r7, #4]
 80061d0:	6b9b      	ldr	r3, [r3, #56]	@ 0x38
 80061d2:	6a9b      	ldr	r3, [r3, #40]	@ 0x28
 80061d4:	2b00      	cmp	r3, #0
 80061d6:	d007      	beq.n	80061e8 <I2C_Master_ADD10+0x48>
 80061d8:	687b      	ldr	r3, [r7, #4]
 80061da:	681b      	ldr	r3, [r3, #0]
 80061dc:	685a      	ldr	r2, [r3, #4]
 80061de:	687b      	ldr	r3, [r7, #4]
 80061e0:	681b      	ldr	r3, [r3, #0]
 80061e2:	f442 6200 	orr.w	r2, r2, #2048	@ 0x800
 80061e6:	605a      	str	r2, [r3, #4]
 80061e8:	bf00      	nop
 80061ea:	370c      	adds	r7, #12
 80061ec:	46bd      	mov	sp, r7
 80061ee:	bc80      	pop	{r7}
 80061f0:	4770      	bx	lr

080061f2 <I2C_Master_ADDR>:
 80061f2:	b480      	push	{r7}
 80061f4:	b091      	sub	sp, #68	@ 0x44
 80061f6:	af00      	add	r7, sp, #0
 80061f8:	6078      	str	r0, [r7, #4]
 80061fa:	687b      	ldr	r3, [r7, #4]
 80061fc:	f893 303e 	ldrb.w	r3, [r3, #62]	@ 0x3e
 8006200:	f887 303f 	strb.w	r3, [r7, #63]	@ 0x3f
 8006204:	687b      	ldr	r3, [r7, #4]
 8006206:	6adb      	ldr	r3, [r3, #44]	@ 0x2c
 8006208:	63bb      	str	r3, [r7, #56]	@ 0x38
 800620a:	687b      	ldr	r3, [r7, #4]
 800620c:	6b1b      	ldr	r3, [r3, #48]	@ 0x30
 800620e:	637b      	str	r3, [r7, #52]	@ 0x34
 8006210:	687b      	ldr	r3, [r7, #4]
 8006212:	f893 303d 	ldrb.w	r3, [r3, #61]	@ 0x3d
 8006216:	b2db      	uxtb	r3, r3
 8006218:	2b22      	cmp	r3, #34	@ 0x22
 800621a:	f040 8174 	bne.w	8006506 <I2C_Master_ADDR+0x314>
 800621e:	687b      	ldr	r3, [r7, #4]
 8006220:	6d1b      	ldr	r3, [r3, #80]	@ 0x50
 8006222:	2b00      	cmp	r3, #0
 8006224:	d10f      	bne.n	8006246 <I2C_Master_ADDR+0x54>
 8006226:	f897 303f 	ldrb.w	r3, [r7, #63]	@ 0x3f
 800622a:	2b40      	cmp	r3, #64	@ 0x40
 800622c:	d10b      	bne.n	8006246 <I2C_Master_ADDR+0x54>
 800622e:	2300      	movs	r3, #0
 8006230:	633b      	str	r3, [r7, #48]	@ 0x30
 8006232:	687b      	ldr	r3, [r7, #4]
 8006234:	681b      	ldr	r3, [r3, #0]
 8006236:	695b      	ldr	r3, [r3, #20]
 8006238:	633b      	str	r3, [r7, #48]	@ 0x30
 800623a:	687b      	ldr	r3, [r7, #4]
 800623c:	681b      	ldr	r3, [r3, #0]
 800623e:	699b      	ldr	r3, [r3, #24]
 8006240:	633b      	str	r3, [r7, #48]	@ 0x30
 8006242:	6b3b      	ldr	r3, [r7, #48]	@ 0x30
 8006244:	e16b      	b.n	800651e <I2C_Master_ADDR+0x32c>
 8006246:	687b      	ldr	r3, [r7, #4]
 8006248:	6d1b      	ldr	r3, [r3, #80]	@ 0x50
 800624a:	2b00      	cmp	r3, #0
 800624c:	d11d      	bne.n	800628a <I2C_Master_ADDR+0x98>
 800624e:	687b      	ldr	r3, [r7, #4]
 8006250:	691b      	ldr	r3, [r3, #16]
 8006252:	f5b3 4f40 	cmp.w	r3, #49152	@ 0xc000
 8006256:	d118      	bne.n	800628a <I2C_Master_ADDR+0x98>
 8006258:	2300      	movs	r3, #0
 800625a:	62fb      	str	r3, [r7, #44]	@ 0x2c
 800625c:	687b      	ldr	r3, [r7, #4]
 800625e:	681b      	ldr	r3, [r3, #0]
 8006260:	695b      	ldr	r3, [r3, #20]
 8006262:	62fb      	str	r3, [r7, #44]	@ 0x2c
 8006264:	687b      	ldr	r3, [r7, #4]
 8006266:	681b      	ldr	r3, [r3, #0]
 8006268:	699b      	ldr	r3, [r3, #24]
 800626a:	62fb      	str	r3, [r7, #44]	@ 0x2c
 800626c:	6afb      	ldr	r3, [r7, #44]	@ 0x2c
 800626e:	687b      	ldr	r3, [r7, #4]
 8006270:	681b      	ldr	r3, [r3, #0]
 8006272:	681a      	ldr	r2, [r3, #0]
 8006274:	687b      	ldr	r3, [r7, #4]
 8006276:	681b      	ldr	r3, [r3, #0]
 8006278:	f442 7280 	orr.w	r2, r2, #256	@ 0x100
 800627c:	601a      	str	r2, [r3, #0]
 800627e:	687b      	ldr	r3, [r7, #4]
 8006280:	6d1b      	ldr	r3, [r3, #80]	@ 0x50
 8006282:	1c5a      	adds	r2, r3, #1
 8006284:	687b      	ldr	r3, [r7, #4]
 8006286:	651a      	str	r2, [r3, #80]	@ 0x50
 8006288:	e149      	b.n	800651e <I2C_Master_ADDR+0x32c>
 800628a:	687b      	ldr	r3, [r7, #4]
 800628c:	8d5b      	ldrh	r3, [r3, #42]	@ 0x2a
 800628e:	b29b      	uxth	r3, r3
 8006290:	2b00      	cmp	r3, #0
 8006292:	d113      	bne.n	80062bc <I2C_Master_ADDR+0xca>
 8006294:	2300      	movs	r3, #0
 8006296:	62bb      	str	r3, [r7, #40]	@ 0x28
 8006298:	687b      	ldr	r3, [r7, #4]
 800629a:	681b      	ldr	r3, [r3, #0]
 800629c:	695b      	ldr	r3, [r3, #20]
 800629e:	62bb      	str	r3, [r7, #40]	@ 0x28
 80062a0:	687b      	ldr	r3, [r7, #4]
 80062a2:	681b      	ldr	r3, [r3, #0]
 80062a4:	699b      	ldr	r3, [r3, #24]
 80062a6:	62bb      	str	r3, [r7, #40]	@ 0x28
 80062a8:	6abb      	ldr	r3, [r7, #40]	@ 0x28
 80062aa:	687b      	ldr	r3, [r7, #4]
 80062ac:	681b      	ldr	r3, [r3, #0]
 80062ae:	681a      	ldr	r2, [r3, #0]
 80062b0:	687b      	ldr	r3, [r7, #4]
 80062b2:	681b      	ldr	r3, [r3, #0]
 80062b4:	f442 7200 	orr.w	r2, r2, #512	@ 0x200
 80062b8:	601a      	str	r2, [r3, #0]
 80062ba:	e120      	b.n	80064fe <I2C_Master_ADDR+0x30c>
 80062bc:	687b      	ldr	r3, [r7, #4]
 80062be:	8d5b      	ldrh	r3, [r3, #42]	@ 0x2a
 80062c0:	b29b      	uxth	r3, r3
 80062c2:	2b01      	cmp	r3, #1
 80062c4:	f040 808a 	bne.w	80063dc <I2C_Master_ADDR+0x1ea>
 80062c8:	6bbb      	ldr	r3, [r7, #56]	@ 0x38
 80062ca:	f513 3f80 	cmn.w	r3, #65536	@ 0x10000
 80062ce:	d137      	bne.n	8006340 <I2C_Master_ADDR+0x14e>
 80062d0:	687b      	ldr	r3, [r7, #4]
 80062d2:	681b      	ldr	r3, [r3, #0]
 80062d4:	681a      	ldr	r2, [r3, #0]
 80062d6:	687b      	ldr	r3, [r7, #4]
 80062d8:	681b      	ldr	r3, [r3, #0]
 80062da:	f422 6280 	bic.w	r2, r2, #1024	@ 0x400
 80062de:	601a      	str	r2, [r3, #0]
 80062e0:	687b      	ldr	r3, [r7, #4]
 80062e2:	681b      	ldr	r3, [r3, #0]
 80062e4:	685b      	ldr	r3, [r3, #4]
 80062e6:	f403 6300 	and.w	r3, r3, #2048	@ 0x800
 80062ea:	f5b3 6f00 	cmp.w	r3, #2048	@ 0x800
 80062ee:	d113      	bne.n	8006318 <I2C_Master_ADDR+0x126>
 80062f0:	687b      	ldr	r3, [r7, #4]
 80062f2:	681b      	ldr	r3, [r3, #0]
 80062f4:	681a      	ldr	r2, [r3, #0]
 80062f6:	687b      	ldr	r3, [r7, #4]
 80062f8:	681b      	ldr	r3, [r3, #0]
 80062fa:	f422 6280 	bic.w	r2, r2, #1024	@ 0x400
 80062fe:	601a      	str	r2, [r3, #0]
 8006300:	2300      	movs	r3, #0
 8006302:	627b      	str	r3, [r7, #36]	@ 0x24
 8006304:	687b      	ldr	r3, [r7, #4]
 8006306:	681b      	ldr	r3, [r3, #0]
 8006308:	695b      	ldr	r3, [r3, #20]
 800630a:	627b      	str	r3, [r7, #36]	@ 0x24
 800630c:	687b      	ldr	r3, [r7, #4]
 800630e:	681b      	ldr	r3, [r3, #0]
 8006310:	699b      	ldr	r3, [r3, #24]
 8006312:	627b      	str	r3, [r7, #36]	@ 0x24
 8006314:	6a7b      	ldr	r3, [r7, #36]	@ 0x24
 8006316:	e0f2      	b.n	80064fe <I2C_Master_ADDR+0x30c>
 8006318:	2300      	movs	r3, #0
 800631a:	623b      	str	r3, [r7, #32]
 800631c:	687b      	ldr	r3, [r7, #4]
 800631e:	681b      	ldr	r3, [r3, #0]
 8006320:	695b      	ldr	r3, [r3, #20]
 8006322:	623b      	str	r3, [r7, #32]
 8006324:	687b      	ldr	r3, [r7, #4]
 8006326:	681b      	ldr	r3, [r3, #0]
 8006328:	699b      	ldr	r3, [r3, #24]
 800632a:	623b      	str	r3, [r7, #32]
 800632c:	6a3b      	ldr	r3, [r7, #32]
 800632e:	687b      	ldr	r3, [r7, #4]
 8006330:	681b      	ldr	r3, [r3, #0]
 8006332:	681a      	ldr	r2, [r3, #0]
 8006334:	687b      	ldr	r3, [r7, #4]
 8006336:	681b      	ldr	r3, [r3, #0]
 8006338:	f442 7200 	orr.w	r2, r2, #512	@ 0x200
 800633c:	601a      	str	r2, [r3, #0]
 800633e:	e0de      	b.n	80064fe <I2C_Master_ADDR+0x30c>
 8006340:	6bbb      	ldr	r3, [r7, #56]	@ 0x38
 8006342:	2b08      	cmp	r3, #8
 8006344:	d02e      	beq.n	80063a4 <I2C_Master_ADDR+0x1b2>
 8006346:	6bbb      	ldr	r3, [r7, #56]	@ 0x38
 8006348:	2b20      	cmp	r3, #32
 800634a:	d02b      	beq.n	80063a4 <I2C_Master_ADDR+0x1b2>
 800634c:	6b7b      	ldr	r3, [r7, #52]	@ 0x34
 800634e:	2b12      	cmp	r3, #18
 8006350:	d102      	bne.n	8006358 <I2C_Master_ADDR+0x166>
 8006352:	6bbb      	ldr	r3, [r7, #56]	@ 0x38
 8006354:	2b01      	cmp	r3, #1
 8006356:	d125      	bne.n	80063a4 <I2C_Master_ADDR+0x1b2>
 8006358:	6bbb      	ldr	r3, [r7, #56]	@ 0x38
 800635a:	2b04      	cmp	r3, #4
 800635c:	d00e      	beq.n	800637c <I2C_Master_ADDR+0x18a>
 800635e:	6bbb      	ldr	r3, [r7, #56]	@ 0x38
 8006360:	2b02      	cmp	r3, #2
 8006362:	d00b      	beq.n	800637c <I2C_Master_ADDR+0x18a>
 8006364:	6bbb      	ldr	r3, [r7, #56]	@ 0x38
 8006366:	2b10      	cmp	r3, #16
 8006368:	d008      	beq.n	800637c <I2C_Master_ADDR+0x18a>
 800636a:	687b      	ldr	r3, [r7, #4]
 800636c:	681b      	ldr	r3, [r3, #0]
 800636e:	681a      	ldr	r2, [r3, #0]
 8006370:	687b      	ldr	r3, [r7, #4]
 8006372:	681b      	ldr	r3, [r3, #0]
 8006374:	f422 6280 	bic.w	r2, r2, #1024	@ 0x400
 8006378:	601a      	str	r2, [r3, #0]
 800637a:	e007      	b.n	800638c <I2C_Master_ADDR+0x19a>
 800637c:	687b      	ldr	r3, [r7, #4]
 800637e:	681b      	ldr	r3, [r3, #0]
 8006380:	681a      	ldr	r2, [r3, #0]
 8006382:	687b      	ldr	r3, [r7, #4]
 8006384:	681b      	ldr	r3, [r3, #0]
 8006386:	f442 6280 	orr.w	r2, r2, #1024	@ 0x400
 800638a:	601a      	str	r2, [r3, #0]
 800638c:	2300      	movs	r3, #0
 800638e:	61fb      	str	r3, [r7, #28]
 8006390:	687b      	ldr	r3, [r7, #4]
 8006392:	681b      	ldr	r3, [r3, #0]
 8006394:	695b      	ldr	r3, [r3, #20]
 8006396:	61fb      	str	r3, [r7, #28]
 8006398:	687b      	ldr	r3, [r7, #4]
 800639a:	681b      	ldr	r3, [r3, #0]
 800639c:	699b      	ldr	r3, [r3, #24]
 800639e:	61fb      	str	r3, [r7, #28]
 80063a0:	69fb      	ldr	r3, [r7, #28]
 80063a2:	e0ac      	b.n	80064fe <I2C_Master_ADDR+0x30c>
 80063a4:	687b      	ldr	r3, [r7, #4]
 80063a6:	681b      	ldr	r3, [r3, #0]
 80063a8:	681a      	ldr	r2, [r3, #0]
 80063aa:	687b      	ldr	r3, [r7, #4]
 80063ac:	681b      	ldr	r3, [r3, #0]
 80063ae:	f422 6280 	bic.w	r2, r2, #1024	@ 0x400
 80063b2:	601a      	str	r2, [r3, #0]
 80063b4:	2300      	movs	r3, #0
 80063b6:	61bb      	str	r3, [r7, #24]
 80063b8:	687b      	ldr	r3, [r7, #4]
 80063ba:	681b      	ldr	r3, [r3, #0]
 80063bc:	695b      	ldr	r3, [r3, #20]
 80063be:	61bb      	str	r3, [r7, #24]
 80063c0:	687b      	ldr	r3, [r7, #4]
 80063c2:	681b      	ldr	r3, [r3, #0]
 80063c4:	699b      	ldr	r3, [r3, #24]
 80063c6:	61bb      	str	r3, [r7, #24]
 80063c8:	69bb      	ldr	r3, [r7, #24]
 80063ca:	687b      	ldr	r3, [r7, #4]
 80063cc:	681b      	ldr	r3, [r3, #0]
 80063ce:	681a      	ldr	r2, [r3, #0]
 80063d0:	687b      	ldr	r3, [r7, #4]
 80063d2:	681b      	ldr	r3, [r3, #0]
 80063d4:	f442 7200 	orr.w	r2, r2, #512	@ 0x200
 80063d8:	601a      	str	r2, [r3, #0]
 80063da:	e090      	b.n	80064fe <I2C_Master_ADDR+0x30c>
 80063dc:	687b      	ldr	r3, [r7, #4]
 80063de:	8d5b      	ldrh	r3, [r3, #42]	@ 0x2a
 80063e0:	b29b      	uxth	r3, r3
 80063e2:	2b02      	cmp	r3, #2
 80063e4:	d158      	bne.n	8006498 <I2C_Master_ADDR+0x2a6>
 80063e6:	6bbb      	ldr	r3, [r7, #56]	@ 0x38
 80063e8:	2b04      	cmp	r3, #4
 80063ea:	d021      	beq.n	8006430 <I2C_Master_ADDR+0x23e>
 80063ec:	6bbb      	ldr	r3, [r7, #56]	@ 0x38
 80063ee:	2b02      	cmp	r3, #2
 80063f0:	d01e      	beq.n	8006430 <I2C_Master_ADDR+0x23e>
 80063f2:	6bbb      	ldr	r3, [r7, #56]	@ 0x38
 80063f4:	2b10      	cmp	r3, #16
 80063f6:	d01b      	beq.n	8006430 <I2C_Master_ADDR+0x23e>
 80063f8:	687b      	ldr	r3, [r7, #4]
 80063fa:	681b      	ldr	r3, [r3, #0]
 80063fc:	681a      	ldr	r2, [r3, #0]
 80063fe:	687b      	ldr	r3, [r7, #4]
 8006400:	681b      	ldr	r3, [r3, #0]
 8006402:	f442 6200 	orr.w	r2, r2, #2048	@ 0x800
 8006406:	601a      	str	r2, [r3, #0]
 8006408:	2300      	movs	r3, #0
 800640a:	617b      	str	r3, [r7, #20]
 800640c:	687b      	ldr	r3, [r7, #4]
 800640e:	681b      	ldr	r3, [r3, #0]
 8006410:	695b      	ldr	r3, [r3, #20]
 8006412:	617b      	str	r3, [r7, #20]
 8006414:	687b      	ldr	r3, [r7, #4]
 8006416:	681b      	ldr	r3, [r3, #0]
 8006418:	699b      	ldr	r3, [r3, #24]
 800641a:	617b      	str	r3, [r7, #20]
 800641c:	697b      	ldr	r3, [r7, #20]
 800641e:	687b      	ldr	r3, [r7, #4]
 8006420:	681b      	ldr	r3, [r3, #0]
 8006422:	681a      	ldr	r2, [r3, #0]
 8006424:	687b      	ldr	r3, [r7, #4]
 8006426:	681b      	ldr	r3, [r3, #0]
 8006428:	f422 6280 	bic.w	r2, r2, #1024	@ 0x400
 800642c:	601a      	str	r2, [r3, #0]
 800642e:	e012      	b.n	8006456 <I2C_Master_ADDR+0x264>
 8006430:	687b      	ldr	r3, [r7, #4]
 8006432:	681b      	ldr	r3, [r3, #0]
 8006434:	681a      	ldr	r2, [r3, #0]
 8006436:	687b      	ldr	r3, [r7, #4]
 8006438:	681b      	ldr	r3, [r3, #0]
 800643a:	f442 6280 	orr.w	r2, r2, #1024	@ 0x400
 800643e:	601a      	str	r2, [r3, #0]
 8006440:	2300      	movs	r3, #0
 8006442:	613b      	str	r3, [r7, #16]
 8006444:	687b      	ldr	r3, [r7, #4]
 8006446:	681b      	ldr	r3, [r3, #0]
 8006448:	695b      	ldr	r3, [r3, #20]
 800644a:	613b      	str	r3, [r7, #16]
 800644c:	687b      	ldr	r3, [r7, #4]
 800644e:	681b      	ldr	r3, [r3, #0]
 8006450:	699b      	ldr	r3, [r3, #24]
 8006452:	613b      	str	r3, [r7, #16]
 8006454:	693b      	ldr	r3, [r7, #16]
 8006456:	687b      	ldr	r3, [r7, #4]
 8006458:	681b      	ldr	r3, [r3, #0]
 800645a:	685b      	ldr	r3, [r3, #4]
 800645c:	f403 6300 	and.w	r3, r3, #2048	@ 0x800
 8006460:	f5b3 6f00 	cmp.w	r3, #2048	@ 0x800
 8006464:	d14b      	bne.n	80064fe <I2C_Master_ADDR+0x30c>
 8006466:	6bbb      	ldr	r3, [r7, #56]	@ 0x38
 8006468:	f513 3f80 	cmn.w	r3, #65536	@ 0x10000
 800646c:	d00b      	beq.n	8006486 <I2C_Master_ADDR+0x294>
 800646e:	6bbb      	ldr	r3, [r7, #56]	@ 0x38
 8006470:	2b01      	cmp	r3, #1
 8006472:	d008      	beq.n	8006486 <I2C_Master_ADDR+0x294>
 8006474:	6bbb      	ldr	r3, [r7, #56]	@ 0x38
 8006476:	2b08      	cmp	r3, #8
 8006478:	d005      	beq.n	8006486 <I2C_Master_ADDR+0x294>
 800647a:	6bbb      	ldr	r3, [r7, #56]	@ 0x38
 800647c:	2b10      	cmp	r3, #16
 800647e:	d002      	beq.n	8006486 <I2C_Master_ADDR+0x294>
 8006480:	6bbb      	ldr	r3, [r7, #56]	@ 0x38
 8006482:	2b20      	cmp	r3, #32
 8006484:	d13b      	bne.n	80064fe <I2C_Master_ADDR+0x30c>
 8006486:	687b      	ldr	r3, [r7, #4]
 8006488:	681b      	ldr	r3, [r3, #0]
 800648a:	685a      	ldr	r2, [r3, #4]
 800648c:	687b      	ldr	r3, [r7, #4]
 800648e:	681b      	ldr	r3, [r3, #0]
 8006490:	f442 5280 	orr.w	r2, r2, #4096	@ 0x1000
 8006494:	605a      	str	r2, [r3, #4]
 8006496:	e032      	b.n	80064fe <I2C_Master_ADDR+0x30c>
 8006498:	687b      	ldr	r3, [r7, #4]
 800649a:	681b      	ldr	r3, [r3, #0]
 800649c:	681a      	ldr	r2, [r3, #0]
 800649e:	687b      	ldr	r3, [r7, #4]
 80064a0:	681b      	ldr	r3, [r3, #0]
 80064a2:	f442 6280 	orr.w	r2, r2, #1024	@ 0x400
 80064a6:	601a      	str	r2, [r3, #0]
 80064a8:	687b      	ldr	r3, [r7, #4]
 80064aa:	681b      	ldr	r3, [r3, #0]
 80064ac:	685b      	ldr	r3, [r3, #4]
 80064ae:	f403 6300 	and.w	r3, r3, #2048	@ 0x800
 80064b2:	f5b3 6f00 	cmp.w	r3, #2048	@ 0x800
 80064b6:	d117      	bne.n	80064e8 <I2C_Master_ADDR+0x2f6>
 80064b8:	6bbb      	ldr	r3, [r7, #56]	@ 0x38
 80064ba:	f513 3f80 	cmn.w	r3, #65536	@ 0x10000
 80064be:	d00b      	beq.n	80064d8 <I2C_Master_ADDR+0x2e6>
 80064c0:	6bbb      	ldr	r3, [r7, #56]	@ 0x38
 80064c2:	2b01      	cmp	r3, #1
 80064c4:	d008      	beq.n	80064d8 <I2C_Master_ADDR+0x2e6>
 80064c6:	6bbb      	ldr	r3, [r7, #56]	@ 0x38
 80064c8:	2b08      	cmp	r3, #8
 80064ca:	d005      	beq.n	80064d8 <I2C_Master_ADDR+0x2e6>
 80064cc:	6bbb      	ldr	r3, [r7, #56]	@ 0x38
 80064ce:	2b10      	cmp	r3, #16
 80064d0:	d002      	beq.n	80064d8 <I2C_Master_ADDR+0x2e6>
 80064d2:	6bbb      	ldr	r3, [r7, #56]	@ 0x38
 80064d4:	2b20      	cmp	r3, #32
 80064d6:	d107      	bne.n	80064e8 <I2C_Master_ADDR+0x2f6>
 80064d8:	687b      	ldr	r3, [r7, #4]
 80064da:	681b      	ldr	r3, [r3, #0]
 80064dc:	685a      	ldr	r2, [r3, #4]
 80064de:	687b      	ldr	r3, [r7, #4]
 80064e0:	681b      	ldr	r3, [r3, #0]
 80064e2:	f442 5280 	orr.w	r2, r2, #4096	@ 0x1000
 80064e6:	605a      	str	r2, [r3, #4]
 80064e8:	2300      	movs	r3, #0
 80064ea:	60fb      	str	r3, [r7, #12]
 80064ec:	687b      	ldr	r3, [r7, #4]
 80064ee:	681b      	ldr	r3, [r3, #0]
 80064f0:	695b      	ldr	r3, [r3, #20]
 80064f2:	60fb      	str	r3, [r7, #12]
 80064f4:	687b      	ldr	r3, [r7, #4]
 80064f6:	681b      	ldr	r3, [r3, #0]
 80064f8:	699b      	ldr	r3, [r3, #24]
 80064fa:	60fb      	str	r3, [r7, #12]
 80064fc:	68fb      	ldr	r3, [r7, #12]
 80064fe:	687b      	ldr	r3, [r7, #4]
 8006500:	2200      	movs	r2, #0
 8006502:	651a      	str	r2, [r3, #80]	@ 0x50
 8006504:	e00b      	b.n	800651e <I2C_Master_ADDR+0x32c>
 8006506:	2300      	movs	r3, #0
 8006508:	60bb      	str	r3, [r7, #8]
 800650a:	687b      	ldr	r3, [r7, #4]
 800650c:	681b      	ldr	r3, [r3, #0]
 800650e:	695b      	ldr	r3, [r3, #20]
 8006510:	60bb      	str	r3, [r7, #8]
 8006512:	687b      	ldr	r3, [r7, #4]
 8006514:	681b      	ldr	r3, [r3, #0]
 8006516:	699b      	ldr	r3, [r3, #24]
 8006518:	60bb      	str	r3, [r7, #8]
 800651a:	68bb      	ldr	r3, [r7, #8]
 800651c:	e7ff      	b.n	800651e <I2C_Master_ADDR+0x32c>
 800651e:	bf00      	nop
 8006520:	3744      	adds	r7, #68	@ 0x44
 8006522:	46bd      	mov	sp, r7
 8006524:	bc80      	pop	{r7}
 8006526:	4770      	bx	lr

08006528 <I2C_SlaveTransmit_TXE>:
 8006528:	b580      	push	{r7, lr}
 800652a:	b084      	sub	sp, #16
 800652c:	af00      	add	r7, sp, #0
 800652e:	6078      	str	r0, [r7, #4]
 8006530:	687b      	ldr	r3, [r7, #4]
 8006532:	f893 303d 	ldrb.w	r3, [r3, #61]	@ 0x3d
 8006536:	73fb      	strb	r3, [r7, #15]
 8006538:	687b      	ldr	r3, [r7, #4]
 800653a:	8d5b      	ldrh	r3, [r3, #42]	@ 0x2a
 800653c:	b29b      	uxth	r3, r3
 800653e:	2b00      	cmp	r3, #0
 8006540:	d02b      	beq.n	800659a <I2C_SlaveTransmit_TXE+0x72>
 8006542:	687b      	ldr	r3, [r7, #4]
 8006544:	6a5b      	ldr	r3, [r3, #36]	@ 0x24
 8006546:	781a      	ldrb	r2, [r3, #0]
 8006548:	687b      	ldr	r3, [r7, #4]
 800654a:	681b      	ldr	r3, [r3, #0]
 800654c:	611a      	str	r2, [r3, #16]
 800654e:	687b      	ldr	r3, [r7, #4]
 8006550:	6a5b      	ldr	r3, [r3, #36]	@ 0x24
 8006552:	1c5a      	adds	r2, r3, #1
 8006554:	687b      	ldr	r3, [r7, #4]
 8006556:	625a      	str	r2, [r3, #36]	@ 0x24
 8006558:	687b      	ldr	r3, [r7, #4]
 800655a:	8d5b      	ldrh	r3, [r3, #42]	@ 0x2a
 800655c:	b29b      	uxth	r3, r3
 800655e:	3b01      	subs	r3, #1
 8006560:	b29a      	uxth	r2, r3
 8006562:	687b      	ldr	r3, [r7, #4]
 8006564:	855a      	strh	r2, [r3, #42]	@ 0x2a
 8006566:	687b      	ldr	r3, [r7, #4]
 8006568:	8d5b      	ldrh	r3, [r3, #42]	@ 0x2a
 800656a:	b29b      	uxth	r3, r3
 800656c:	2b00      	cmp	r3, #0
 800656e:	d114      	bne.n	800659a <I2C_SlaveTransmit_TXE+0x72>
 8006570:	7bfb      	ldrb	r3, [r7, #15]
 8006572:	2b29      	cmp	r3, #41	@ 0x29
 8006574:	d111      	bne.n	800659a <I2C_SlaveTransmit_TXE+0x72>
 8006576:	687b      	ldr	r3, [r7, #4]
 8006578:	681b      	ldr	r3, [r3, #0]
 800657a:	685a      	ldr	r2, [r3, #4]
 800657c:	687b      	ldr	r3, [r7, #4]
 800657e:	681b      	ldr	r3, [r3, #0]
 8006580:	f422 6280 	bic.w	r2, r2, #1024	@ 0x400
 8006584:	605a      	str	r2, [r3, #4]
 8006586:	687b      	ldr	r3, [r7, #4]
 8006588:	2221      	movs	r2, #33	@ 0x21
 800658a:	631a      	str	r2, [r3, #48]	@ 0x30
 800658c:	687b      	ldr	r3, [r7, #4]
 800658e:	2228      	movs	r2, #40	@ 0x28
 8006590:	f883 203d 	strb.w	r2, [r3, #61]	@ 0x3d
 8006594:	6878      	ldr	r0, [r7, #4]
 8006596:	f7ff f9e1 	bl	800595c <HAL_I2C_SlaveTxCpltCallback>
 800659a:	bf00      	nop
 800659c:	3710      	adds	r7, #16
 800659e:	46bd      	mov	sp, r7
 80065a0:	bd80      	pop	{r7, pc}

080065a2 <I2C_SlaveTransmit_BTF>:
 80065a2:	b480      	push	{r7}
 80065a4:	b083      	sub	sp, #12
 80065a6:	af00      	add	r7, sp, #0
 80065a8:	6078      	str	r0, [r7, #4]
 80065aa:	687b      	ldr	r3, [r7, #4]
 80065ac:	8d5b      	ldrh	r3, [r3, #42]	@ 0x2a
 80065ae:	b29b      	uxth	r3, r3
 80065b0:	2b00      	cmp	r3, #0
 80065b2:	d011      	beq.n	80065d8 <I2C_SlaveTransmit_BTF+0x36>
 80065b4:	687b      	ldr	r3, [r7, #4]
 80065b6:	6a5b      	ldr	r3, [r3, #36]	@ 0x24
 80065b8:	781a      	ldrb	r2, [r3, #0]
 80065ba:	687b      	ldr	r3, [r7, #4]
 80065bc:	681b      	ldr	r3, [r3, #0]
 80065be:	611a      	str	r2, [r3, #16]
 80065c0:	687b      	ldr	r3, [r7, #4]
 80065c2:	6a5b      	ldr	r3, [r3, #36]	@ 0x24
 80065c4:	1c5a      	adds	r2, r3, #1
 80065c6:	687b      	ldr	r3, [r7, #4]
 80065c8:	625a      	str	r2, [r3, #36]	@ 0x24
 80065ca:	687b      	ldr	r3, [r7, #4]
 80065cc:	8d5b      	ldrh	r3, [r3, #42]	@ 0x2a
 80065ce:	b29b      	uxth	r3, r3
 80065d0:	3b01      	subs	r3, #1
 80065d2:	b29a      	uxth	r2, r3
 80065d4:	687b      	ldr	r3, [r7, #4]
 80065d6:	855a      	strh	r2, [r3, #42]	@ 0x2a
 80065d8:	bf00      	nop
 80065da:	370c      	adds	r7, #12
 80065dc:	46bd      	mov	sp, r7
 80065de:	bc80      	pop	{r7}
 80065e0:	4770      	bx	lr

080065e2 <I2C_SlaveReceive_RXNE>:
 80065e2:	b580      	push	{r7, lr}
 80065e4:	b084      	sub	sp, #16
 80065e6:	af00      	add	r7, sp, #0
 80065e8:	6078      	str	r0, [r7, #4]
 80065ea:	687b      	ldr	r3, [r7, #4]
 80065ec:	f893 303d 	ldrb.w	r3, [r3, #61]	@ 0x3d
 80065f0:	73fb      	strb	r3, [r7, #15]
 80065f2:	687b      	ldr	r3, [r7, #4]
 80065f4:	8d5b      	ldrh	r3, [r3, #42]	@ 0x2a
 80065f6:	b29b      	uxth	r3, r3
 80065f8:	2b00      	cmp	r3, #0
 80065fa:	d02c      	beq.n	8006656 <I2C_SlaveReceive_RXNE+0x74>
 80065fc:	687b      	ldr	r3, [r7, #4]
 80065fe:	681b      	ldr	r3, [r3, #0]
 8006600:	691a      	ldr	r2, [r3, #16]
 8006602:	687b      	ldr	r3, [r7, #4]
 8006604:	6a5b      	ldr	r3, [r3, #36]	@ 0x24
 8006606:	b2d2      	uxtb	r2, r2
 8006608:	701a      	strb	r2, [r3, #0]
 800660a:	687b      	ldr	r3, [r7, #4]
 800660c:	6a5b      	ldr	r3, [r3, #36]	@ 0x24
 800660e:	1c5a      	adds	r2, r3, #1
 8006610:	687b      	ldr	r3, [r7, #4]
 8006612:	625a      	str	r2, [r3, #36]	@ 0x24
 8006614:	687b      	ldr	r3, [r7, #4]
 8006616:	8d5b      	ldrh	r3, [r3, #42]	@ 0x2a
 8006618:	b29b      	uxth	r3, r3
 800661a:	3b01      	subs	r3, #1
 800661c:	b29a      	uxth	r2, r3
 800661e:	687b      	ldr	r3, [r7, #4]
 8006620:	855a      	strh	r2, [r3, #42]	@ 0x2a
 8006622:	687b      	ldr	r3, [r7, #4]
 8006624:	8d5b      	ldrh	r3, [r3, #42]	@ 0x2a
 8006626:	b29b      	uxth	r3, r3
 8006628:	2b00      	cmp	r3, #0
 800662a:	d114      	bne.n	8006656 <I2C_SlaveReceive_RXNE+0x74>
 800662c:	7bfb      	ldrb	r3, [r7, #15]
 800662e:	2b2a      	cmp	r3, #42	@ 0x2a
 8006630:	d111      	bne.n	8006656 <I2C_SlaveReceive_RXNE+0x74>
 8006632:	687b      	ldr	r3, [r7, #4]
 8006634:	681b      	ldr	r3, [r3, #0]
 8006636:	685a      	ldr	r2, [r3, #4]
 8006638:	687b      	ldr	r3, [r7, #4]
 800663a:	681b      	ldr	r3, [r3, #0]
 800663c:	f422 6280 	bic.w	r2, r2, #1024	@ 0x400
 8006640:	605a      	str	r2, [r3, #4]
 8006642:	687b      	ldr	r3, [r7, #4]
 8006644:	2222      	movs	r2, #34	@ 0x22
 8006646:	631a      	str	r2, [r3, #48]	@ 0x30
 8006648:	687b      	ldr	r3, [r7, #4]
 800664a:	2228      	movs	r2, #40	@ 0x28
 800664c:	f883 203d 	strb.w	r2, [r3, #61]	@ 0x3d
 8006650:	6878      	ldr	r0, [r7, #4]
 8006652:	f7fa ff0b 	bl	800146c <HAL_I2C_SlaveRxCpltCallback>
 8006656:	bf00      	nop
 8006658:	3710      	adds	r7, #16
 800665a:	46bd      	mov	sp, r7
 800665c:	bd80      	pop	{r7, pc}

0800665e <I2C_SlaveReceive_BTF>:
 800665e:	b480      	push	{r7}
 8006660:	b083      	sub	sp, #12
 8006662:	af00      	add	r7, sp, #0
 8006664:	6078      	str	r0, [r7, #4]
 8006666:	687b      	ldr	r3, [r7, #4]
 8006668:	8d5b      	ldrh	r3, [r3, #42]	@ 0x2a
 800666a:	b29b      	uxth	r3, r3
 800666c:	2b00      	cmp	r3, #0
 800666e:	d012      	beq.n	8006696 <I2C_SlaveReceive_BTF+0x38>
 8006670:	687b      	ldr	r3, [r7, #4]
 8006672:	681b      	ldr	r3, [r3, #0]
 8006674:	691a      	ldr	r2, [r3, #16]
 8006676:	687b      	ldr	r3, [r7, #4]
 8006678:	6a5b      	ldr	r3, [r3, #36]	@ 0x24
 800667a:	b2d2      	uxtb	r2, r2
 800667c:	701a      	strb	r2, [r3, #0]
 800667e:	687b      	ldr	r3, [r7, #4]
 8006680:	6a5b      	ldr	r3, [r3, #36]	@ 0x24
 8006682:	1c5a      	adds	r2, r3, #1
 8006684:	687b      	ldr	r3, [r7, #4]
 8006686:	625a      	str	r2, [r3, #36]	@ 0x24
 8006688:	687b      	ldr	r3, [r7, #4]
 800668a:	8d5b      	ldrh	r3, [r3, #42]	@ 0x2a
 800668c:	b29b      	uxth	r3, r3
 800668e:	3b01      	subs	r3, #1
 8006690:	b29a      	uxth	r2, r3
 8006692:	687b      	ldr	r3, [r7, #4]
 8006694:	855a      	strh	r2, [r3, #42]	@ 0x2a
 8006696:	bf00      	nop
 8006698:	370c      	adds	r7, #12
 800669a:	46bd      	mov	sp, r7
 800669c:	bc80      	pop	{r7}
 800669e:	4770      	bx	lr

080066a0 <I2C_Slave_ADDR>:
 80066a0:	b580      	push	{r7, lr}
 80066a2:	b084      	sub	sp, #16
 80066a4:	af00      	add	r7, sp, #0
 80066a6:	6078      	str	r0, [r7, #4]
 80066a8:	6039      	str	r1, [r7, #0]
 80066aa:	2300      	movs	r3, #0
 80066ac:	73fb      	strb	r3, [r7, #15]
 80066ae:	687b      	ldr	r3, [r7, #4]
 80066b0:	f893 303d 	ldrb.w	r3, [r3, #61]	@ 0x3d
 80066b4:	b2db      	uxtb	r3, r3
 80066b6:	f003 0328 	and.w	r3, r3, #40	@ 0x28
 80066ba:	2b28      	cmp	r3, #40	@ 0x28
 80066bc:	d127      	bne.n	800670e <I2C_Slave_ADDR+0x6e>
 80066be:	687b      	ldr	r3, [r7, #4]
 80066c0:	681b      	ldr	r3, [r3, #0]
 80066c2:	685a      	ldr	r2, [r3, #4]
 80066c4:	687b      	ldr	r3, [r7, #4]
 80066c6:	681b      	ldr	r3, [r3, #0]
 80066c8:	f422 6280 	bic.w	r2, r2, #1024	@ 0x400
 80066cc:	605a      	str	r2, [r3, #4]
 80066ce:	683b      	ldr	r3, [r7, #0]
 80066d0:	089b      	lsrs	r3, r3, #2
 80066d2:	f003 0301 	and.w	r3, r3, #1
 80066d6:	2b00      	cmp	r3, #0
 80066d8:	d101      	bne.n	80066de <I2C_Slave_ADDR+0x3e>
 80066da:	2301      	movs	r3, #1
 80066dc:	73fb      	strb	r3, [r7, #15]
 80066de:	683b      	ldr	r3, [r7, #0]
 80066e0:	09db      	lsrs	r3, r3, #7
 80066e2:	f003 0301 	and.w	r3, r3, #1
 80066e6:	2b00      	cmp	r3, #0
 80066e8:	d103      	bne.n	80066f2 <I2C_Slave_ADDR+0x52>
 80066ea:	687b      	ldr	r3, [r7, #4]
 80066ec:	68db      	ldr	r3, [r3, #12]
 80066ee:	81bb      	strh	r3, [r7, #12]
 80066f0:	e002      	b.n	80066f8 <I2C_Slave_ADDR+0x58>
 80066f2:	687b      	ldr	r3, [r7, #4]
 80066f4:	699b      	ldr	r3, [r3, #24]
 80066f6:	81bb      	strh	r3, [r7, #12]
 80066f8:	687b      	ldr	r3, [r7, #4]
 80066fa:	2200      	movs	r2, #0
 80066fc:	f883 203c 	strb.w	r2, [r3, #60]	@ 0x3c
 8006700:	89ba      	ldrh	r2, [r7, #12]
 8006702:	7bfb      	ldrb	r3, [r7, #15]
 8006704:	4619      	mov	r1, r3
 8006706:	6878      	ldr	r0, [r7, #4]
 8006708:	f7ff f931 	bl	800596e <HAL_I2C_AddrCallback>
 800670c:	e00e      	b.n	800672c <I2C_Slave_ADDR+0x8c>
 800670e:	2300      	movs	r3, #0
 8006710:	60bb      	str	r3, [r7, #8]
 8006712:	687b      	ldr	r3, [r7, #4]
 8006714:	681b      	ldr	r3, [r3, #0]
 8006716:	695b      	ldr	r3, [r3, #20]
 8006718:	60bb      	str	r3, [r7, #8]
 800671a:	687b      	ldr	r3, [r7, #4]
 800671c:	681b      	ldr	r3, [r3, #0]
 800671e:	699b      	ldr	r3, [r3, #24]
 8006720:	60bb      	str	r3, [r7, #8]
 8006722:	68bb      	ldr	r3, [r7, #8]
 8006724:	687b      	ldr	r3, [r7, #4]
 8006726:	2200      	movs	r2, #0
 8006728:	f883 203c 	strb.w	r2, [r3, #60]	@ 0x3c
 800672c:	bf00      	nop
 800672e:	3710      	adds	r7, #16
 8006730:	46bd      	mov	sp, r7
 8006732:	bd80      	pop	{r7, pc}

08006734 <I2C_Slave_STOPF>:
 8006734:	b580      	push	{r7, lr}
 8006736:	b084      	sub	sp, #16
 8006738:	af00      	add	r7, sp, #0
 800673a:	6078      	str	r0, [r7, #4]
 800673c:	687b      	ldr	r3, [r7, #4]
 800673e:	f893 303d 	ldrb.w	r3, [r3, #61]	@ 0x3d
 8006742:	73fb      	strb	r3, [r7, #15]
 8006744:	687b      	ldr	r3, [r7, #4]
 8006746:	681b      	ldr	r3, [r3, #0]
 8006748:	685a      	ldr	r2, [r3, #4]
 800674a:	687b      	ldr	r3, [r7, #4]
 800674c:	681b      	ldr	r3, [r3, #0]
 800674e:	f422 62e0 	bic.w	r2, r2, #1792	@ 0x700
 8006752:	605a      	str	r2, [r3, #4]
 8006754:	2300      	movs	r3, #0
 8006756:	60bb      	str	r3, [r7, #8]
 8006758:	687b      	ldr	r3, [r7, #4]
 800675a:	681b      	ldr	r3, [r3, #0]
 800675c:	695b      	ldr	r3, [r3, #20]
 800675e:	60bb      	str	r3, [r7, #8]
 8006760:	687b      	ldr	r3, [r7, #4]
 8006762:	681b      	ldr	r3, [r3, #0]
 8006764:	681a      	ldr	r2, [r3, #0]
 8006766:	687b      	ldr	r3, [r7, #4]
 8006768:	681b      	ldr	r3, [r3, #0]
 800676a:	f042 0201 	orr.w	r2, r2, #1
 800676e:	601a      	str	r2, [r3, #0]
 8006770:	68bb      	ldr	r3, [r7, #8]
 8006772:	687b      	ldr	r3, [r7, #4]
 8006774:	681b      	ldr	r3, [r3, #0]
 8006776:	681a      	ldr	r2, [r3, #0]
 8006778:	687b      	ldr	r3, [r7, #4]
 800677a:	681b      	ldr	r3, [r3, #0]
 800677c:	f422 6280 	bic.w	r2, r2, #1024	@ 0x400
 8006780:	601a      	str	r2, [r3, #0]
 8006782:	687b      	ldr	r3, [r7, #4]
 8006784:	681b      	ldr	r3, [r3, #0]
 8006786:	685b      	ldr	r3, [r3, #4]
 8006788:	f403 6300 	and.w	r3, r3, #2048	@ 0x800
 800678c:	f5b3 6f00 	cmp.w	r3, #2048	@ 0x800
 8006790:	d172      	bne.n	8006878 <I2C_Slave_STOPF+0x144>
 8006792:	7bfb      	ldrb	r3, [r7, #15]
 8006794:	2b22      	cmp	r3, #34	@ 0x22
 8006796:	d002      	beq.n	800679e <I2C_Slave_STOPF+0x6a>
 8006798:	7bfb      	ldrb	r3, [r7, #15]
 800679a:	2b2a      	cmp	r3, #42	@ 0x2a
 800679c:	d135      	bne.n	800680a <I2C_Slave_STOPF+0xd6>
 800679e:	687b      	ldr	r3, [r7, #4]
 80067a0:	6b9b      	ldr	r3, [r3, #56]	@ 0x38
 80067a2:	681b      	ldr	r3, [r3, #0]
 80067a4:	685b      	ldr	r3, [r3, #4]
 80067a6:	b29a      	uxth	r2, r3
 80067a8:	687b      	ldr	r3, [r7, #4]
 80067aa:	855a      	strh	r2, [r3, #42]	@ 0x2a
 80067ac:	687b      	ldr	r3, [r7, #4]
 80067ae:	8d5b      	ldrh	r3, [r3, #42]	@ 0x2a
 80067b0:	b29b      	uxth	r3, r3
 80067b2:	2b00      	cmp	r3, #0
 80067b4:	d005      	beq.n	80067c2 <I2C_Slave_STOPF+0x8e>
 80067b6:	687b      	ldr	r3, [r7, #4]
 80067b8:	6c1b      	ldr	r3, [r3, #64]	@ 0x40
 80067ba:	f043 0204 	orr.w	r2, r3, #4
 80067be:	687b      	ldr	r3, [r7, #4]
 80067c0:	641a      	str	r2, [r3, #64]	@ 0x40
 80067c2:	687b      	ldr	r3, [r7, #4]
 80067c4:	681b      	ldr	r3, [r3, #0]
 80067c6:	685a      	ldr	r2, [r3, #4]
 80067c8:	687b      	ldr	r3, [r7, #4]
 80067ca:	681b      	ldr	r3, [r3, #0]
 80067cc:	f422 6200 	bic.w	r2, r2, #2048	@ 0x800
 80067d0:	605a      	str	r2, [r3, #4]
 80067d2:	687b      	ldr	r3, [r7, #4]
 80067d4:	6b9b      	ldr	r3, [r3, #56]	@ 0x38
 80067d6:	4618      	mov	r0, r3
 80067d8:	f7fe fb36 	bl	8004e48 <HAL_DMA_GetState>
 80067dc:	4603      	mov	r3, r0
 80067de:	2b01      	cmp	r3, #1
 80067e0:	d049      	beq.n	8006876 <I2C_Slave_STOPF+0x142>
 80067e2:	687b      	ldr	r3, [r7, #4]
 80067e4:	6b9b      	ldr	r3, [r3, #56]	@ 0x38
 80067e6:	4a69      	ldr	r2, [pc, #420]	@ (800698c <I2C_Slave_STOPF+0x258>)
 80067e8:	635a      	str	r2, [r3, #52]	@ 0x34
 80067ea:	687b      	ldr	r3, [r7, #4]
 80067ec:	6b9b      	ldr	r3, [r3, #56]	@ 0x38
 80067ee:	4618      	mov	r0, r3
 80067f0:	f7fe fab2 	bl	8004d58 <HAL_DMA_Abort_IT>
 80067f4:	4603      	mov	r3, r0
 80067f6:	2b00      	cmp	r3, #0
 80067f8:	d03d      	beq.n	8006876 <I2C_Slave_STOPF+0x142>
 80067fa:	687b      	ldr	r3, [r7, #4]
 80067fc:	6b9b      	ldr	r3, [r3, #56]	@ 0x38
 80067fe:	6b5b      	ldr	r3, [r3, #52]	@ 0x34
 8006800:	687a      	ldr	r2, [r7, #4]
 8006802:	6b92      	ldr	r2, [r2, #56]	@ 0x38
 8006804:	4610      	mov	r0, r2
 8006806:	4798      	blx	r3
 8006808:	e035      	b.n	8006876 <I2C_Slave_STOPF+0x142>
 800680a:	687b      	ldr	r3, [r7, #4]
 800680c:	6b5b      	ldr	r3, [r3, #52]	@ 0x34
 800680e:	681b      	ldr	r3, [r3, #0]
 8006810:	685b      	ldr	r3, [r3, #4]
 8006812:	b29a      	uxth	r2, r3
 8006814:	687b      	ldr	r3, [r7, #4]
 8006816:	855a      	strh	r2, [r3, #42]	@ 0x2a
 8006818:	687b      	ldr	r3, [r7, #4]
 800681a:	8d5b      	ldrh	r3, [r3, #42]	@ 0x2a
 800681c:	b29b      	uxth	r3, r3
 800681e:	2b00      	cmp	r3, #0
 8006820:	d005      	beq.n	800682e <I2C_Slave_STOPF+0xfa>
 8006822:	687b      	ldr	r3, [r7, #4]
 8006824:	6c1b      	ldr	r3, [r3, #64]	@ 0x40
 8006826:	f043 0204 	orr.w	r2, r3, #4
 800682a:	687b      	ldr	r3, [r7, #4]
 800682c:	641a      	str	r2, [r3, #64]	@ 0x40
 800682e:	687b      	ldr	r3, [r7, #4]
 8006830:	681b      	ldr	r3, [r3, #0]
 8006832:	685a      	ldr	r2, [r3, #4]
 8006834:	687b      	ldr	r3, [r7, #4]
 8006836:	681b      	ldr	r3, [r3, #0]
 8006838:	f422 6200 	bic.w	r2, r2, #2048	@ 0x800
 800683c:	605a      	str	r2, [r3, #4]
 800683e:	687b      	ldr	r3, [r7, #4]
 8006840:	6b5b      	ldr	r3, [r3, #52]	@ 0x34
 8006842:	4618      	mov	r0, r3
 8006844:	f7fe fb00 	bl	8004e48 <HAL_DMA_GetState>
 8006848:	4603      	mov	r3, r0
 800684a:	2b01      	cmp	r3, #1
 800684c:	d014      	beq.n	8006878 <I2C_Slave_STOPF+0x144>
 800684e:	687b      	ldr	r3, [r7, #4]
 8006850:	6b5b      	ldr	r3, [r3, #52]	@ 0x34
 8006852:	4a4e      	ldr	r2, [pc, #312]	@ (800698c <I2C_Slave_STOPF+0x258>)
 8006854:	635a      	str	r2, [r3, #52]	@ 0x34
 8006856:	687b      	ldr	r3, [r7, #4]
 8006858:	6b5b      	ldr	r3, [r3, #52]	@ 0x34
 800685a:	4618      	mov	r0, r3
 800685c:	f7fe fa7c 	bl	8004d58 <HAL_DMA_Abort_IT>
 8006860:	4603      	mov	r3, r0
 8006862:	2b00      	cmp	r3, #0
 8006864:	d008      	beq.n	8006878 <I2C_Slave_STOPF+0x144>
 8006866:	687b      	ldr	r3, [r7, #4]
 8006868:	6b5b      	ldr	r3, [r3, #52]	@ 0x34
 800686a:	6b5b      	ldr	r3, [r3, #52]	@ 0x34
 800686c:	687a      	ldr	r2, [r7, #4]
 800686e:	6b52      	ldr	r2, [r2, #52]	@ 0x34
 8006870:	4610      	mov	r0, r2
 8006872:	4798      	blx	r3
 8006874:	e000      	b.n	8006878 <I2C_Slave_STOPF+0x144>
 8006876:	bf00      	nop
 8006878:	687b      	ldr	r3, [r7, #4]
 800687a:	8d5b      	ldrh	r3, [r3, #42]	@ 0x2a
 800687c:	b29b      	uxth	r3, r3
 800687e:	2b00      	cmp	r3, #0
 8006880:	d03e      	beq.n	8006900 <I2C_Slave_STOPF+0x1cc>
 8006882:	687b      	ldr	r3, [r7, #4]
 8006884:	681b      	ldr	r3, [r3, #0]
 8006886:	695b      	ldr	r3, [r3, #20]
 8006888:	f003 0304 	and.w	r3, r3, #4
 800688c:	2b04      	cmp	r3, #4
 800688e:	d112      	bne.n	80068b6 <I2C_Slave_STOPF+0x182>
 8006890:	687b      	ldr	r3, [r7, #4]
 8006892:	681b      	ldr	r3, [r3, #0]
 8006894:	691a      	ldr	r2, [r3, #16]
 8006896:	687b      	ldr	r3, [r7, #4]
 8006898:	6a5b      	ldr	r3, [r3, #36]	@ 0x24
 800689a:	b2d2      	uxtb	r2, r2
 800689c:	701a      	strb	r2, [r3, #0]
 800689e:	687b      	ldr	r3, [r7, #4]
 80068a0:	6a5b      	ldr	r3, [r3, #36]	@ 0x24
 80068a2:	1c5a      	adds	r2, r3, #1
 80068a4:	687b      	ldr	r3, [r7, #4]
 80068a6:	625a      	str	r2, [r3, #36]	@ 0x24
 80068a8:	687b      	ldr	r3, [r7, #4]
 80068aa:	8d5b      	ldrh	r3, [r3, #42]	@ 0x2a
 80068ac:	b29b      	uxth	r3, r3
 80068ae:	3b01      	subs	r3, #1
 80068b0:	b29a      	uxth	r2, r3
 80068b2:	687b      	ldr	r3, [r7, #4]
 80068b4:	855a      	strh	r2, [r3, #42]	@ 0x2a
 80068b6:	687b      	ldr	r3, [r7, #4]
 80068b8:	681b      	ldr	r3, [r3, #0]
 80068ba:	695b      	ldr	r3, [r3, #20]
 80068bc:	f003 0340 	and.w	r3, r3, #64	@ 0x40
 80068c0:	2b40      	cmp	r3, #64	@ 0x40
 80068c2:	d112      	bne.n	80068ea <I2C_Slave_STOPF+0x1b6>
 80068c4:	687b      	ldr	r3, [r7, #4]
 80068c6:	681b      	ldr	r3, [r3, #0]
 80068c8:	691a      	ldr	r2, [r3, #16]
 80068ca:	687b      	ldr	r3, [r7, #4]
 80068cc:	6a5b      	ldr	r3, [r3, #36]	@ 0x24
 80068ce:	b2d2      	uxtb	r2, r2
 80068d0:	701a      	strb	r2, [r3, #0]
 80068d2:	687b      	ldr	r3, [r7, #4]
 80068d4:	6a5b      	ldr	r3, [r3, #36]	@ 0x24
 80068d6:	1c5a      	adds	r2, r3, #1
 80068d8:	687b      	ldr	r3, [r7, #4]
 80068da:	625a      	str	r2, [r3, #36]	@ 0x24
 80068dc:	687b      	ldr	r3, [r7, #4]
 80068de:	8d5b      	ldrh	r3, [r3, #42]	@ 0x2a
 80068e0:	b29b      	uxth	r3, r3
 80068e2:	3b01      	subs	r3, #1
 80068e4:	b29a      	uxth	r2, r3
 80068e6:	687b      	ldr	r3, [r7, #4]
 80068e8:	855a      	strh	r2, [r3, #42]	@ 0x2a
 80068ea:	687b      	ldr	r3, [r7, #4]
 80068ec:	8d5b      	ldrh	r3, [r3, #42]	@ 0x2a
 80068ee:	b29b      	uxth	r3, r3
 80068f0:	2b00      	cmp	r3, #0
 80068f2:	d005      	beq.n	8006900 <I2C_Slave_STOPF+0x1cc>
 80068f4:	687b      	ldr	r3, [r7, #4]
 80068f6:	6c1b      	ldr	r3, [r3, #64]	@ 0x40
 80068f8:	f043 0204 	orr.w	r2, r3, #4
 80068fc:	687b      	ldr	r3, [r7, #4]
 80068fe:	641a      	str	r2, [r3, #64]	@ 0x40
 8006900:	687b      	ldr	r3, [r7, #4]
 8006902:	6c1b      	ldr	r3, [r3, #64]	@ 0x40
 8006904:	2b00      	cmp	r3, #0
 8006906:	d003      	beq.n	8006910 <I2C_Slave_STOPF+0x1dc>
 8006908:	6878      	ldr	r0, [r7, #4]
 800690a:	f000 f8b7 	bl	8006a7c <I2C_ITError>
 800690e:	e039      	b.n	8006984 <I2C_Slave_STOPF+0x250>
 8006910:	7bfb      	ldrb	r3, [r7, #15]
 8006912:	2b2a      	cmp	r3, #42	@ 0x2a
 8006914:	d109      	bne.n	800692a <I2C_Slave_STOPF+0x1f6>
 8006916:	687b      	ldr	r3, [r7, #4]
 8006918:	2200      	movs	r2, #0
 800691a:	631a      	str	r2, [r3, #48]	@ 0x30
 800691c:	687b      	ldr	r3, [r7, #4]
 800691e:	2228      	movs	r2, #40	@ 0x28
 8006920:	f883 203d 	strb.w	r2, [r3, #61]	@ 0x3d
 8006924:	6878      	ldr	r0, [r7, #4]
 8006926:	f7fa fda1 	bl	800146c <HAL_I2C_SlaveRxCpltCallback>
 800692a:	687b      	ldr	r3, [r7, #4]
 800692c:	f893 303d 	ldrb.w	r3, [r3, #61]	@ 0x3d
 8006930:	b2db      	uxtb	r3, r3
 8006932:	2b28      	cmp	r3, #40	@ 0x28
 8006934:	d111      	bne.n	800695a <I2C_Slave_STOPF+0x226>
 8006936:	687b      	ldr	r3, [r7, #4]
 8006938:	4a15      	ldr	r2, [pc, #84]	@ (8006990 <I2C_Slave_STOPF+0x25c>)
 800693a:	62da      	str	r2, [r3, #44]	@ 0x2c
 800693c:	687b      	ldr	r3, [r7, #4]
 800693e:	2200      	movs	r2, #0
 8006940:	631a      	str	r2, [r3, #48]	@ 0x30
 8006942:	687b      	ldr	r3, [r7, #4]
 8006944:	2220      	movs	r2, #32
 8006946:	f883 203d 	strb.w	r2, [r3, #61]	@ 0x3d
 800694a:	687b      	ldr	r3, [r7, #4]
 800694c:	2200      	movs	r2, #0
 800694e:	f883 203e 	strb.w	r2, [r3, #62]	@ 0x3e
 8006952:	6878      	ldr	r0, [r7, #4]
 8006954:	f7ff f818 	bl	8005988 <HAL_I2C_ListenCpltCallback>
 8006958:	e014      	b.n	8006984 <I2C_Slave_STOPF+0x250>
 800695a:	687b      	ldr	r3, [r7, #4]
 800695c:	6b1b      	ldr	r3, [r3, #48]	@ 0x30
 800695e:	2b22      	cmp	r3, #34	@ 0x22
 8006960:	d002      	beq.n	8006968 <I2C_Slave_STOPF+0x234>
 8006962:	7bfb      	ldrb	r3, [r7, #15]
 8006964:	2b22      	cmp	r3, #34	@ 0x22
 8006966:	d10d      	bne.n	8006984 <I2C_Slave_STOPF+0x250>
 8006968:	687b      	ldr	r3, [r7, #4]
 800696a:	2200      	movs	r2, #0
 800696c:	631a      	str	r2, [r3, #48]	@ 0x30
 800696e:	687b      	ldr	r3, [r7, #4]
 8006970:	2220      	movs	r2, #32
 8006972:	f883 203d 	strb.w	r2, [r3, #61]	@ 0x3d
 8006976:	687b      	ldr	r3, [r7, #4]
 8006978:	2200      	movs	r2, #0
 800697a:	f883 203e 	strb.w	r2, [r3, #62]	@ 0x3e
 800697e:	6878      	ldr	r0, [r7, #4]
 8006980:	f7fa fd74 	bl	800146c <HAL_I2C_SlaveRxCpltCallback>
 8006984:	bf00      	nop
 8006986:	3710      	adds	r7, #16
 8006988:	46bd      	mov	sp, r7
 800698a:	bd80      	pop	{r7, pc}
 800698c:	08006ce1 	.word	0x08006ce1
 8006990:	ffff0000 	.word	0xffff0000

08006994 <I2C_Slave_AF>:
 8006994:	b580      	push	{r7, lr}
 8006996:	b084      	sub	sp, #16
 8006998:	af00      	add	r7, sp, #0
 800699a:	6078      	str	r0, [r7, #4]
 800699c:	687b      	ldr	r3, [r7, #4]
 800699e:	f893 303d 	ldrb.w	r3, [r3, #61]	@ 0x3d
 80069a2:	73fb      	strb	r3, [r7, #15]
 80069a4:	687b      	ldr	r3, [r7, #4]
 80069a6:	6adb      	ldr	r3, [r3, #44]	@ 0x2c
 80069a8:	60bb      	str	r3, [r7, #8]
 80069aa:	68bb      	ldr	r3, [r7, #8]
 80069ac:	2b08      	cmp	r3, #8
 80069ae:	d002      	beq.n	80069b6 <I2C_Slave_AF+0x22>
 80069b0:	68bb      	ldr	r3, [r7, #8]
 80069b2:	2b20      	cmp	r3, #32
 80069b4:	d129      	bne.n	8006a0a <I2C_Slave_AF+0x76>
 80069b6:	7bfb      	ldrb	r3, [r7, #15]
 80069b8:	2b28      	cmp	r3, #40	@ 0x28
 80069ba:	d126      	bne.n	8006a0a <I2C_Slave_AF+0x76>
 80069bc:	687b      	ldr	r3, [r7, #4]
 80069be:	4a2e      	ldr	r2, [pc, #184]	@ (8006a78 <I2C_Slave_AF+0xe4>)
 80069c0:	62da      	str	r2, [r3, #44]	@ 0x2c
 80069c2:	687b      	ldr	r3, [r7, #4]
 80069c4:	681b      	ldr	r3, [r3, #0]
 80069c6:	685a      	ldr	r2, [r3, #4]
 80069c8:	687b      	ldr	r3, [r7, #4]
 80069ca:	681b      	ldr	r3, [r3, #0]
 80069cc:	f422 62e0 	bic.w	r2, r2, #1792	@ 0x700
 80069d0:	605a      	str	r2, [r3, #4]
 80069d2:	687b      	ldr	r3, [r7, #4]
 80069d4:	681b      	ldr	r3, [r3, #0]
 80069d6:	f46f 6280 	mvn.w	r2, #1024	@ 0x400
 80069da:	615a      	str	r2, [r3, #20]
 80069dc:	687b      	ldr	r3, [r7, #4]
 80069de:	681b      	ldr	r3, [r3, #0]
 80069e0:	681a      	ldr	r2, [r3, #0]
 80069e2:	687b      	ldr	r3, [r7, #4]
 80069e4:	681b      	ldr	r3, [r3, #0]
 80069e6:	f422 6280 	bic.w	r2, r2, #1024	@ 0x400
 80069ea:	601a      	str	r2, [r3, #0]
 80069ec:	687b      	ldr	r3, [r7, #4]
 80069ee:	2200      	movs	r2, #0
 80069f0:	631a      	str	r2, [r3, #48]	@ 0x30
 80069f2:	687b      	ldr	r3, [r7, #4]
 80069f4:	2220      	movs	r2, #32
 80069f6:	f883 203d 	strb.w	r2, [r3, #61]	@ 0x3d
 80069fa:	687b      	ldr	r3, [r7, #4]
 80069fc:	2200      	movs	r2, #0
 80069fe:	f883 203e 	strb.w	r2, [r3, #62]	@ 0x3e
 8006a02:	6878      	ldr	r0, [r7, #4]
 8006a04:	f7fe ffc0 	bl	8005988 <HAL_I2C_ListenCpltCallback>
 8006a08:	e031      	b.n	8006a6e <I2C_Slave_AF+0xda>
 8006a0a:	7bfb      	ldrb	r3, [r7, #15]
 8006a0c:	2b21      	cmp	r3, #33	@ 0x21
 8006a0e:	d129      	bne.n	8006a64 <I2C_Slave_AF+0xd0>
 8006a10:	687b      	ldr	r3, [r7, #4]
 8006a12:	4a19      	ldr	r2, [pc, #100]	@ (8006a78 <I2C_Slave_AF+0xe4>)
 8006a14:	62da      	str	r2, [r3, #44]	@ 0x2c
 8006a16:	687b      	ldr	r3, [r7, #4]
 8006a18:	2221      	movs	r2, #33	@ 0x21
 8006a1a:	631a      	str	r2, [r3, #48]	@ 0x30
 8006a1c:	687b      	ldr	r3, [r7, #4]
 8006a1e:	2220      	movs	r2, #32
 8006a20:	f883 203d 	strb.w	r2, [r3, #61]	@ 0x3d
 8006a24:	687b      	ldr	r3, [r7, #4]
 8006a26:	2200      	movs	r2, #0
 8006a28:	f883 203e 	strb.w	r2, [r3, #62]	@ 0x3e
 8006a2c:	687b      	ldr	r3, [r7, #4]
 8006a2e:	681b      	ldr	r3, [r3, #0]
 8006a30:	685a      	ldr	r2, [r3, #4]
 8006a32:	687b      	ldr	r3, [r7, #4]
 8006a34:	681b      	ldr	r3, [r3, #0]
 8006a36:	f422 62e0 	bic.w	r2, r2, #1792	@ 0x700
 8006a3a:	605a      	str	r2, [r3, #4]
 8006a3c:	687b      	ldr	r3, [r7, #4]
 8006a3e:	681b      	ldr	r3, [r3, #0]
 8006a40:	f46f 6280 	mvn.w	r2, #1024	@ 0x400
 8006a44:	615a      	str	r2, [r3, #20]
 8006a46:	687b      	ldr	r3, [r7, #4]
 8006a48:	681b      	ldr	r3, [r3, #0]
 8006a4a:	681a      	ldr	r2, [r3, #0]
 8006a4c:	687b      	ldr	r3, [r7, #4]
 8006a4e:	681b      	ldr	r3, [r3, #0]
 8006a50:	f422 6280 	bic.w	r2, r2, #1024	@ 0x400
 8006a54:	601a      	str	r2, [r3, #0]
 8006a56:	6878      	ldr	r0, [r7, #4]
 8006a58:	f7fe fccc 	bl	80053f4 <I2C_Flush_DR>
 8006a5c:	6878      	ldr	r0, [r7, #4]
 8006a5e:	f7fe ff7d 	bl	800595c <HAL_I2C_SlaveTxCpltCallback>
 8006a62:	e004      	b.n	8006a6e <I2C_Slave_AF+0xda>
 8006a64:	687b      	ldr	r3, [r7, #4]
 8006a66:	681b      	ldr	r3, [r3, #0]
 8006a68:	f46f 6280 	mvn.w	r2, #1024	@ 0x400
 8006a6c:	615a      	str	r2, [r3, #20]
 8006a6e:	bf00      	nop
 8006a70:	3710      	adds	r7, #16
 8006a72:	46bd      	mov	sp, r7
 8006a74:	bd80      	pop	{r7, pc}
 8006a76:	bf00      	nop
 8006a78:	ffff0000 	.word	0xffff0000

08006a7c <I2C_ITError>:
 8006a7c:	b580      	push	{r7, lr}
 8006a7e:	b084      	sub	sp, #16
 8006a80:	af00      	add	r7, sp, #0
 8006a82:	6078      	str	r0, [r7, #4]
 8006a84:	687b      	ldr	r3, [r7, #4]
 8006a86:	f893 303d 	ldrb.w	r3, [r3, #61]	@ 0x3d
 8006a8a:	73fb      	strb	r3, [r7, #15]
 8006a8c:	687b      	ldr	r3, [r7, #4]
 8006a8e:	f893 303e 	ldrb.w	r3, [r3, #62]	@ 0x3e
 8006a92:	73bb      	strb	r3, [r7, #14]
 8006a94:	7bbb      	ldrb	r3, [r7, #14]
 8006a96:	2b10      	cmp	r3, #16
 8006a98:	d002      	beq.n	8006aa0 <I2C_ITError+0x24>
 8006a9a:	7bbb      	ldrb	r3, [r7, #14]
 8006a9c:	2b40      	cmp	r3, #64	@ 0x40
 8006a9e:	d10a      	bne.n	8006ab6 <I2C_ITError+0x3a>
 8006aa0:	7bfb      	ldrb	r3, [r7, #15]
 8006aa2:	2b22      	cmp	r3, #34	@ 0x22
 8006aa4:	d107      	bne.n	8006ab6 <I2C_ITError+0x3a>
 8006aa6:	687b      	ldr	r3, [r7, #4]
 8006aa8:	681b      	ldr	r3, [r3, #0]
 8006aaa:	681a      	ldr	r2, [r3, #0]
 8006aac:	687b      	ldr	r3, [r7, #4]
 8006aae:	681b      	ldr	r3, [r3, #0]
 8006ab0:	f422 6200 	bic.w	r2, r2, #2048	@ 0x800
 8006ab4:	601a      	str	r2, [r3, #0]
 8006ab6:	7bfb      	ldrb	r3, [r7, #15]
 8006ab8:	f003 0328 	and.w	r3, r3, #40	@ 0x28
 8006abc:	2b28      	cmp	r3, #40	@ 0x28
 8006abe:	d107      	bne.n	8006ad0 <I2C_ITError+0x54>
 8006ac0:	687b      	ldr	r3, [r7, #4]
 8006ac2:	2200      	movs	r2, #0
 8006ac4:	631a      	str	r2, [r3, #48]	@ 0x30
 8006ac6:	687b      	ldr	r3, [r7, #4]
 8006ac8:	2228      	movs	r2, #40	@ 0x28
 8006aca:	f883 203d 	strb.w	r2, [r3, #61]	@ 0x3d
 8006ace:	e015      	b.n	8006afc <I2C_ITError+0x80>
 8006ad0:	687b      	ldr	r3, [r7, #4]
 8006ad2:	681b      	ldr	r3, [r3, #0]
 8006ad4:	685b      	ldr	r3, [r3, #4]
 8006ad6:	f403 6300 	and.w	r3, r3, #2048	@ 0x800
 8006ada:	f5b3 6f00 	cmp.w	r3, #2048	@ 0x800
 8006ade:	d00a      	beq.n	8006af6 <I2C_ITError+0x7a>
 8006ae0:	7bfb      	ldrb	r3, [r7, #15]
 8006ae2:	2b60      	cmp	r3, #96	@ 0x60
 8006ae4:	d007      	beq.n	8006af6 <I2C_ITError+0x7a>
 8006ae6:	687b      	ldr	r3, [r7, #4]
 8006ae8:	2220      	movs	r2, #32
 8006aea:	f883 203d 	strb.w	r2, [r3, #61]	@ 0x3d
 8006aee:	687b      	ldr	r3, [r7, #4]
 8006af0:	2200      	movs	r2, #0
 8006af2:	f883 203e 	strb.w	r2, [r3, #62]	@ 0x3e
 8006af6:	687b      	ldr	r3, [r7, #4]
 8006af8:	2200      	movs	r2, #0
 8006afa:	631a      	str	r2, [r3, #48]	@ 0x30
 8006afc:	687b      	ldr	r3, [r7, #4]
 8006afe:	681b      	ldr	r3, [r3, #0]
 8006b00:	685b      	ldr	r3, [r3, #4]
 8006b02:	f403 6300 	and.w	r3, r3, #2048	@ 0x800
 8006b06:	f5b3 6f00 	cmp.w	r3, #2048	@ 0x800
 8006b0a:	d162      	bne.n	8006bd2 <I2C_ITError+0x156>
 8006b0c:	687b      	ldr	r3, [r7, #4]
 8006b0e:	681b      	ldr	r3, [r3, #0]
 8006b10:	685a      	ldr	r2, [r3, #4]
 8006b12:	687b      	ldr	r3, [r7, #4]
 8006b14:	681b      	ldr	r3, [r3, #0]
 8006b16:	f422 6200 	bic.w	r2, r2, #2048	@ 0x800
 8006b1a:	605a      	str	r2, [r3, #4]
 8006b1c:	687b      	ldr	r3, [r7, #4]
 8006b1e:	6b5b      	ldr	r3, [r3, #52]	@ 0x34
 8006b20:	f893 3021 	ldrb.w	r3, [r3, #33]	@ 0x21
 8006b24:	b2db      	uxtb	r3, r3
 8006b26:	2b01      	cmp	r3, #1
 8006b28:	d020      	beq.n	8006b6c <I2C_ITError+0xf0>
 8006b2a:	687b      	ldr	r3, [r7, #4]
 8006b2c:	6b5b      	ldr	r3, [r3, #52]	@ 0x34
 8006b2e:	4a6a      	ldr	r2, [pc, #424]	@ (8006cd8 <I2C_ITError+0x25c>)
 8006b30:	635a      	str	r2, [r3, #52]	@ 0x34
 8006b32:	687b      	ldr	r3, [r7, #4]
 8006b34:	6b5b      	ldr	r3, [r3, #52]	@ 0x34
 8006b36:	4618      	mov	r0, r3
 8006b38:	f7fe f90e 	bl	8004d58 <HAL_DMA_Abort_IT>
 8006b3c:	4603      	mov	r3, r0
 8006b3e:	2b00      	cmp	r3, #0
 8006b40:	f000 8089 	beq.w	8006c56 <I2C_ITError+0x1da>
 8006b44:	687b      	ldr	r3, [r7, #4]
 8006b46:	681b      	ldr	r3, [r3, #0]
 8006b48:	681a      	ldr	r2, [r3, #0]
 8006b4a:	687b      	ldr	r3, [r7, #4]
 8006b4c:	681b      	ldr	r3, [r3, #0]
 8006b4e:	f022 0201 	bic.w	r2, r2, #1
 8006b52:	601a      	str	r2, [r3, #0]
 8006b54:	687b      	ldr	r3, [r7, #4]
 8006b56:	2220      	movs	r2, #32
 8006b58:	f883 203d 	strb.w	r2, [r3, #61]	@ 0x3d
 8006b5c:	687b      	ldr	r3, [r7, #4]
 8006b5e:	6b5b      	ldr	r3, [r3, #52]	@ 0x34
 8006b60:	6b5b      	ldr	r3, [r3, #52]	@ 0x34
 8006b62:	687a      	ldr	r2, [r7, #4]
 8006b64:	6b52      	ldr	r2, [r2, #52]	@ 0x34
 8006b66:	4610      	mov	r0, r2
 8006b68:	4798      	blx	r3
 8006b6a:	e074      	b.n	8006c56 <I2C_ITError+0x1da>
 8006b6c:	687b      	ldr	r3, [r7, #4]
 8006b6e:	6b9b      	ldr	r3, [r3, #56]	@ 0x38
 8006b70:	4a59      	ldr	r2, [pc, #356]	@ (8006cd8 <I2C_ITError+0x25c>)
 8006b72:	635a      	str	r2, [r3, #52]	@ 0x34
 8006b74:	687b      	ldr	r3, [r7, #4]
 8006b76:	6b9b      	ldr	r3, [r3, #56]	@ 0x38
 8006b78:	4618      	mov	r0, r3
 8006b7a:	f7fe f8ed 	bl	8004d58 <HAL_DMA_Abort_IT>
 8006b7e:	4603      	mov	r3, r0
 8006b80:	2b00      	cmp	r3, #0
 8006b82:	d068      	beq.n	8006c56 <I2C_ITError+0x1da>
 8006b84:	687b      	ldr	r3, [r7, #4]
 8006b86:	681b      	ldr	r3, [r3, #0]
 8006b88:	695b      	ldr	r3, [r3, #20]
 8006b8a:	f003 0340 	and.w	r3, r3, #64	@ 0x40
 8006b8e:	2b40      	cmp	r3, #64	@ 0x40
 8006b90:	d10b      	bne.n	8006baa <I2C_ITError+0x12e>
 8006b92:	687b      	ldr	r3, [r7, #4]
 8006b94:	681b      	ldr	r3, [r3, #0]
 8006b96:	691a      	ldr	r2, [r3, #16]
 8006b98:	687b      	ldr	r3, [r7, #4]
 8006b9a:	6a5b      	ldr	r3, [r3, #36]	@ 0x24
 8006b9c:	b2d2      	uxtb	r2, r2
 8006b9e:	701a      	strb	r2, [r3, #0]
 8006ba0:	687b      	ldr	r3, [r7, #4]
 8006ba2:	6a5b      	ldr	r3, [r3, #36]	@ 0x24
 8006ba4:	1c5a      	adds	r2, r3, #1
 8006ba6:	687b      	ldr	r3, [r7, #4]
 8006ba8:	625a      	str	r2, [r3, #36]	@ 0x24
 8006baa:	687b      	ldr	r3, [r7, #4]
 8006bac:	681b      	ldr	r3, [r3, #0]
 8006bae:	681a      	ldr	r2, [r3, #0]
 8006bb0:	687b      	ldr	r3, [r7, #4]
 8006bb2:	681b      	ldr	r3, [r3, #0]
 8006bb4:	f022 0201 	bic.w	r2, r2, #1
 8006bb8:	601a      	str	r2, [r3, #0]
 8006bba:	687b      	ldr	r3, [r7, #4]
 8006bbc:	2220      	movs	r2, #32
 8006bbe:	f883 203d 	strb.w	r2, [r3, #61]	@ 0x3d
 8006bc2:	687b      	ldr	r3, [r7, #4]
 8006bc4:	6b9b      	ldr	r3, [r3, #56]	@ 0x38
 8006bc6:	6b5b      	ldr	r3, [r3, #52]	@ 0x34
 8006bc8:	687a      	ldr	r2, [r7, #4]
 8006bca:	6b92      	ldr	r2, [r2, #56]	@ 0x38
 8006bcc:	4610      	mov	r0, r2
 8006bce:	4798      	blx	r3
 8006bd0:	e041      	b.n	8006c56 <I2C_ITError+0x1da>
 8006bd2:	687b      	ldr	r3, [r7, #4]
 8006bd4:	f893 303d 	ldrb.w	r3, [r3, #61]	@ 0x3d
 8006bd8:	b2db      	uxtb	r3, r3
 8006bda:	2b60      	cmp	r3, #96	@ 0x60
 8006bdc:	d125      	bne.n	8006c2a <I2C_ITError+0x1ae>
 8006bde:	687b      	ldr	r3, [r7, #4]
 8006be0:	2220      	movs	r2, #32
 8006be2:	f883 203d 	strb.w	r2, [r3, #61]	@ 0x3d
 8006be6:	687b      	ldr	r3, [r7, #4]
 8006be8:	2200      	movs	r2, #0
 8006bea:	641a      	str	r2, [r3, #64]	@ 0x40
 8006bec:	687b      	ldr	r3, [r7, #4]
 8006bee:	681b      	ldr	r3, [r3, #0]
 8006bf0:	695b      	ldr	r3, [r3, #20]
 8006bf2:	f003 0340 	and.w	r3, r3, #64	@ 0x40
 8006bf6:	2b40      	cmp	r3, #64	@ 0x40
 8006bf8:	d10b      	bne.n	8006c12 <I2C_ITError+0x196>
 8006bfa:	687b      	ldr	r3, [r7, #4]
 8006bfc:	681b      	ldr	r3, [r3, #0]
 8006bfe:	691a      	ldr	r2, [r3, #16]
 8006c00:	687b      	ldr	r3, [r7, #4]
 8006c02:	6a5b      	ldr	r3, [r3, #36]	@ 0x24
 8006c04:	b2d2      	uxtb	r2, r2
 8006c06:	701a      	strb	r2, [r3, #0]
 8006c08:	687b      	ldr	r3, [r7, #4]
 8006c0a:	6a5b      	ldr	r3, [r3, #36]	@ 0x24
 8006c0c:	1c5a      	adds	r2, r3, #1
 8006c0e:	687b      	ldr	r3, [r7, #4]
 8006c10:	625a      	str	r2, [r3, #36]	@ 0x24
 8006c12:	687b      	ldr	r3, [r7, #4]
 8006c14:	681b      	ldr	r3, [r3, #0]
 8006c16:	681a      	ldr	r2, [r3, #0]
 8006c18:	687b      	ldr	r3, [r7, #4]
 8006c1a:	681b      	ldr	r3, [r3, #0]
 8006c1c:	f022 0201 	bic.w	r2, r2, #1
 8006c20:	601a      	str	r2, [r3, #0]
 8006c22:	6878      	ldr	r0, [r7, #4]
 8006c24:	f7fe fecb 	bl	80059be <HAL_I2C_AbortCpltCallback>
 8006c28:	e015      	b.n	8006c56 <I2C_ITError+0x1da>
 8006c2a:	687b      	ldr	r3, [r7, #4]
 8006c2c:	681b      	ldr	r3, [r3, #0]
 8006c2e:	695b      	ldr	r3, [r3, #20]
 8006c30:	f003 0340 	and.w	r3, r3, #64	@ 0x40
 8006c34:	2b40      	cmp	r3, #64	@ 0x40
 8006c36:	d10b      	bne.n	8006c50 <I2C_ITError+0x1d4>
 8006c38:	687b      	ldr	r3, [r7, #4]
 8006c3a:	681b      	ldr	r3, [r3, #0]
 8006c3c:	691a      	ldr	r2, [r3, #16]
 8006c3e:	687b      	ldr	r3, [r7, #4]
 8006c40:	6a5b      	ldr	r3, [r3, #36]	@ 0x24
 8006c42:	b2d2      	uxtb	r2, r2
 8006c44:	701a      	strb	r2, [r3, #0]
 8006c46:	687b      	ldr	r3, [r7, #4]
 8006c48:	6a5b      	ldr	r3, [r3, #36]	@ 0x24
 8006c4a:	1c5a      	adds	r2, r3, #1
 8006c4c:	687b      	ldr	r3, [r7, #4]
 8006c4e:	625a      	str	r2, [r3, #36]	@ 0x24
 8006c50:	6878      	ldr	r0, [r7, #4]
 8006c52:	f7fa fc21 	bl	8001498 <HAL_I2C_ErrorCallback>
 8006c56:	687b      	ldr	r3, [r7, #4]
 8006c58:	6c1b      	ldr	r3, [r3, #64]	@ 0x40
 8006c5a:	60bb      	str	r3, [r7, #8]
 8006c5c:	68bb      	ldr	r3, [r7, #8]
 8006c5e:	f003 0301 	and.w	r3, r3, #1
 8006c62:	2b00      	cmp	r3, #0
 8006c64:	d10e      	bne.n	8006c84 <I2C_ITError+0x208>
 8006c66:	68bb      	ldr	r3, [r7, #8]
 8006c68:	f003 0302 	and.w	r3, r3, #2
 8006c6c:	2b00      	cmp	r3, #0
 8006c6e:	d109      	bne.n	8006c84 <I2C_ITError+0x208>
 8006c70:	68bb      	ldr	r3, [r7, #8]
 8006c72:	f003 0304 	and.w	r3, r3, #4
 8006c76:	2b00      	cmp	r3, #0
 8006c78:	d104      	bne.n	8006c84 <I2C_ITError+0x208>
 8006c7a:	68bb      	ldr	r3, [r7, #8]
 8006c7c:	f003 0308 	and.w	r3, r3, #8
 8006c80:	2b00      	cmp	r3, #0
 8006c82:	d007      	beq.n	8006c94 <I2C_ITError+0x218>
 8006c84:	687b      	ldr	r3, [r7, #4]
 8006c86:	681b      	ldr	r3, [r3, #0]
 8006c88:	685a      	ldr	r2, [r3, #4]
 8006c8a:	687b      	ldr	r3, [r7, #4]
 8006c8c:	681b      	ldr	r3, [r3, #0]
 8006c8e:	f422 62e0 	bic.w	r2, r2, #1792	@ 0x700
 8006c92:	605a      	str	r2, [r3, #4]
 8006c94:	687b      	ldr	r3, [r7, #4]
 8006c96:	f893 303d 	ldrb.w	r3, [r3, #61]	@ 0x3d
 8006c9a:	73fb      	strb	r3, [r7, #15]
 8006c9c:	687b      	ldr	r3, [r7, #4]
 8006c9e:	6c1b      	ldr	r3, [r3, #64]	@ 0x40
 8006ca0:	f003 0304 	and.w	r3, r3, #4
 8006ca4:	2b04      	cmp	r3, #4
 8006ca6:	d113      	bne.n	8006cd0 <I2C_ITError+0x254>
 8006ca8:	7bfb      	ldrb	r3, [r7, #15]
 8006caa:	2b28      	cmp	r3, #40	@ 0x28
 8006cac:	d110      	bne.n	8006cd0 <I2C_ITError+0x254>
 8006cae:	687b      	ldr	r3, [r7, #4]
 8006cb0:	4a0a      	ldr	r2, [pc, #40]	@ (8006cdc <I2C_ITError+0x260>)
 8006cb2:	62da      	str	r2, [r3, #44]	@ 0x2c
 8006cb4:	687b      	ldr	r3, [r7, #4]
 8006cb6:	2200      	movs	r2, #0
 8006cb8:	631a      	str	r2, [r3, #48]	@ 0x30
 8006cba:	687b      	ldr	r3, [r7, #4]
 8006cbc:	2220      	movs	r2, #32
 8006cbe:	f883 203d 	strb.w	r2, [r3, #61]	@ 0x3d
 8006cc2:	687b      	ldr	r3, [r7, #4]
 8006cc4:	2200      	movs	r2, #0
 8006cc6:	f883 203e 	strb.w	r2, [r3, #62]	@ 0x3e
 8006cca:	6878      	ldr	r0, [r7, #4]
 8006ccc:	f7fe fe5c 	bl	8005988 <HAL_I2C_ListenCpltCallback>
 8006cd0:	bf00      	nop
 8006cd2:	3710      	adds	r7, #16
 8006cd4:	46bd      	mov	sp, r7
 8006cd6:	bd80      	pop	{r7, pc}
 8006cd8:	08006ce1 	.word	0x08006ce1
 8006cdc:	ffff0000 	.word	0xffff0000

08006ce0 <I2C_DMAAbort>:
 8006ce0:	b580      	push	{r7, lr}
 8006ce2:	b086      	sub	sp, #24
 8006ce4:	af00      	add	r7, sp, #0
 8006ce6:	6078      	str	r0, [r7, #4]
 8006ce8:	2300      	movs	r3, #0
 8006cea:	60fb      	str	r3, [r7, #12]
 8006cec:	687b      	ldr	r3, [r7, #4]
 8006cee:	6a5b      	ldr	r3, [r3, #36]	@ 0x24
 8006cf0:	617b      	str	r3, [r7, #20]
 8006cf2:	697b      	ldr	r3, [r7, #20]
 8006cf4:	f893 303d 	ldrb.w	r3, [r3, #61]	@ 0x3d
 8006cf8:	74fb      	strb	r3, [r7, #19]
 8006cfa:	4b4b      	ldr	r3, [pc, #300]	@ (8006e28 <I2C_DMAAbort+0x148>)
 8006cfc:	681b      	ldr	r3, [r3, #0]
 8006cfe:	08db      	lsrs	r3, r3, #3
 8006d00:	4a4a      	ldr	r2, [pc, #296]	@ (8006e2c <I2C_DMAAbort+0x14c>)
 8006d02:	fba2 2303 	umull	r2, r3, r2, r3
 8006d06:	0a1a      	lsrs	r2, r3, #8
 8006d08:	4613      	mov	r3, r2
 8006d0a:	009b      	lsls	r3, r3, #2
 8006d0c:	4413      	add	r3, r2
 8006d0e:	00da      	lsls	r2, r3, #3
 8006d10:	1ad3      	subs	r3, r2, r3
 8006d12:	60fb      	str	r3, [r7, #12]
 8006d14:	68fb      	ldr	r3, [r7, #12]
 8006d16:	2b00      	cmp	r3, #0
 8006d18:	d106      	bne.n	8006d28 <I2C_DMAAbort+0x48>
 8006d1a:	697b      	ldr	r3, [r7, #20]
 8006d1c:	6c1b      	ldr	r3, [r3, #64]	@ 0x40
 8006d1e:	f043 0220 	orr.w	r2, r3, #32
 8006d22:	697b      	ldr	r3, [r7, #20]
 8006d24:	641a      	str	r2, [r3, #64]	@ 0x40
 8006d26:	e00a      	b.n	8006d3e <I2C_DMAAbort+0x5e>
 8006d28:	68fb      	ldr	r3, [r7, #12]
 8006d2a:	3b01      	subs	r3, #1
 8006d2c:	60fb      	str	r3, [r7, #12]
 8006d2e:	697b      	ldr	r3, [r7, #20]
 8006d30:	681b      	ldr	r3, [r3, #0]
 8006d32:	681b      	ldr	r3, [r3, #0]
 8006d34:	f403 7300 	and.w	r3, r3, #512	@ 0x200
 8006d38:	f5b3 7f00 	cmp.w	r3, #512	@ 0x200
 8006d3c:	d0ea      	beq.n	8006d14 <I2C_DMAAbort+0x34>
 8006d3e:	697b      	ldr	r3, [r7, #20]
 8006d40:	6b5b      	ldr	r3, [r3, #52]	@ 0x34
 8006d42:	2b00      	cmp	r3, #0
 8006d44:	d003      	beq.n	8006d4e <I2C_DMAAbort+0x6e>
 8006d46:	697b      	ldr	r3, [r7, #20]
 8006d48:	6b5b      	ldr	r3, [r3, #52]	@ 0x34
 8006d4a:	2200      	movs	r2, #0
 8006d4c:	629a      	str	r2, [r3, #40]	@ 0x28
 8006d4e:	697b      	ldr	r3, [r7, #20]
 8006d50:	6b9b      	ldr	r3, [r3, #56]	@ 0x38
 8006d52:	2b00      	cmp	r3, #0
 8006d54:	d003      	beq.n	8006d5e <I2C_DMAAbort+0x7e>
 8006d56:	697b      	ldr	r3, [r7, #20]
 8006d58:	6b9b      	ldr	r3, [r3, #56]	@ 0x38
 8006d5a:	2200      	movs	r2, #0
 8006d5c:	629a      	str	r2, [r3, #40]	@ 0x28
 8006d5e:	697b      	ldr	r3, [r7, #20]
 8006d60:	681b      	ldr	r3, [r3, #0]
 8006d62:	681a      	ldr	r2, [r3, #0]
 8006d64:	697b      	ldr	r3, [r7, #20]
 8006d66:	681b      	ldr	r3, [r3, #0]
 8006d68:	f422 6280 	bic.w	r2, r2, #1024	@ 0x400
 8006d6c:	601a      	str	r2, [r3, #0]
 8006d6e:	697b      	ldr	r3, [r7, #20]
 8006d70:	2200      	movs	r2, #0
 8006d72:	855a      	strh	r2, [r3, #42]	@ 0x2a
 8006d74:	697b      	ldr	r3, [r7, #20]
 8006d76:	6b5b      	ldr	r3, [r3, #52]	@ 0x34
 8006d78:	2b00      	cmp	r3, #0
 8006d7a:	d003      	beq.n	8006d84 <I2C_DMAAbort+0xa4>
 8006d7c:	697b      	ldr	r3, [r7, #20]
 8006d7e:	6b5b      	ldr	r3, [r3, #52]	@ 0x34
 8006d80:	2200      	movs	r2, #0
 8006d82:	635a      	str	r2, [r3, #52]	@ 0x34
 8006d84:	697b      	ldr	r3, [r7, #20]
 8006d86:	6b9b      	ldr	r3, [r3, #56]	@ 0x38
 8006d88:	2b00      	cmp	r3, #0
 8006d8a:	d003      	beq.n	8006d94 <I2C_DMAAbort+0xb4>
 8006d8c:	697b      	ldr	r3, [r7, #20]
 8006d8e:	6b9b      	ldr	r3, [r3, #56]	@ 0x38
 8006d90:	2200      	movs	r2, #0
 8006d92:	635a      	str	r2, [r3, #52]	@ 0x34
 8006d94:	697b      	ldr	r3, [r7, #20]
 8006d96:	681b      	ldr	r3, [r3, #0]
 8006d98:	681a      	ldr	r2, [r3, #0]
 8006d9a:	697b      	ldr	r3, [r7, #20]
 8006d9c:	681b      	ldr	r3, [r3, #0]
 8006d9e:	f022 0201 	bic.w	r2, r2, #1
 8006da2:	601a      	str	r2, [r3, #0]
 8006da4:	697b      	ldr	r3, [r7, #20]
 8006da6:	f893 303d 	ldrb.w	r3, [r3, #61]	@ 0x3d
 8006daa:	b2db      	uxtb	r3, r3
 8006dac:	2b60      	cmp	r3, #96	@ 0x60
 8006dae:	d10e      	bne.n	8006dce <I2C_DMAAbort+0xee>
 8006db0:	697b      	ldr	r3, [r7, #20]
 8006db2:	2220      	movs	r2, #32
 8006db4:	f883 203d 	strb.w	r2, [r3, #61]	@ 0x3d
 8006db8:	697b      	ldr	r3, [r7, #20]
 8006dba:	2200      	movs	r2, #0
 8006dbc:	f883 203e 	strb.w	r2, [r3, #62]	@ 0x3e
 8006dc0:	697b      	ldr	r3, [r7, #20]
 8006dc2:	2200      	movs	r2, #0
 8006dc4:	641a      	str	r2, [r3, #64]	@ 0x40
 8006dc6:	6978      	ldr	r0, [r7, #20]
 8006dc8:	f7fe fdf9 	bl	80059be <HAL_I2C_AbortCpltCallback>
 8006dcc:	e027      	b.n	8006e1e <I2C_DMAAbort+0x13e>
 8006dce:	7cfb      	ldrb	r3, [r7, #19]
 8006dd0:	f003 0328 	and.w	r3, r3, #40	@ 0x28
 8006dd4:	2b28      	cmp	r3, #40	@ 0x28
 8006dd6:	d117      	bne.n	8006e08 <I2C_DMAAbort+0x128>
 8006dd8:	697b      	ldr	r3, [r7, #20]
 8006dda:	681b      	ldr	r3, [r3, #0]
 8006ddc:	681a      	ldr	r2, [r3, #0]
 8006dde:	697b      	ldr	r3, [r7, #20]
 8006de0:	681b      	ldr	r3, [r3, #0]
 8006de2:	f042 0201 	orr.w	r2, r2, #1
 8006de6:	601a      	str	r2, [r3, #0]
 8006de8:	697b      	ldr	r3, [r7, #20]
 8006dea:	681b      	ldr	r3, [r3, #0]
 8006dec:	681a      	ldr	r2, [r3, #0]
 8006dee:	697b      	ldr	r3, [r7, #20]
 8006df0:	681b      	ldr	r3, [r3, #0]
 8006df2:	f442 6280 	orr.w	r2, r2, #1024	@ 0x400
 8006df6:	601a      	str	r2, [r3, #0]
 8006df8:	697b      	ldr	r3, [r7, #20]
 8006dfa:	2200      	movs	r2, #0
 8006dfc:	631a      	str	r2, [r3, #48]	@ 0x30
 8006dfe:	697b      	ldr	r3, [r7, #20]
 8006e00:	2228      	movs	r2, #40	@ 0x28
 8006e02:	f883 203d 	strb.w	r2, [r3, #61]	@ 0x3d
 8006e06:	e007      	b.n	8006e18 <I2C_DMAAbort+0x138>
 8006e08:	697b      	ldr	r3, [r7, #20]
 8006e0a:	2220      	movs	r2, #32
 8006e0c:	f883 203d 	strb.w	r2, [r3, #61]	@ 0x3d
 8006e10:	697b      	ldr	r3, [r7, #20]
 8006e12:	2200      	movs	r2, #0
 8006e14:	f883 203e 	strb.w	r2, [r3, #62]	@ 0x3e
 8006e18:	6978      	ldr	r0, [r7, #20]
 8006e1a:	f7fa fb3d 	bl	8001498 <HAL_I2C_ErrorCallback>
 8006e1e:	bf00      	nop
 8006e20:	3718      	adds	r7, #24
 8006e22:	46bd      	mov	sp, r7
 8006e24:	bd80      	pop	{r7, pc}
 8006e26:	bf00      	nop
 8006e28:	20000020 	.word	0x20000020
 8006e2c:	14f8b589 	.word	0x14f8b589

08006e30 <I2C_WaitOnSTOPRequestThroughIT>:
 8006e30:	b480      	push	{r7}
 8006e32:	b085      	sub	sp, #20
 8006e34:	af00      	add	r7, sp, #0
 8006e36:	6078      	str	r0, [r7, #4]
 8006e38:	2300      	movs	r3, #0
 8006e3a:	60fb      	str	r3, [r7, #12]
 8006e3c:	4b13      	ldr	r3, [pc, #76]	@ (8006e8c <I2C_WaitOnSTOPRequestThroughIT+0x5c>)
 8006e3e:	681b      	ldr	r3, [r3, #0]
 8006e40:	08db      	lsrs	r3, r3, #3
 8006e42:	4a13      	ldr	r2, [pc, #76]	@ (8006e90 <I2C_WaitOnSTOPRequestThroughIT+0x60>)
 8006e44:	fba2 2303 	umull	r2, r3, r2, r3
 8006e48:	0a1a      	lsrs	r2, r3, #8
 8006e4a:	4613      	mov	r3, r2
 8006e4c:	009b      	lsls	r3, r3, #2
 8006e4e:	4413      	add	r3, r2
 8006e50:	60fb      	str	r3, [r7, #12]
 8006e52:	68fb      	ldr	r3, [r7, #12]
 8006e54:	3b01      	subs	r3, #1
 8006e56:	60fb      	str	r3, [r7, #12]
 8006e58:	68fb      	ldr	r3, [r7, #12]
 8006e5a:	2b00      	cmp	r3, #0
 8006e5c:	d107      	bne.n	8006e6e <I2C_WaitOnSTOPRequestThroughIT+0x3e>
 8006e5e:	687b      	ldr	r3, [r7, #4]
 8006e60:	6c1b      	ldr	r3, [r3, #64]	@ 0x40
 8006e62:	f043 0220 	orr.w	r2, r3, #32
 8006e66:	687b      	ldr	r3, [r7, #4]
 8006e68:	641a      	str	r2, [r3, #64]	@ 0x40
 8006e6a:	2301      	movs	r3, #1
 8006e6c:	e008      	b.n	8006e80 <I2C_WaitOnSTOPRequestThroughIT+0x50>
 8006e6e:	687b      	ldr	r3, [r7, #4]
 8006e70:	681b      	ldr	r3, [r3, #0]
 8006e72:	681b      	ldr	r3, [r3, #0]
 8006e74:	f403 7300 	and.w	r3, r3, #512	@ 0x200
 8006e78:	f5b3 7f00 	cmp.w	r3, #512	@ 0x200
 8006e7c:	d0e9      	beq.n	8006e52 <I2C_WaitOnSTOPRequestThroughIT+0x22>
 8006e7e:	2300      	movs	r3, #0
 8006e80:	4618      	mov	r0, r3
 8006e82:	3714      	adds	r7, #20
 8006e84:	46bd      	mov	sp, r7
 8006e86:	bc80      	pop	{r7}
 8006e88:	4770      	bx	lr
 8006e8a:	bf00      	nop
 8006e8c:	20000020 	.word	0x20000020
 8006e90:	14f8b589 	.word	0x14f8b589

08006e94 <I2C_ConvertOtherXferOptions>:
 8006e94:	b480      	push	{r7}
 8006e96:	b083      	sub	sp, #12
 8006e98:	af00      	add	r7, sp, #0
 8006e9a:	6078      	str	r0, [r7, #4]
 8006e9c:	687b      	ldr	r3, [r7, #4]
 8006e9e:	6adb      	ldr	r3, [r3, #44]	@ 0x2c
 8006ea0:	f5b3 0f2a 	cmp.w	r3, #11141120	@ 0xaa0000
 8006ea4:	d103      	bne.n	8006eae <I2C_ConvertOtherXferOptions+0x1a>
 8006ea6:	687b      	ldr	r3, [r7, #4]
 8006ea8:	2201      	movs	r2, #1
 8006eaa:	62da      	str	r2, [r3, #44]	@ 0x2c
 8006eac:	e007      	b.n	8006ebe <I2C_ConvertOtherXferOptions+0x2a>
 8006eae:	687b      	ldr	r3, [r7, #4]
 8006eb0:	6adb      	ldr	r3, [r3, #44]	@ 0x2c
 8006eb2:	f1b3 4f2a 	cmp.w	r3, #2852126720	@ 0xaa000000
 8006eb6:	d102      	bne.n	8006ebe <I2C_ConvertOtherXferOptions+0x2a>
 8006eb8:	687b      	ldr	r3, [r7, #4]
 8006eba:	2208      	movs	r2, #8
 8006ebc:	62da      	str	r2, [r3, #44]	@ 0x2c
 8006ebe:	bf00      	nop
 8006ec0:	370c      	adds	r7, #12
 8006ec2:	46bd      	mov	sp, r7
 8006ec4:	bc80      	pop	{r7}
 8006ec6:	4770      	bx	lr

08006ec8 <HAL_RCC_GetHCLKFreq>:
 8006ec8:	b480      	push	{r7}
 8006eca:	af00      	add	r7, sp, #0
 8006ecc:	4b02      	ldr	r3, [pc, #8]	@ (8006ed8 <HAL_RCC_GetHCLKFreq+0x10>)
 8006ece:	681b      	ldr	r3, [r3, #0]
 8006ed0:	4618      	mov	r0, r3
 8006ed2:	46bd      	mov	sp, r7
 8006ed4:	bc80      	pop	{r7}
 8006ed6:	4770      	bx	lr
 8006ed8:	20000020 	.word	0x20000020

08006edc <HAL_RCC_GetPCLK1Freq>:
 8006edc:	b580      	push	{r7, lr}
 8006ede:	af00      	add	r7, sp, #0
 8006ee0:	f7ff fff2 	bl	8006ec8 <HAL_RCC_GetHCLKFreq>
 8006ee4:	4602      	mov	r2, r0
 8006ee6:	4b05      	ldr	r3, [pc, #20]	@ (8006efc <HAL_RCC_GetPCLK1Freq+0x20>)
 8006ee8:	685b      	ldr	r3, [r3, #4]
 8006eea:	0a1b      	lsrs	r3, r3, #8
 8006eec:	f003 0307 	and.w	r3, r3, #7
 8006ef0:	4903      	ldr	r1, [pc, #12]	@ (8006f00 <HAL_RCC_GetPCLK1Freq+0x24>)
 8006ef2:	5ccb      	ldrb	r3, [r1, r3]
 8006ef4:	fa22 f303 	lsr.w	r3, r2, r3
 8006ef8:	4618      	mov	r0, r3
 8006efa:	bd80      	pop	{r7, pc}
 8006efc:	40021000 	.word	0x40021000
 8006f00:	080084d4 	.word	0x080084d4

08006f04 <_vsniprintf_r>:
 8006f04:	b530      	push	{r4, r5, lr}
 8006f06:	4614      	mov	r4, r2
 8006f08:	2c00      	cmp	r4, #0
 8006f0a:	4605      	mov	r5, r0
 8006f0c:	461a      	mov	r2, r3
 8006f0e:	b09b      	sub	sp, #108	@ 0x6c
 8006f10:	da05      	bge.n	8006f1e <_vsniprintf_r+0x1a>
 8006f12:	238b      	movs	r3, #139	@ 0x8b
 8006f14:	6003      	str	r3, [r0, #0]
 8006f16:	f04f 30ff 	mov.w	r0, #4294967295
 8006f1a:	b01b      	add	sp, #108	@ 0x6c
 8006f1c:	bd30      	pop	{r4, r5, pc}
 8006f1e:	f44f 7302 	mov.w	r3, #520	@ 0x208
 8006f22:	f8ad 300c 	strh.w	r3, [sp, #12]
 8006f26:	f04f 0300 	mov.w	r3, #0
 8006f2a:	9319      	str	r3, [sp, #100]	@ 0x64
 8006f2c:	bf0c      	ite	eq
 8006f2e:	4623      	moveq	r3, r4
 8006f30:	f104 33ff 	addne.w	r3, r4, #4294967295
 8006f34:	9302      	str	r3, [sp, #8]
 8006f36:	9305      	str	r3, [sp, #20]
 8006f38:	f64f 73ff 	movw	r3, #65535	@ 0xffff
 8006f3c:	9100      	str	r1, [sp, #0]
 8006f3e:	9104      	str	r1, [sp, #16]
 8006f40:	f8ad 300e 	strh.w	r3, [sp, #14]
 8006f44:	4669      	mov	r1, sp
 8006f46:	9b1e      	ldr	r3, [sp, #120]	@ 0x78
 8006f48:	f000 f996 	bl	8007278 <_svfiprintf_r>
 8006f4c:	1c43      	adds	r3, r0, #1
 8006f4e:	bfbc      	itt	lt
 8006f50:	238b      	movlt	r3, #139	@ 0x8b
 8006f52:	602b      	strlt	r3, [r5, #0]
 8006f54:	2c00      	cmp	r4, #0
 8006f56:	d0e0      	beq.n	8006f1a <_vsniprintf_r+0x16>
 8006f58:	2200      	movs	r2, #0
 8006f5a:	9b00      	ldr	r3, [sp, #0]
 8006f5c:	701a      	strb	r2, [r3, #0]
 8006f5e:	e7dc      	b.n	8006f1a <_vsniprintf_r+0x16>

08006f60 <vsniprintf>:
 8006f60:	b507      	push	{r0, r1, r2, lr}
 8006f62:	9300      	str	r3, [sp, #0]
 8006f64:	4613      	mov	r3, r2
 8006f66:	460a      	mov	r2, r1
 8006f68:	4601      	mov	r1, r0
 8006f6a:	4803      	ldr	r0, [pc, #12]	@ (8006f78 <vsniprintf+0x18>)
 8006f6c:	6800      	ldr	r0, [r0, #0]
 8006f6e:	f7ff ffc9 	bl	8006f04 <_vsniprintf_r>
 8006f72:	b003      	add	sp, #12
 8006f74:	f85d fb04 	ldr.w	pc, [sp], #4
 8006f78:	2000002c 	.word	0x2000002c

08006f7c <__errno>:
 8006f7c:	4b01      	ldr	r3, [pc, #4]	@ (8006f84 <__errno+0x8>)
 8006f7e:	6818      	ldr	r0, [r3, #0]
 8006f80:	4770      	bx	lr
 8006f82:	bf00      	nop
 8006f84:	2000002c 	.word	0x2000002c

08006f88 <__libc_init_array>:
 8006f88:	b570      	push	{r4, r5, r6, lr}
 8006f8a:	2600      	movs	r6, #0
 8006f8c:	4d0c      	ldr	r5, [pc, #48]	@ (8006fc0 <__libc_init_array+0x38>)
 8006f8e:	4c0d      	ldr	r4, [pc, #52]	@ (8006fc4 <__libc_init_array+0x3c>)
 8006f90:	1b64      	subs	r4, r4, r5
 8006f92:	10a4      	asrs	r4, r4, #2
 8006f94:	42a6      	cmp	r6, r4
 8006f96:	d109      	bne.n	8006fac <__libc_init_array+0x24>
 8006f98:	f000 fc76 	bl	8007888 <_init>
 8006f9c:	2600      	movs	r6, #0
 8006f9e:	4d0a      	ldr	r5, [pc, #40]	@ (8006fc8 <__libc_init_array+0x40>)
 8006fa0:	4c0a      	ldr	r4, [pc, #40]	@ (8006fcc <__libc_init_array+0x44>)
 8006fa2:	1b64      	subs	r4, r4, r5
 8006fa4:	10a4      	asrs	r4, r4, #2
 8006fa6:	42a6      	cmp	r6, r4
 8006fa8:	d105      	bne.n	8006fb6 <__libc_init_array+0x2e>
 8006faa:	bd70      	pop	{r4, r5, r6, pc}
 8006fac:	f855 3b04 	ldr.w	r3, [r5], #4
 8006fb0:	4798      	blx	r3
 8006fb2:	3601      	adds	r6, #1
 8006fb4:	e7ee      	b.n	8006f94 <__libc_init_array+0xc>
 8006fb6:	f855 3b04 	ldr.w	r3, [r5], #4
 8006fba:	4798      	blx	r3
 8006fbc:	3601      	adds	r6, #1
 8006fbe:	e7f2      	b.n	8006fa6 <__libc_init_array+0x1e>
 8006fc0:	08008518 	.word	0x08008518
 8006fc4:	08008518 	.word	0x08008518
 8006fc8:	08008518 	.word	0x08008518
 8006fcc:	0800851c 	.word	0x0800851c

08006fd0 <__retarget_lock_acquire_recursive>:
 8006fd0:	4770      	bx	lr

08006fd2 <__retarget_lock_release_recursive>:
 8006fd2:	4770      	bx	lr

08006fd4 <_free_r>:
 8006fd4:	b538      	push	{r3, r4, r5, lr}
 8006fd6:	4605      	mov	r5, r0
 8006fd8:	2900      	cmp	r1, #0
 8006fda:	d040      	beq.n	800705e <_free_r+0x8a>
 8006fdc:	f851 3c04 	ldr.w	r3, [r1, #-4]
 8006fe0:	1f0c      	subs	r4, r1, #4
 8006fe2:	2b00      	cmp	r3, #0
 8006fe4:	bfb8      	it	lt
 8006fe6:	18e4      	addlt	r4, r4, r3
 8006fe8:	f000 f8de 	bl	80071a8 <__malloc_lock>
 8006fec:	4a1c      	ldr	r2, [pc, #112]	@ (8007060 <_free_r+0x8c>)
 8006fee:	6813      	ldr	r3, [r2, #0]
 8006ff0:	b933      	cbnz	r3, 8007000 <_free_r+0x2c>
 8006ff2:	6063      	str	r3, [r4, #4]
 8006ff4:	6014      	str	r4, [r2, #0]
 8006ff6:	4628      	mov	r0, r5
 8006ff8:	e8bd 4038 	ldmia.w	sp!, {r3, r4, r5, lr}
 8006ffc:	f000 b8da 	b.w	80071b4 <__malloc_unlock>
 8007000:	42a3      	cmp	r3, r4
 8007002:	d908      	bls.n	8007016 <_free_r+0x42>
 8007004:	6820      	ldr	r0, [r4, #0]
 8007006:	1821      	adds	r1, r4, r0
 8007008:	428b      	cmp	r3, r1
 800700a:	bf01      	itttt	eq
 800700c:	6819      	ldreq	r1, [r3, #0]
 800700e:	685b      	ldreq	r3, [r3, #4]
 8007010:	1809      	addeq	r1, r1, r0
 8007012:	6021      	streq	r1, [r4, #0]
 8007014:	e7ed      	b.n	8006ff2 <_free_r+0x1e>
 8007016:	461a      	mov	r2, r3
 8007018:	685b      	ldr	r3, [r3, #4]
 800701a:	b10b      	cbz	r3, 8007020 <_free_r+0x4c>
 800701c:	42a3      	cmp	r3, r4
 800701e:	d9fa      	bls.n	8007016 <_free_r+0x42>
 8007020:	6811      	ldr	r1, [r2, #0]
 8007022:	1850      	adds	r0, r2, r1
 8007024:	42a0      	cmp	r0, r4
 8007026:	d10b      	bne.n	8007040 <_free_r+0x6c>
 8007028:	6820      	ldr	r0, [r4, #0]
 800702a:	4401      	add	r1, r0
 800702c:	1850      	adds	r0, r2, r1
 800702e:	4283      	cmp	r3, r0
 8007030:	6011      	str	r1, [r2, #0]
 8007032:	d1e0      	bne.n	8006ff6 <_free_r+0x22>
 8007034:	6818      	ldr	r0, [r3, #0]
 8007036:	685b      	ldr	r3, [r3, #4]
 8007038:	4408      	add	r0, r1
 800703a:	6010      	str	r0, [r2, #0]
 800703c:	6053      	str	r3, [r2, #4]
 800703e:	e7da      	b.n	8006ff6 <_free_r+0x22>
 8007040:	d902      	bls.n	8007048 <_free_r+0x74>
 8007042:	230c      	movs	r3, #12
 8007044:	602b      	str	r3, [r5, #0]
 8007046:	e7d6      	b.n	8006ff6 <_free_r+0x22>
 8007048:	6820      	ldr	r0, [r4, #0]
 800704a:	1821      	adds	r1, r4, r0
 800704c:	428b      	cmp	r3, r1
 800704e:	bf01      	itttt	eq
 8007050:	6819      	ldreq	r1, [r3, #0]
 8007052:	685b      	ldreq	r3, [r3, #4]
 8007054:	1809      	addeq	r1, r1, r0
 8007056:	6021      	streq	r1, [r4, #0]
 8007058:	6063      	str	r3, [r4, #4]
 800705a:	6054      	str	r4, [r2, #4]
 800705c:	e7cb      	b.n	8006ff6 <_free_r+0x22>
 800705e:	bd38      	pop	{r3, r4, r5, pc}
 8007060:	200005c8 	.word	0x200005c8

08007064 <sbrk_aligned>:
 8007064:	b570      	push	{r4, r5, r6, lr}
 8007066:	4e0f      	ldr	r6, [pc, #60]	@ (80070a4 <sbrk_aligned+0x40>)
 8007068:	460c      	mov	r4, r1
 800706a:	6831      	ldr	r1, [r6, #0]
 800706c:	4605      	mov	r5, r0
 800706e:	b911      	cbnz	r1, 8007076 <sbrk_aligned+0x12>
 8007070:	f000 fba8 	bl	80077c4 <_sbrk_r>
 8007074:	6030      	str	r0, [r6, #0]
 8007076:	4621      	mov	r1, r4
 8007078:	4628      	mov	r0, r5
 800707a:	f000 fba3 	bl	80077c4 <_sbrk_r>
 800707e:	1c43      	adds	r3, r0, #1
 8007080:	d103      	bne.n	800708a <sbrk_aligned+0x26>
 8007082:	f04f 34ff 	mov.w	r4, #4294967295
 8007086:	4620      	mov	r0, r4
 8007088:	bd70      	pop	{r4, r5, r6, pc}
 800708a:	1cc4      	adds	r4, r0, #3
 800708c:	f024 0403 	bic.w	r4, r4, #3
 8007090:	42a0      	cmp	r0, r4
 8007092:	d0f8      	beq.n	8007086 <sbrk_aligned+0x22>
 8007094:	1a21      	subs	r1, r4, r0
 8007096:	4628      	mov	r0, r5
 8007098:	f000 fb94 	bl	80077c4 <_sbrk_r>
 800709c:	3001      	adds	r0, #1
 800709e:	d1f2      	bne.n	8007086 <sbrk_aligned+0x22>
 80070a0:	e7ef      	b.n	8007082 <sbrk_aligned+0x1e>
 80070a2:	bf00      	nop
 80070a4:	200005c4 	.word	0x200005c4

080070a8 <_malloc_r>:
 80070a8:	e92d 43f8 	stmdb	sp!, {r3, r4, r5, r6, r7, r8, r9, lr}
 80070ac:	1ccd      	adds	r5, r1, #3
 80070ae:	f025 0503 	bic.w	r5, r5, #3
 80070b2:	3508      	adds	r5, #8
 80070b4:	2d0c      	cmp	r5, #12
 80070b6:	bf38      	it	cc
 80070b8:	250c      	movcc	r5, #12
 80070ba:	2d00      	cmp	r5, #0
 80070bc:	4606      	mov	r6, r0
 80070be:	db01      	blt.n	80070c4 <_malloc_r+0x1c>
 80070c0:	42a9      	cmp	r1, r5
 80070c2:	d904      	bls.n	80070ce <_malloc_r+0x26>
 80070c4:	230c      	movs	r3, #12
 80070c6:	6033      	str	r3, [r6, #0]
 80070c8:	2000      	movs	r0, #0
 80070ca:	e8bd 83f8 	ldmia.w	sp!, {r3, r4, r5, r6, r7, r8, r9, pc}
 80070ce:	f8df 80d4 	ldr.w	r8, [pc, #212]	@ 80071a4 <_malloc_r+0xfc>
 80070d2:	f000 f869 	bl	80071a8 <__malloc_lock>
 80070d6:	f8d8 3000 	ldr.w	r3, [r8]
 80070da:	461c      	mov	r4, r3
 80070dc:	bb44      	cbnz	r4, 8007130 <_malloc_r+0x88>
 80070de:	4629      	mov	r1, r5
 80070e0:	4630      	mov	r0, r6
 80070e2:	f7ff ffbf 	bl	8007064 <sbrk_aligned>
 80070e6:	1c43      	adds	r3, r0, #1
 80070e8:	4604      	mov	r4, r0
 80070ea:	d158      	bne.n	800719e <_malloc_r+0xf6>
 80070ec:	f8d8 4000 	ldr.w	r4, [r8]
 80070f0:	4627      	mov	r7, r4
 80070f2:	2f00      	cmp	r7, #0
 80070f4:	d143      	bne.n	800717e <_malloc_r+0xd6>
 80070f6:	2c00      	cmp	r4, #0
 80070f8:	d04b      	beq.n	8007192 <_malloc_r+0xea>
 80070fa:	6823      	ldr	r3, [r4, #0]
 80070fc:	4639      	mov	r1, r7
 80070fe:	4630      	mov	r0, r6
 8007100:	eb04 0903 	add.w	r9, r4, r3
 8007104:	f000 fb5e 	bl	80077c4 <_sbrk_r>
 8007108:	4581      	cmp	r9, r0
 800710a:	d142      	bne.n	8007192 <_malloc_r+0xea>
 800710c:	6821      	ldr	r1, [r4, #0]
 800710e:	4630      	mov	r0, r6
 8007110:	1a6d      	subs	r5, r5, r1
 8007112:	4629      	mov	r1, r5
 8007114:	f7ff ffa6 	bl	8007064 <sbrk_aligned>
 8007118:	3001      	adds	r0, #1
 800711a:	d03a      	beq.n	8007192 <_malloc_r+0xea>
 800711c:	6823      	ldr	r3, [r4, #0]
 800711e:	442b      	add	r3, r5
 8007120:	6023      	str	r3, [r4, #0]
 8007122:	f8d8 3000 	ldr.w	r3, [r8]
 8007126:	685a      	ldr	r2, [r3, #4]
 8007128:	bb62      	cbnz	r2, 8007184 <_malloc_r+0xdc>
 800712a:	f8c8 7000 	str.w	r7, [r8]
 800712e:	e00f      	b.n	8007150 <_malloc_r+0xa8>
 8007130:	6822      	ldr	r2, [r4, #0]
 8007132:	1b52      	subs	r2, r2, r5
 8007134:	d420      	bmi.n	8007178 <_malloc_r+0xd0>
 8007136:	2a0b      	cmp	r2, #11
 8007138:	d917      	bls.n	800716a <_malloc_r+0xc2>
 800713a:	1961      	adds	r1, r4, r5
 800713c:	42a3      	cmp	r3, r4
 800713e:	6025      	str	r5, [r4, #0]
 8007140:	bf18      	it	ne
 8007142:	6059      	strne	r1, [r3, #4]
 8007144:	6863      	ldr	r3, [r4, #4]
 8007146:	bf08      	it	eq
 8007148:	f8c8 1000 	streq.w	r1, [r8]
 800714c:	5162      	str	r2, [r4, r5]
 800714e:	604b      	str	r3, [r1, #4]
 8007150:	4630      	mov	r0, r6
 8007152:	f000 f82f 	bl	80071b4 <__malloc_unlock>
 8007156:	f104 000b 	add.w	r0, r4, #11
 800715a:	1d23      	adds	r3, r4, #4
 800715c:	f020 0007 	bic.w	r0, r0, #7
 8007160:	1ac2      	subs	r2, r0, r3
 8007162:	bf1c      	itt	ne
 8007164:	1a1b      	subne	r3, r3, r0
 8007166:	50a3      	strne	r3, [r4, r2]
 8007168:	e7af      	b.n	80070ca <_malloc_r+0x22>
 800716a:	6862      	ldr	r2, [r4, #4]
 800716c:	42a3      	cmp	r3, r4
 800716e:	bf0c      	ite	eq
 8007170:	f8c8 2000 	streq.w	r2, [r8]
 8007174:	605a      	strne	r2, [r3, #4]
 8007176:	e7eb      	b.n	8007150 <_malloc_r+0xa8>
 8007178:	4623      	mov	r3, r4
 800717a:	6864      	ldr	r4, [r4, #4]
 800717c:	e7ae      	b.n	80070dc <_malloc_r+0x34>
 800717e:	463c      	mov	r4, r7
 8007180:	687f      	ldr	r7, [r7, #4]
 8007182:	e7b6      	b.n	80070f2 <_malloc_r+0x4a>
 8007184:	461a      	mov	r2, r3
 8007186:	685b      	ldr	r3, [r3, #4]
 8007188:	42a3      	cmp	r3, r4
 800718a:	d1fb      	bne.n	8007184 <_malloc_r+0xdc>
 800718c:	2300      	movs	r3, #0
 800718e:	6053      	str	r3, [r2, #4]
 8007190:	e7de      	b.n	8007150 <_malloc_r+0xa8>
 8007192:	230c      	movs	r3, #12
 8007194:	4630      	mov	r0, r6
 8007196:	6033      	str	r3, [r6, #0]
 8007198:	f000 f80c 	bl	80071b4 <__malloc_unlock>
 800719c:	e794      	b.n	80070c8 <_malloc_r+0x20>
 800719e:	6005      	str	r5, [r0, #0]
 80071a0:	e7d6      	b.n	8007150 <_malloc_r+0xa8>
 80071a2:	bf00      	nop
 80071a4:	200005c8 	.word	0x200005c8

080071a8 <__malloc_lock>:
 80071a8:	4801      	ldr	r0, [pc, #4]	@ (80071b0 <__malloc_lock+0x8>)
 80071aa:	f7ff bf11 	b.w	8006fd0 <__retarget_lock_acquire_recursive>
 80071ae:	bf00      	nop
 80071b0:	200005c0 	.word	0x200005c0

080071b4 <__malloc_unlock>:
 80071b4:	4801      	ldr	r0, [pc, #4]	@ (80071bc <__malloc_unlock+0x8>)
 80071b6:	f7ff bf0c 	b.w	8006fd2 <__retarget_lock_release_recursive>
 80071ba:	bf00      	nop
 80071bc:	200005c0 	.word	0x200005c0

080071c0 <__ssputs_r>:
 80071c0:	e92d 47f0 	stmdb	sp!, {r4, r5, r6, r7, r8, r9, sl, lr}
 80071c4:	461f      	mov	r7, r3
 80071c6:	688e      	ldr	r6, [r1, #8]
 80071c8:	4682      	mov	sl, r0
 80071ca:	42be      	cmp	r6, r7
 80071cc:	460c      	mov	r4, r1
 80071ce:	4690      	mov	r8, r2
 80071d0:	680b      	ldr	r3, [r1, #0]
 80071d2:	d82d      	bhi.n	8007230 <__ssputs_r+0x70>
 80071d4:	f9b1 200c 	ldrsh.w	r2, [r1, #12]
 80071d8:	f412 6f90 	tst.w	r2, #1152	@ 0x480
 80071dc:	d026      	beq.n	800722c <__ssputs_r+0x6c>
 80071de:	6965      	ldr	r5, [r4, #20]
 80071e0:	6909      	ldr	r1, [r1, #16]
 80071e2:	eb05 0545 	add.w	r5, r5, r5, lsl #1
 80071e6:	eba3 0901 	sub.w	r9, r3, r1
 80071ea:	eb05 75d5 	add.w	r5, r5, r5, lsr #31
 80071ee:	1c7b      	adds	r3, r7, #1
 80071f0:	444b      	add	r3, r9
 80071f2:	106d      	asrs	r5, r5, #1
 80071f4:	429d      	cmp	r5, r3
 80071f6:	bf38      	it	cc
 80071f8:	461d      	movcc	r5, r3
 80071fa:	0553      	lsls	r3, r2, #21
 80071fc:	d527      	bpl.n	800724e <__ssputs_r+0x8e>
 80071fe:	4629      	mov	r1, r5
 8007200:	f7ff ff52 	bl	80070a8 <_malloc_r>
 8007204:	4606      	mov	r6, r0
 8007206:	b360      	cbz	r0, 8007262 <__ssputs_r+0xa2>
 8007208:	464a      	mov	r2, r9
 800720a:	6921      	ldr	r1, [r4, #16]
 800720c:	f000 faf8 	bl	8007800 <memcpy>
 8007210:	89a3      	ldrh	r3, [r4, #12]
 8007212:	f423 6390 	bic.w	r3, r3, #1152	@ 0x480
 8007216:	f043 0380 	orr.w	r3, r3, #128	@ 0x80
 800721a:	81a3      	strh	r3, [r4, #12]
 800721c:	6126      	str	r6, [r4, #16]
 800721e:	444e      	add	r6, r9
 8007220:	6026      	str	r6, [r4, #0]
 8007222:	463e      	mov	r6, r7
 8007224:	6165      	str	r5, [r4, #20]
 8007226:	eba5 0509 	sub.w	r5, r5, r9
 800722a:	60a5      	str	r5, [r4, #8]
 800722c:	42be      	cmp	r6, r7
 800722e:	d900      	bls.n	8007232 <__ssputs_r+0x72>
 8007230:	463e      	mov	r6, r7
 8007232:	4632      	mov	r2, r6
 8007234:	4641      	mov	r1, r8
 8007236:	6820      	ldr	r0, [r4, #0]
 8007238:	f000 faaa 	bl	8007790 <memmove>
 800723c:	2000      	movs	r0, #0
 800723e:	68a3      	ldr	r3, [r4, #8]
 8007240:	1b9b      	subs	r3, r3, r6
 8007242:	60a3      	str	r3, [r4, #8]
 8007244:	6823      	ldr	r3, [r4, #0]
 8007246:	4433      	add	r3, r6
 8007248:	6023      	str	r3, [r4, #0]
 800724a:	e8bd 87f0 	ldmia.w	sp!, {r4, r5, r6, r7, r8, r9, sl, pc}
 800724e:	462a      	mov	r2, r5
 8007250:	f000 fae4 	bl	800781c <_realloc_r>
 8007254:	4606      	mov	r6, r0
 8007256:	2800      	cmp	r0, #0
 8007258:	d1e0      	bne.n	800721c <__ssputs_r+0x5c>
 800725a:	4650      	mov	r0, sl
 800725c:	6921      	ldr	r1, [r4, #16]
 800725e:	f7ff feb9 	bl	8006fd4 <_free_r>
 8007262:	230c      	movs	r3, #12
 8007264:	f8ca 3000 	str.w	r3, [sl]
 8007268:	89a3      	ldrh	r3, [r4, #12]
 800726a:	f04f 30ff 	mov.w	r0, #4294967295
 800726e:	f043 0340 	orr.w	r3, r3, #64	@ 0x40
 8007272:	81a3      	strh	r3, [r4, #12]
 8007274:	e7e9      	b.n	800724a <__ssputs_r+0x8a>
	...

08007278 <_svfiprintf_r>:
 8007278:	e92d 4ff0 	stmdb	sp!, {r4, r5, r6, r7, r8, r9, sl, fp, lr}
 800727c:	4698      	mov	r8, r3
 800727e:	898b      	ldrh	r3, [r1, #12]
 8007280:	4607      	mov	r7, r0
 8007282:	061b      	lsls	r3, r3, #24
 8007284:	460d      	mov	r5, r1
 8007286:	4614      	mov	r4, r2
 8007288:	b09d      	sub	sp, #116	@ 0x74
 800728a:	d510      	bpl.n	80072ae <_svfiprintf_r+0x36>
 800728c:	690b      	ldr	r3, [r1, #16]
 800728e:	b973      	cbnz	r3, 80072ae <_svfiprintf_r+0x36>
 8007290:	2140      	movs	r1, #64	@ 0x40
 8007292:	f7ff ff09 	bl	80070a8 <_malloc_r>
 8007296:	6028      	str	r0, [r5, #0]
 8007298:	6128      	str	r0, [r5, #16]
 800729a:	b930      	cbnz	r0, 80072aa <_svfiprintf_r+0x32>
 800729c:	230c      	movs	r3, #12
 800729e:	603b      	str	r3, [r7, #0]
 80072a0:	f04f 30ff 	mov.w	r0, #4294967295
 80072a4:	b01d      	add	sp, #116	@ 0x74
 80072a6:	e8bd 8ff0 	ldmia.w	sp!, {r4, r5, r6, r7, r8, r9, sl, fp, pc}
 80072aa:	2340      	movs	r3, #64	@ 0x40
 80072ac:	616b      	str	r3, [r5, #20]
 80072ae:	2300      	movs	r3, #0
 80072b0:	9309      	str	r3, [sp, #36]	@ 0x24
 80072b2:	2320      	movs	r3, #32
 80072b4:	f88d 3029 	strb.w	r3, [sp, #41]	@ 0x29
 80072b8:	2330      	movs	r3, #48	@ 0x30
 80072ba:	f04f 0901 	mov.w	r9, #1
 80072be:	f8cd 800c 	str.w	r8, [sp, #12]
 80072c2:	f8df 8198 	ldr.w	r8, [pc, #408]	@ 800745c <_svfiprintf_r+0x1e4>
 80072c6:	f88d 302a 	strb.w	r3, [sp, #42]	@ 0x2a
 80072ca:	4623      	mov	r3, r4
 80072cc:	469a      	mov	sl, r3
 80072ce:	f813 2b01 	ldrb.w	r2, [r3], #1
 80072d2:	b10a      	cbz	r2, 80072d8 <_svfiprintf_r+0x60>
 80072d4:	2a25      	cmp	r2, #37	@ 0x25
 80072d6:	d1f9      	bne.n	80072cc <_svfiprintf_r+0x54>
 80072d8:	ebba 0b04 	subs.w	fp, sl, r4
 80072dc:	d00b      	beq.n	80072f6 <_svfiprintf_r+0x7e>
 80072de:	465b      	mov	r3, fp
 80072e0:	4622      	mov	r2, r4
 80072e2:	4629      	mov	r1, r5
 80072e4:	4638      	mov	r0, r7
 80072e6:	f7ff ff6b 	bl	80071c0 <__ssputs_r>
 80072ea:	3001      	adds	r0, #1
 80072ec:	f000 80a7 	beq.w	800743e <_svfiprintf_r+0x1c6>
 80072f0:	9a09      	ldr	r2, [sp, #36]	@ 0x24
 80072f2:	445a      	add	r2, fp
 80072f4:	9209      	str	r2, [sp, #36]	@ 0x24
 80072f6:	f89a 3000 	ldrb.w	r3, [sl]
 80072fa:	2b00      	cmp	r3, #0
 80072fc:	f000 809f 	beq.w	800743e <_svfiprintf_r+0x1c6>
 8007300:	2300      	movs	r3, #0
 8007302:	f04f 32ff 	mov.w	r2, #4294967295
 8007306:	e9cd 2305 	strd	r2, r3, [sp, #20]
 800730a:	f10a 0a01 	add.w	sl, sl, #1
 800730e:	9304      	str	r3, [sp, #16]
 8007310:	9307      	str	r3, [sp, #28]
 8007312:	f88d 3053 	strb.w	r3, [sp, #83]	@ 0x53
 8007316:	931a      	str	r3, [sp, #104]	@ 0x68
 8007318:	4654      	mov	r4, sl
 800731a:	2205      	movs	r2, #5
 800731c:	f814 1b01 	ldrb.w	r1, [r4], #1
 8007320:	484e      	ldr	r0, [pc, #312]	@ (800745c <_svfiprintf_r+0x1e4>)
 8007322:	f000 fa5f 	bl	80077e4 <memchr>
 8007326:	9a04      	ldr	r2, [sp, #16]
 8007328:	b9d8      	cbnz	r0, 8007362 <_svfiprintf_r+0xea>
 800732a:	06d0      	lsls	r0, r2, #27
 800732c:	bf44      	itt	mi
 800732e:	2320      	movmi	r3, #32
 8007330:	f88d 3053 	strbmi.w	r3, [sp, #83]	@ 0x53
 8007334:	0711      	lsls	r1, r2, #28
 8007336:	bf44      	itt	mi
 8007338:	232b      	movmi	r3, #43	@ 0x2b
 800733a:	f88d 3053 	strbmi.w	r3, [sp, #83]	@ 0x53
 800733e:	f89a 3000 	ldrb.w	r3, [sl]
 8007342:	2b2a      	cmp	r3, #42	@ 0x2a
 8007344:	d015      	beq.n	8007372 <_svfiprintf_r+0xfa>
 8007346:	4654      	mov	r4, sl
 8007348:	2000      	movs	r0, #0
 800734a:	f04f 0c0a 	mov.w	ip, #10
 800734e:	9a07      	ldr	r2, [sp, #28]
 8007350:	4621      	mov	r1, r4
 8007352:	f811 3b01 	ldrb.w	r3, [r1], #1
 8007356:	3b30      	subs	r3, #48	@ 0x30
 8007358:	2b09      	cmp	r3, #9
 800735a:	d94b      	bls.n	80073f4 <_svfiprintf_r+0x17c>
 800735c:	b1b0      	cbz	r0, 800738c <_svfiprintf_r+0x114>
 800735e:	9207      	str	r2, [sp, #28]
 8007360:	e014      	b.n	800738c <_svfiprintf_r+0x114>
 8007362:	eba0 0308 	sub.w	r3, r0, r8
 8007366:	fa09 f303 	lsl.w	r3, r9, r3
 800736a:	4313      	orrs	r3, r2
 800736c:	46a2      	mov	sl, r4
 800736e:	9304      	str	r3, [sp, #16]
 8007370:	e7d2      	b.n	8007318 <_svfiprintf_r+0xa0>
 8007372:	9b03      	ldr	r3, [sp, #12]
 8007374:	1d19      	adds	r1, r3, #4
 8007376:	681b      	ldr	r3, [r3, #0]
 8007378:	9103      	str	r1, [sp, #12]
 800737a:	2b00      	cmp	r3, #0
 800737c:	bfbb      	ittet	lt
 800737e:	425b      	neglt	r3, r3
 8007380:	f042 0202 	orrlt.w	r2, r2, #2
 8007384:	9307      	strge	r3, [sp, #28]
 8007386:	9307      	strlt	r3, [sp, #28]
 8007388:	bfb8      	it	lt
 800738a:	9204      	strlt	r2, [sp, #16]
 800738c:	7823      	ldrb	r3, [r4, #0]
 800738e:	2b2e      	cmp	r3, #46	@ 0x2e
 8007390:	d10a      	bne.n	80073a8 <_svfiprintf_r+0x130>
 8007392:	7863      	ldrb	r3, [r4, #1]
 8007394:	2b2a      	cmp	r3, #42	@ 0x2a
 8007396:	d132      	bne.n	80073fe <_svfiprintf_r+0x186>
 8007398:	9b03      	ldr	r3, [sp, #12]
 800739a:	3402      	adds	r4, #2
 800739c:	1d1a      	adds	r2, r3, #4
 800739e:	681b      	ldr	r3, [r3, #0]
 80073a0:	9203      	str	r2, [sp, #12]
 80073a2:	ea43 73e3 	orr.w	r3, r3, r3, asr #31
 80073a6:	9305      	str	r3, [sp, #20]
 80073a8:	f8df a0b4 	ldr.w	sl, [pc, #180]	@ 8007460 <_svfiprintf_r+0x1e8>
 80073ac:	2203      	movs	r2, #3
 80073ae:	4650      	mov	r0, sl
 80073b0:	7821      	ldrb	r1, [r4, #0]
 80073b2:	f000 fa17 	bl	80077e4 <memchr>
 80073b6:	b138      	cbz	r0, 80073c8 <_svfiprintf_r+0x150>
 80073b8:	2240      	movs	r2, #64	@ 0x40
 80073ba:	9b04      	ldr	r3, [sp, #16]
 80073bc:	eba0 000a 	sub.w	r0, r0, sl
 80073c0:	4082      	lsls	r2, r0
 80073c2:	4313      	orrs	r3, r2
 80073c4:	3401      	adds	r4, #1
 80073c6:	9304      	str	r3, [sp, #16]
 80073c8:	f814 1b01 	ldrb.w	r1, [r4], #1
 80073cc:	2206      	movs	r2, #6
 80073ce:	4825      	ldr	r0, [pc, #148]	@ (8007464 <_svfiprintf_r+0x1ec>)
 80073d0:	f88d 1028 	strb.w	r1, [sp, #40]	@ 0x28
 80073d4:	f000 fa06 	bl	80077e4 <memchr>
 80073d8:	2800      	cmp	r0, #0
 80073da:	d036      	beq.n	800744a <_svfiprintf_r+0x1d2>
 80073dc:	4b22      	ldr	r3, [pc, #136]	@ (8007468 <_svfiprintf_r+0x1f0>)
 80073de:	bb1b      	cbnz	r3, 8007428 <_svfiprintf_r+0x1b0>
 80073e0:	9b03      	ldr	r3, [sp, #12]
 80073e2:	3307      	adds	r3, #7
 80073e4:	f023 0307 	bic.w	r3, r3, #7
 80073e8:	3308      	adds	r3, #8
 80073ea:	9303      	str	r3, [sp, #12]
 80073ec:	9b09      	ldr	r3, [sp, #36]	@ 0x24
 80073ee:	4433      	add	r3, r6
 80073f0:	9309      	str	r3, [sp, #36]	@ 0x24
 80073f2:	e76a      	b.n	80072ca <_svfiprintf_r+0x52>
 80073f4:	460c      	mov	r4, r1
 80073f6:	2001      	movs	r0, #1
 80073f8:	fb0c 3202 	mla	r2, ip, r2, r3
 80073fc:	e7a8      	b.n	8007350 <_svfiprintf_r+0xd8>
 80073fe:	2300      	movs	r3, #0
 8007400:	f04f 0c0a 	mov.w	ip, #10
 8007404:	4619      	mov	r1, r3
 8007406:	3401      	adds	r4, #1
 8007408:	9305      	str	r3, [sp, #20]
 800740a:	4620      	mov	r0, r4
 800740c:	f810 2b01 	ldrb.w	r2, [r0], #1
 8007410:	3a30      	subs	r2, #48	@ 0x30
 8007412:	2a09      	cmp	r2, #9
 8007414:	d903      	bls.n	800741e <_svfiprintf_r+0x1a6>
 8007416:	2b00      	cmp	r3, #0
 8007418:	d0c6      	beq.n	80073a8 <_svfiprintf_r+0x130>
 800741a:	9105      	str	r1, [sp, #20]
 800741c:	e7c4      	b.n	80073a8 <_svfiprintf_r+0x130>
 800741e:	4604      	mov	r4, r0
 8007420:	2301      	movs	r3, #1
 8007422:	fb0c 2101 	mla	r1, ip, r1, r2
 8007426:	e7f0      	b.n	800740a <_svfiprintf_r+0x192>
 8007428:	ab03      	add	r3, sp, #12
 800742a:	9300      	str	r3, [sp, #0]
 800742c:	462a      	mov	r2, r5
 800742e:	4638      	mov	r0, r7
 8007430:	4b0e      	ldr	r3, [pc, #56]	@ (800746c <_svfiprintf_r+0x1f4>)
 8007432:	a904      	add	r1, sp, #16
 8007434:	f3af 8000 	nop.w
 8007438:	1c42      	adds	r2, r0, #1
 800743a:	4606      	mov	r6, r0
 800743c:	d1d6      	bne.n	80073ec <_svfiprintf_r+0x174>
 800743e:	89ab      	ldrh	r3, [r5, #12]
 8007440:	065b      	lsls	r3, r3, #25
 8007442:	f53f af2d 	bmi.w	80072a0 <_svfiprintf_r+0x28>
 8007446:	9809      	ldr	r0, [sp, #36]	@ 0x24
 8007448:	e72c      	b.n	80072a4 <_svfiprintf_r+0x2c>
 800744a:	ab03      	add	r3, sp, #12
 800744c:	9300      	str	r3, [sp, #0]
 800744e:	462a      	mov	r2, r5
 8007450:	4638      	mov	r0, r7
 8007452:	4b06      	ldr	r3, [pc, #24]	@ (800746c <_svfiprintf_r+0x1f4>)
 8007454:	a904      	add	r1, sp, #16
 8007456:	f000 f87d 	bl	8007554 <_printf_i>
 800745a:	e7ed      	b.n	8007438 <_svfiprintf_r+0x1c0>
 800745c:	080084dc 	.word	0x080084dc
 8007460:	080084e2 	.word	0x080084e2
 8007464:	080084e6 	.word	0x080084e6
 8007468:	00000000 	.word	0x00000000
 800746c:	080071c1 	.word	0x080071c1

08007470 <_printf_common>:
 8007470:	e92d 47f0 	stmdb	sp!, {r4, r5, r6, r7, r8, r9, sl, lr}
 8007474:	4616      	mov	r6, r2
 8007476:	4698      	mov	r8, r3
 8007478:	688a      	ldr	r2, [r1, #8]
 800747a:	690b      	ldr	r3, [r1, #16]
 800747c:	4607      	mov	r7, r0
 800747e:	4293      	cmp	r3, r2
 8007480:	bfb8      	it	lt
 8007482:	4613      	movlt	r3, r2
 8007484:	6033      	str	r3, [r6, #0]
 8007486:	f891 2043 	ldrb.w	r2, [r1, #67]	@ 0x43
 800748a:	460c      	mov	r4, r1
 800748c:	f8dd 9020 	ldr.w	r9, [sp, #32]
 8007490:	b10a      	cbz	r2, 8007496 <_printf_common+0x26>
 8007492:	3301      	adds	r3, #1
 8007494:	6033      	str	r3, [r6, #0]
 8007496:	6823      	ldr	r3, [r4, #0]
 8007498:	0699      	lsls	r1, r3, #26
 800749a:	bf42      	ittt	mi
 800749c:	6833      	ldrmi	r3, [r6, #0]
 800749e:	3302      	addmi	r3, #2
 80074a0:	6033      	strmi	r3, [r6, #0]
 80074a2:	6825      	ldr	r5, [r4, #0]
 80074a4:	f015 0506 	ands.w	r5, r5, #6
 80074a8:	d106      	bne.n	80074b8 <_printf_common+0x48>
 80074aa:	f104 0a19 	add.w	sl, r4, #25
 80074ae:	68e3      	ldr	r3, [r4, #12]
 80074b0:	6832      	ldr	r2, [r6, #0]
 80074b2:	1a9b      	subs	r3, r3, r2
 80074b4:	42ab      	cmp	r3, r5
 80074b6:	dc2b      	bgt.n	8007510 <_printf_common+0xa0>
 80074b8:	f894 3043 	ldrb.w	r3, [r4, #67]	@ 0x43
 80074bc:	6822      	ldr	r2, [r4, #0]
 80074be:	3b00      	subs	r3, #0
 80074c0:	bf18      	it	ne
 80074c2:	2301      	movne	r3, #1
 80074c4:	0692      	lsls	r2, r2, #26
 80074c6:	d430      	bmi.n	800752a <_printf_common+0xba>
 80074c8:	4641      	mov	r1, r8
 80074ca:	4638      	mov	r0, r7
 80074cc:	f104 0243 	add.w	r2, r4, #67	@ 0x43
 80074d0:	47c8      	blx	r9
 80074d2:	3001      	adds	r0, #1
 80074d4:	d023      	beq.n	800751e <_printf_common+0xae>
 80074d6:	6823      	ldr	r3, [r4, #0]
 80074d8:	6922      	ldr	r2, [r4, #16]
 80074da:	f003 0306 	and.w	r3, r3, #6
 80074de:	2b04      	cmp	r3, #4
 80074e0:	bf14      	ite	ne
 80074e2:	2500      	movne	r5, #0
 80074e4:	6833      	ldreq	r3, [r6, #0]
 80074e6:	f04f 0600 	mov.w	r6, #0
 80074ea:	bf08      	it	eq
 80074ec:	68e5      	ldreq	r5, [r4, #12]
 80074ee:	f104 041a 	add.w	r4, r4, #26
 80074f2:	bf08      	it	eq
 80074f4:	1aed      	subeq	r5, r5, r3
 80074f6:	f854 3c12 	ldr.w	r3, [r4, #-18]
 80074fa:	bf08      	it	eq
 80074fc:	ea25 75e5 	biceq.w	r5, r5, r5, asr #31
 8007500:	4293      	cmp	r3, r2
 8007502:	bfc4      	itt	gt
 8007504:	1a9b      	subgt	r3, r3, r2
 8007506:	18ed      	addgt	r5, r5, r3
 8007508:	42b5      	cmp	r5, r6
 800750a:	d11a      	bne.n	8007542 <_printf_common+0xd2>
 800750c:	2000      	movs	r0, #0
 800750e:	e008      	b.n	8007522 <_printf_common+0xb2>
 8007510:	2301      	movs	r3, #1
 8007512:	4652      	mov	r2, sl
 8007514:	4641      	mov	r1, r8
 8007516:	4638      	mov	r0, r7
 8007518:	47c8      	blx	r9
 800751a:	3001      	adds	r0, #1
 800751c:	d103      	bne.n	8007526 <_printf_common+0xb6>
 800751e:	f04f 30ff 	mov.w	r0, #4294967295
 8007522:	e8bd 87f0 	ldmia.w	sp!, {r4, r5, r6, r7, r8, r9, sl, pc}
 8007526:	3501      	adds	r5, #1
 8007528:	e7c1      	b.n	80074ae <_printf_common+0x3e>
 800752a:	2030      	movs	r0, #48	@ 0x30
 800752c:	18e1      	adds	r1, r4, r3
 800752e:	f881 0043 	strb.w	r0, [r1, #67]	@ 0x43
 8007532:	1c5a      	adds	r2, r3, #1
 8007534:	f894 1045 	ldrb.w	r1, [r4, #69]	@ 0x45
 8007538:	4422      	add	r2, r4
 800753a:	3302      	adds	r3, #2
 800753c:	f882 1043 	strb.w	r1, [r2, #67]	@ 0x43
 8007540:	e7c2      	b.n	80074c8 <_printf_common+0x58>
 8007542:	2301      	movs	r3, #1
 8007544:	4622      	mov	r2, r4
 8007546:	4641      	mov	r1, r8
 8007548:	4638      	mov	r0, r7
 800754a:	47c8      	blx	r9
 800754c:	3001      	adds	r0, #1
 800754e:	d0e6      	beq.n	800751e <_printf_common+0xae>
 8007550:	3601      	adds	r6, #1
 8007552:	e7d9      	b.n	8007508 <_printf_common+0x98>

08007554 <_printf_i>:
 8007554:	e92d 47ff 	stmdb	sp!, {r0, r1, r2, r3, r4, r5, r6, r7, r8, r9, sl, lr}
 8007558:	7e0f      	ldrb	r7, [r1, #24]
 800755a:	4691      	mov	r9, r2
 800755c:	2f78      	cmp	r7, #120	@ 0x78
 800755e:	4680      	mov	r8, r0
 8007560:	460c      	mov	r4, r1
 8007562:	469a      	mov	sl, r3
 8007564:	9e0c      	ldr	r6, [sp, #48]	@ 0x30
 8007566:	f101 0243 	add.w	r2, r1, #67	@ 0x43
 800756a:	d807      	bhi.n	800757c <_printf_i+0x28>
 800756c:	2f62      	cmp	r7, #98	@ 0x62
 800756e:	d80a      	bhi.n	8007586 <_printf_i+0x32>
 8007570:	2f00      	cmp	r7, #0
 8007572:	f000 80d1 	beq.w	8007718 <_printf_i+0x1c4>
 8007576:	2f58      	cmp	r7, #88	@ 0x58
 8007578:	f000 80b8 	beq.w	80076ec <_printf_i+0x198>
 800757c:	f104 0642 	add.w	r6, r4, #66	@ 0x42
 8007580:	f884 7042 	strb.w	r7, [r4, #66]	@ 0x42
 8007584:	e03a      	b.n	80075fc <_printf_i+0xa8>
 8007586:	f1a7 0363 	sub.w	r3, r7, #99	@ 0x63
 800758a:	2b15      	cmp	r3, #21
 800758c:	d8f6      	bhi.n	800757c <_printf_i+0x28>
 800758e:	a101      	add	r1, pc, #4	@ (adr r1, 8007594 <_printf_i+0x40>)
 8007590:	f851 f023 	ldr.w	pc, [r1, r3, lsl #2]
 8007594:	080075ed 	.word	0x080075ed
 8007598:	08007601 	.word	0x08007601
 800759c:	0800757d 	.word	0x0800757d
 80075a0:	0800757d 	.word	0x0800757d
 80075a4:	0800757d 	.word	0x0800757d
 80075a8:	0800757d 	.word	0x0800757d
 80075ac:	08007601 	.word	0x08007601
 80075b0:	0800757d 	.word	0x0800757d
 80075b4:	0800757d 	.word	0x0800757d
 80075b8:	0800757d 	.word	0x0800757d
 80075bc:	0800757d 	.word	0x0800757d
 80075c0:	080076ff 	.word	0x080076ff
 80075c4:	0800762b 	.word	0x0800762b
 80075c8:	080076b9 	.word	0x080076b9
 80075cc:	0800757d 	.word	0x0800757d
 80075d0:	0800757d 	.word	0x0800757d
 80075d4:	08007721 	.word	0x08007721
 80075d8:	0800757d 	.word	0x0800757d
 80075dc:	0800762b 	.word	0x0800762b
 80075e0:	0800757d 	.word	0x0800757d
 80075e4:	0800757d 	.word	0x0800757d
 80075e8:	080076c1 	.word	0x080076c1
 80075ec:	6833      	ldr	r3, [r6, #0]
 80075ee:	1d1a      	adds	r2, r3, #4
 80075f0:	681b      	ldr	r3, [r3, #0]
 80075f2:	6032      	str	r2, [r6, #0]
 80075f4:	f104 0642 	add.w	r6, r4, #66	@ 0x42
 80075f8:	f884 3042 	strb.w	r3, [r4, #66]	@ 0x42
 80075fc:	2301      	movs	r3, #1
 80075fe:	e09c      	b.n	800773a <_printf_i+0x1e6>
 8007600:	6833      	ldr	r3, [r6, #0]
 8007602:	6820      	ldr	r0, [r4, #0]
 8007604:	1d19      	adds	r1, r3, #4
 8007606:	6031      	str	r1, [r6, #0]
 8007608:	0606      	lsls	r6, r0, #24
 800760a:	d501      	bpl.n	8007610 <_printf_i+0xbc>
 800760c:	681d      	ldr	r5, [r3, #0]
 800760e:	e003      	b.n	8007618 <_printf_i+0xc4>
 8007610:	0645      	lsls	r5, r0, #25
 8007612:	d5fb      	bpl.n	800760c <_printf_i+0xb8>
 8007614:	f9b3 5000 	ldrsh.w	r5, [r3]
 8007618:	2d00      	cmp	r5, #0
 800761a:	da03      	bge.n	8007624 <_printf_i+0xd0>
 800761c:	232d      	movs	r3, #45	@ 0x2d
 800761e:	426d      	negs	r5, r5
 8007620:	f884 3043 	strb.w	r3, [r4, #67]	@ 0x43
 8007624:	230a      	movs	r3, #10
 8007626:	4858      	ldr	r0, [pc, #352]	@ (8007788 <_printf_i+0x234>)
 8007628:	e011      	b.n	800764e <_printf_i+0xfa>
 800762a:	6821      	ldr	r1, [r4, #0]
 800762c:	6833      	ldr	r3, [r6, #0]
 800762e:	0608      	lsls	r0, r1, #24
 8007630:	f853 5b04 	ldr.w	r5, [r3], #4
 8007634:	d402      	bmi.n	800763c <_printf_i+0xe8>
 8007636:	0649      	lsls	r1, r1, #25
 8007638:	bf48      	it	mi
 800763a:	b2ad      	uxthmi	r5, r5
 800763c:	2f6f      	cmp	r7, #111	@ 0x6f
 800763e:	6033      	str	r3, [r6, #0]
 8007640:	bf14      	ite	ne
 8007642:	230a      	movne	r3, #10
 8007644:	2308      	moveq	r3, #8
 8007646:	4850      	ldr	r0, [pc, #320]	@ (8007788 <_printf_i+0x234>)
 8007648:	2100      	movs	r1, #0
 800764a:	f884 1043 	strb.w	r1, [r4, #67]	@ 0x43
 800764e:	6866      	ldr	r6, [r4, #4]
 8007650:	2e00      	cmp	r6, #0
 8007652:	60a6      	str	r6, [r4, #8]
 8007654:	db05      	blt.n	8007662 <_printf_i+0x10e>
 8007656:	6821      	ldr	r1, [r4, #0]
 8007658:	432e      	orrs	r6, r5
 800765a:	f021 0104 	bic.w	r1, r1, #4
 800765e:	6021      	str	r1, [r4, #0]
 8007660:	d04b      	beq.n	80076fa <_printf_i+0x1a6>
 8007662:	4616      	mov	r6, r2
 8007664:	fbb5 f1f3 	udiv	r1, r5, r3
 8007668:	fb03 5711 	mls	r7, r3, r1, r5
 800766c:	5dc7      	ldrb	r7, [r0, r7]
 800766e:	f806 7d01 	strb.w	r7, [r6, #-1]!
 8007672:	462f      	mov	r7, r5
 8007674:	42bb      	cmp	r3, r7
 8007676:	460d      	mov	r5, r1
 8007678:	d9f4      	bls.n	8007664 <_printf_i+0x110>
 800767a:	2b08      	cmp	r3, #8
 800767c:	d10b      	bne.n	8007696 <_printf_i+0x142>
 800767e:	6823      	ldr	r3, [r4, #0]
 8007680:	07df      	lsls	r7, r3, #31
 8007682:	d508      	bpl.n	8007696 <_printf_i+0x142>
 8007684:	6923      	ldr	r3, [r4, #16]
 8007686:	6861      	ldr	r1, [r4, #4]
 8007688:	4299      	cmp	r1, r3
 800768a:	bfde      	ittt	le
 800768c:	2330      	movle	r3, #48	@ 0x30
 800768e:	f806 3c01 	strble.w	r3, [r6, #-1]
 8007692:	f106 36ff 	addle.w	r6, r6, #4294967295
 8007696:	1b92      	subs	r2, r2, r6
 8007698:	6122      	str	r2, [r4, #16]
 800769a:	464b      	mov	r3, r9
 800769c:	4621      	mov	r1, r4
 800769e:	4640      	mov	r0, r8
 80076a0:	f8cd a000 	str.w	sl, [sp]
 80076a4:	aa03      	add	r2, sp, #12
 80076a6:	f7ff fee3 	bl	8007470 <_printf_common>
 80076aa:	3001      	adds	r0, #1
 80076ac:	d14a      	bne.n	8007744 <_printf_i+0x1f0>
 80076ae:	f04f 30ff 	mov.w	r0, #4294967295
 80076b2:	b004      	add	sp, #16
 80076b4:	e8bd 87f0 	ldmia.w	sp!, {r4, r5, r6, r7, r8, r9, sl, pc}
 80076b8:	6823      	ldr	r3, [r4, #0]
 80076ba:	f043 0320 	orr.w	r3, r3, #32
 80076be:	6023      	str	r3, [r4, #0]
 80076c0:	2778      	movs	r7, #120	@ 0x78
 80076c2:	4832      	ldr	r0, [pc, #200]	@ (800778c <_printf_i+0x238>)
 80076c4:	f884 7045 	strb.w	r7, [r4, #69]	@ 0x45
 80076c8:	6823      	ldr	r3, [r4, #0]
 80076ca:	6831      	ldr	r1, [r6, #0]
 80076cc:	061f      	lsls	r7, r3, #24
 80076ce:	f851 5b04 	ldr.w	r5, [r1], #4
 80076d2:	d402      	bmi.n	80076da <_printf_i+0x186>
 80076d4:	065f      	lsls	r7, r3, #25
 80076d6:	bf48      	it	mi
 80076d8:	b2ad      	uxthmi	r5, r5
 80076da:	6031      	str	r1, [r6, #0]
 80076dc:	07d9      	lsls	r1, r3, #31
 80076de:	bf44      	itt	mi
 80076e0:	f043 0320 	orrmi.w	r3, r3, #32
 80076e4:	6023      	strmi	r3, [r4, #0]
 80076e6:	b11d      	cbz	r5, 80076f0 <_printf_i+0x19c>
 80076e8:	2310      	movs	r3, #16
 80076ea:	e7ad      	b.n	8007648 <_printf_i+0xf4>
 80076ec:	4826      	ldr	r0, [pc, #152]	@ (8007788 <_printf_i+0x234>)
 80076ee:	e7e9      	b.n	80076c4 <_printf_i+0x170>
 80076f0:	6823      	ldr	r3, [r4, #0]
 80076f2:	f023 0320 	bic.w	r3, r3, #32
 80076f6:	6023      	str	r3, [r4, #0]
 80076f8:	e7f6      	b.n	80076e8 <_printf_i+0x194>
 80076fa:	4616      	mov	r6, r2
 80076fc:	e7bd      	b.n	800767a <_printf_i+0x126>
 80076fe:	6833      	ldr	r3, [r6, #0]
 8007700:	6825      	ldr	r5, [r4, #0]
 8007702:	1d18      	adds	r0, r3, #4
 8007704:	6961      	ldr	r1, [r4, #20]
 8007706:	6030      	str	r0, [r6, #0]
 8007708:	062e      	lsls	r6, r5, #24
 800770a:	681b      	ldr	r3, [r3, #0]
 800770c:	d501      	bpl.n	8007712 <_printf_i+0x1be>
 800770e:	6019      	str	r1, [r3, #0]
 8007710:	e002      	b.n	8007718 <_printf_i+0x1c4>
 8007712:	0668      	lsls	r0, r5, #25
 8007714:	d5fb      	bpl.n	800770e <_printf_i+0x1ba>
 8007716:	8019      	strh	r1, [r3, #0]
 8007718:	2300      	movs	r3, #0
 800771a:	4616      	mov	r6, r2
 800771c:	6123      	str	r3, [r4, #16]
 800771e:	e7bc      	b.n	800769a <_printf_i+0x146>
 8007720:	6833      	ldr	r3, [r6, #0]
 8007722:	2100      	movs	r1, #0
 8007724:	1d1a      	adds	r2, r3, #4
 8007726:	6032      	str	r2, [r6, #0]
 8007728:	681e      	ldr	r6, [r3, #0]
 800772a:	6862      	ldr	r2, [r4, #4]
 800772c:	4630      	mov	r0, r6
 800772e:	f000 f859 	bl	80077e4 <memchr>
 8007732:	b108      	cbz	r0, 8007738 <_printf_i+0x1e4>
 8007734:	1b80      	subs	r0, r0, r6
 8007736:	6060      	str	r0, [r4, #4]
 8007738:	6863      	ldr	r3, [r4, #4]
 800773a:	6123      	str	r3, [r4, #16]
 800773c:	2300      	movs	r3, #0
 800773e:	f884 3043 	strb.w	r3, [r4, #67]	@ 0x43
 8007742:	e7aa      	b.n	800769a <_printf_i+0x146>
 8007744:	4632      	mov	r2, r6
 8007746:	4649      	mov	r1, r9
 8007748:	4640      	mov	r0, r8
 800774a:	6923      	ldr	r3, [r4, #16]
 800774c:	47d0      	blx	sl
 800774e:	3001      	adds	r0, #1
 8007750:	d0ad      	beq.n	80076ae <_printf_i+0x15a>
 8007752:	6823      	ldr	r3, [r4, #0]
 8007754:	079b      	lsls	r3, r3, #30
 8007756:	d413      	bmi.n	8007780 <_printf_i+0x22c>
 8007758:	68e0      	ldr	r0, [r4, #12]
 800775a:	9b03      	ldr	r3, [sp, #12]
 800775c:	4298      	cmp	r0, r3
 800775e:	bfb8      	it	lt
 8007760:	4618      	movlt	r0, r3
 8007762:	e7a6      	b.n	80076b2 <_printf_i+0x15e>
 8007764:	2301      	movs	r3, #1
 8007766:	4632      	mov	r2, r6
 8007768:	4649      	mov	r1, r9
 800776a:	4640      	mov	r0, r8
 800776c:	47d0      	blx	sl
 800776e:	3001      	adds	r0, #1
 8007770:	d09d      	beq.n	80076ae <_printf_i+0x15a>
 8007772:	3501      	adds	r5, #1
 8007774:	68e3      	ldr	r3, [r4, #12]
 8007776:	9903      	ldr	r1, [sp, #12]
 8007778:	1a5b      	subs	r3, r3, r1
 800777a:	42ab      	cmp	r3, r5
 800777c:	dcf2      	bgt.n	8007764 <_printf_i+0x210>
 800777e:	e7eb      	b.n	8007758 <_printf_i+0x204>
 8007780:	2500      	movs	r5, #0
 8007782:	f104 0619 	add.w	r6, r4, #25
 8007786:	e7f5      	b.n	8007774 <_printf_i+0x220>
 8007788:	080084ed 	.word	0x080084ed
 800778c:	080084fe 	.word	0x080084fe

08007790 <memmove>:
 8007790:	4288      	cmp	r0, r1
 8007792:	b510      	push	{r4, lr}
 8007794:	eb01 0402 	add.w	r4, r1, r2
 8007798:	d902      	bls.n	80077a0 <memmove+0x10>
 800779a:	4284      	cmp	r4, r0
 800779c:	4623      	mov	r3, r4
 800779e:	d807      	bhi.n	80077b0 <memmove+0x20>
 80077a0:	1e43      	subs	r3, r0, #1
 80077a2:	42a1      	cmp	r1, r4
 80077a4:	d008      	beq.n	80077b8 <memmove+0x28>
 80077a6:	f811 2b01 	ldrb.w	r2, [r1], #1
 80077aa:	f803 2f01 	strb.w	r2, [r3, #1]!
 80077ae:	e7f8      	b.n	80077a2 <memmove+0x12>
 80077b0:	4601      	mov	r1, r0
 80077b2:	4402      	add	r2, r0
 80077b4:	428a      	cmp	r2, r1
 80077b6:	d100      	bne.n	80077ba <memmove+0x2a>
 80077b8:	bd10      	pop	{r4, pc}
 80077ba:	f813 4d01 	ldrb.w	r4, [r3, #-1]!
 80077be:	f802 4d01 	strb.w	r4, [r2, #-1]!
 80077c2:	e7f7      	b.n	80077b4 <memmove+0x24>

080077c4 <_sbrk_r>:
 80077c4:	b538      	push	{r3, r4, r5, lr}
 80077c6:	2300      	movs	r3, #0
 80077c8:	4d05      	ldr	r5, [pc, #20]	@ (80077e0 <_sbrk_r+0x1c>)
 80077ca:	4604      	mov	r4, r0
 80077cc:	4608      	mov	r0, r1
 80077ce:	602b      	str	r3, [r5, #0]
 80077d0:	f7fc fc66 	bl	80040a0 <_sbrk>
 80077d4:	1c43      	adds	r3, r0, #1
 80077d6:	d102      	bne.n	80077de <_sbrk_r+0x1a>
 80077d8:	682b      	ldr	r3, [r5, #0]
 80077da:	b103      	cbz	r3, 80077de <_sbrk_r+0x1a>
 80077dc:	6023      	str	r3, [r4, #0]
 80077de:	bd38      	pop	{r3, r4, r5, pc}
 80077e0:	200005bc 	.word	0x200005bc

080077e4 <memchr>:
 80077e4:	4603      	mov	r3, r0
 80077e6:	b510      	push	{r4, lr}
 80077e8:	b2c9      	uxtb	r1, r1
 80077ea:	4402      	add	r2, r0
 80077ec:	4293      	cmp	r3, r2
 80077ee:	4618      	mov	r0, r3
 80077f0:	d101      	bne.n	80077f6 <memchr+0x12>
 80077f2:	2000      	movs	r0, #0
 80077f4:	e003      	b.n	80077fe <memchr+0x1a>
 80077f6:	7804      	ldrb	r4, [r0, #0]
 80077f8:	3301      	adds	r3, #1
 80077fa:	428c      	cmp	r4, r1
 80077fc:	d1f6      	bne.n	80077ec <memchr+0x8>
 80077fe:	bd10      	pop	{r4, pc}

08007800 <memcpy>:
 8007800:	440a      	add	r2, r1
 8007802:	4291      	cmp	r1, r2
 8007804:	f100 33ff 	add.w	r3, r0, #4294967295
 8007808:	d100      	bne.n	800780c <memcpy+0xc>
 800780a:	4770      	bx	lr
 800780c:	b510      	push	{r4, lr}
 800780e:	f811 4b01 	ldrb.w	r4, [r1], #1
 8007812:	4291      	cmp	r1, r2
 8007814:	f803 4f01 	strb.w	r4, [r3, #1]!
 8007818:	d1f9      	bne.n	800780e <memcpy+0xe>
 800781a:	bd10      	pop	{r4, pc}

0800781c <_realloc_r>:
 800781c:	e92d 41f0 	stmdb	sp!, {r4, r5, r6, r7, r8, lr}
 8007820:	4607      	mov	r7, r0
 8007822:	4614      	mov	r4, r2
 8007824:	460d      	mov	r5, r1
 8007826:	b921      	cbnz	r1, 8007832 <_realloc_r+0x16>
 8007828:	4611      	mov	r1, r2
 800782a:	e8bd 41f0 	ldmia.w	sp!, {r4, r5, r6, r7, r8, lr}
 800782e:	f7ff bc3b 	b.w	80070a8 <_malloc_r>
 8007832:	b92a      	cbnz	r2, 8007840 <_realloc_r+0x24>
 8007834:	f7ff fbce 	bl	8006fd4 <_free_r>
 8007838:	4625      	mov	r5, r4
 800783a:	4628      	mov	r0, r5
 800783c:	e8bd 81f0 	ldmia.w	sp!, {r4, r5, r6, r7, r8, pc}
 8007840:	f000 f81a 	bl	8007878 <_malloc_usable_size_r>
 8007844:	4284      	cmp	r4, r0
 8007846:	4606      	mov	r6, r0
 8007848:	d802      	bhi.n	8007850 <_realloc_r+0x34>
 800784a:	ebb4 0f50 	cmp.w	r4, r0, lsr #1
 800784e:	d8f4      	bhi.n	800783a <_realloc_r+0x1e>
 8007850:	4621      	mov	r1, r4
 8007852:	4638      	mov	r0, r7
 8007854:	f7ff fc28 	bl	80070a8 <_malloc_r>
 8007858:	4680      	mov	r8, r0
 800785a:	b908      	cbnz	r0, 8007860 <_realloc_r+0x44>
 800785c:	4645      	mov	r5, r8
 800785e:	e7ec      	b.n	800783a <_realloc_r+0x1e>
 8007860:	42b4      	cmp	r4, r6
 8007862:	4622      	mov	r2, r4
 8007864:	4629      	mov	r1, r5
 8007866:	bf28      	it	cs
 8007868:	4632      	movcs	r2, r6
 800786a:	f7ff ffc9 	bl	8007800 <memcpy>
 800786e:	4629      	mov	r1, r5
 8007870:	4638      	mov	r0, r7
 8007872:	f7ff fbaf 	bl	8006fd4 <_free_r>
 8007876:	e7f1      	b.n	800785c <_realloc_r+0x40>

08007878 <_malloc_usable_size_r>:
 8007878:	f851 3c04 	ldr.w	r3, [r1, #-4]
 800787c:	1f18      	subs	r0, r3, #4
 800787e:	2b00      	cmp	r3, #0
 8007880:	bfbc      	itt	lt
 8007882:	580b      	ldrlt	r3, [r1, r0]
 8007884:	18c0      	addlt	r0, r0, r3
 8007886:	4770      	bx	lr

08007888 <_init>:
 8007888:	b5f8      	push	{r3, r4, r5, r6, r7, lr}
 800788a:	bf00      	nop
 800788c:	bcf8      	pop	{r3, r4, r5, r6, r7}
 800788e:	bc08      	pop	{r3}
 8007890:	469e      	mov	lr, r3
 8007892:	4770      	bx	lr

08007894 <_fini>:
 8007894:	b5f8      	push	{r3, r4, r5, r6, r7, lr}
 8007896:	bf00      	nop
 8007898:	bcf8      	pop	{r3, r4, r5, r6, r7}
 800789a:	bc08      	pop	{r3}
 800789c:	469e      	mov	lr, r3
 800789e:	4770      	bx	lr
